(dp1
S'output'
p2
S"<type 'exceptions.KeyError'> 'desc'"
p3
sS'layer'
p4
S'/home/www-data/web2py/applications/obsas_dev/controllers/fiches.py'
p5
sS'code'
p6
S'<code object <module> at 0x7fd3b47a5030, file "/home/www-data/web2py/applications/obsas_dev/controllers/fiches.py", line 3>'
p7
sS'snapshot'
p8
(dp9
S'exception'
p10
(dp11
S'__getslice__'
p12
S"<method-wrapper '__getslice__' of exceptions.KeyError object>"
p13
sS'__str__'
p14
S"<method-wrapper '__str__' of exceptions.KeyError object>"
p15
sS'__reduce__'
p16
S'<built-in method __reduce__ of exceptions.KeyError object>'
p17
sS'__dict__'
p18
S'{}'
p19
sS'message'
p20
S"'desc'"
p21
sS'__sizeof__'
p22
S'<built-in method __sizeof__ of exceptions.KeyError object>'
p23
sS'__init__'
p24
S"<method-wrapper '__init__' of exceptions.KeyError object>"
p25
sS'__setattr__'
p26
S"<method-wrapper '__setattr__' of exceptions.KeyError object>"
p27
sS'__reduce_ex__'
p28
S'<built-in method __reduce_ex__ of exceptions.KeyError object>'
p29
sS'__new__'
p30
S'<built-in method __new__ of type object>'
p31
sS'__format__'
p32
S'<built-in method __format__ of exceptions.KeyError object>'
p33
sS'__class__'
p34
S"<type 'exceptions.KeyError'>"
p35
sS'__doc__'
p36
S"'Mapping key not found.'"
p37
sS'__getitem__'
p38
S"<method-wrapper '__getitem__' of exceptions.KeyError object>"
p39
sS'__setstate__'
p40
S'<built-in method __setstate__ of exceptions.KeyError object>'
p41
sS'__getattribute__'
p42
S"<method-wrapper '__getattribute__' of exceptions.KeyError object>"
p43
sS'args'
p44
S"('desc',)"
p45
sS'__subclasshook__'
p46
S'<built-in method __subclasshook__ of type object>'
p47
sS'__unicode__'
p48
S'<built-in method __unicode__ of exceptions.KeyError object>'
p49
sS'__delattr__'
p50
S"<method-wrapper '__delattr__' of exceptions.KeyError object>"
p51
sS'__repr__'
p52
S"<method-wrapper '__repr__' of exceptions.KeyError object>"
p53
sS'__hash__'
p54
S"<method-wrapper '__hash__' of exceptions.KeyError object>"
p55
ssS'evalue'
p56
S"'desc'"
p57
sS'request'
p58
cgluon.html
XML_unpickle
p59
(S's\xdbx\x00\x00<div><table><tr><td style="font-weight:bold;vertical-align:top;">ajax</td><td style="vertical-align:top;">:</td><td><div>False</div></td></tr><tr><td style="font-weight:bold;vertical-align:top;">application</td><td style="vertical-align:top;">:</td><td><div>obsas_dev</div></td></tr><tr><td style="font-weight:bold;vertical-align:top;">args</td><td style="vertical-align:top;">:</td><td><div><table></table></div></td></tr><tr><td style="font-weight:bold;vertical-align:top;">cid</td><td style="vertical-align:top;">:</td><td><div>None</div></td></tr><tr><td style="font-weight:bold;vertical-align:top;">client</td><td style="vertical-align:top;">:</td><td><div>81.248.7.56</div></td></tr><tr><td style="font-weight:bold;vertical-align:top;">controller</td><td style="vertical-align:top;">:</td><td><div>fiches</div></td></tr><tr><td style="font-weight:bold;vertical-align:top;">cookies</td><td style="vertical-align:top;">:</td><td><div><table><tr><td style="font-weight:bold;vertical-align:top;">session_id_admin</td><td style="vertical-align:top;">:</td><td><div>81.248.7.56-4995d2e7-0c48-4661-bf0a-f41c6e99f2a5<table><tr><td style="font-weight:bold;vertical-align:top;">comment</td><td style="vertical-align:top;">:</td><td><div></div></td></tr><tr><td style="font-weight:bold;vertical-align:top;">domain</td><td style="vertical-align:top;">:</td><td><div></div></td></tr><tr><td style="font-weight:bold;vertical-align:top;">expires</td><td style="vertical-align:top;">:</td><td><div></div></td></tr><tr><td style="font-weight:bold;vertical-align:top;">httponly</td><td style="vertical-align:top;">:</td><td><div></div></td></tr><tr><td style="font-weight:bold;vertical-align:top;">max-age</td><td style="vertical-align:top;">:</td><td><div></div></td></tr><tr><td style="font-weight:bold;vertical-align:top;">path</td><td style="vertical-align:top;">:</td><td><div></div></td></tr><tr><td style="font-weight:bold;vertical-align:top;">secure</td><td style="vertical-align:top;">:</td><td><div></div></td></tr><tr><td style="font-weight:bold;vertical-align:top;">version</td><td style="vertical-align:top;">:</td><td><div></div></td></tr></table></div></td></tr><tr><td style="font-weight:bold;vertical-align:top;">session_id_obsas</td><td style="vertical-align:top;">:</td><td><div>81.248.7.56-7171a511-27a7-44f0-8661-6a243948857f<table><tr><td style="font-weight:bold;vertical-align:top;">comment</td><td style="vertical-align:top;">:</td><td><div></div></td></tr><tr><td style="font-weight:bold;vertical-align:top;">domain</td><td style="vertical-align:top;">:</td><td><div></div></td></tr><tr><td style="font-weight:bold;vertical-align:top;">expires</td><td style="vertical-align:top;">:</td><td><div></div></td></tr><tr><td style="font-weight:bold;vertical-align:top;">httponly</td><td style="vertical-align:top;">:</td><td><div></div></td></tr><tr><td style="font-weight:bold;vertical-align:top;">max-age</td><td style="vertical-align:top;">:</td><td><div></div></td></tr><tr><td style="font-weight:bold;vertical-align:top;">path</td><td style="vertical-align:top;">:</td><td><div></div></td></tr><tr><td style="font-weight:bold;vertical-align:top;">secure</td><td style="vertical-align:top;">:</td><td><div></div></td></tr><tr><td style="font-weight:bold;vertical-align:top;">version</td><td style="vertical-align:top;">:</td><td><div></div></td></tr></table></div></td></tr><tr><td style="font-weight:bold;vertical-align:top;">session_id_obsas_dev</td><td style="vertical-align:top;">:</td><td><div>81.248.7.56-b40f1661-cd26-4b14-afd0-f4fd3014828d<table><tr><td style="font-weight:bold;vertical-align:top;">comment</td><td style="vertical-align:top;">:</td><td><div></div></td></tr><tr><td style="font-weight:bold;vertical-align:top;">domain</td><td style="vertical-align:top;">:</td><td><div></div></td></tr><tr><td style="font-weight:bold;vertical-align:top;">expires</td><td style="vertical-align:top;">:</td><td><div></div></td></tr><tr><td style="font-weight:bold;vertical-align:top;">httponly</td><td style="vertical-align:top;">:</td><td><div></div></td></tr><tr><td style="font-weight:bold;vertical-align:top;">max-age</td><td style="vertical-align:top;">:</td><td><div></div></td></tr><tr><td style="font-weight:bold;vertical-align:top;">path</td><td style="vertical-align:top;">:</td><td><div></div></td></tr><tr><td style="font-weight:bold;vertical-align:top;">secure</td><td style="vertical-align:top;">:</td><td><div></div></td></tr><tr><td style="font-weight:bold;vertical-align:top;">version</td><td style="vertical-align:top;">:</td><td><div></div></td></tr></table></div></td></tr><tr><td style="font-weight:bold;vertical-align:top;">session_id_welcome</td><td style="vertical-align:top;">:</td><td><div>81.248.7.56-0ae8ab43-04d0-4da9-a8cb-d0beba19f461<table><tr><td style="font-weight:bold;vertical-align:top;">comment</td><td style="vertical-align:top;">:</td><td><div></div></td></tr><tr><td style="font-weight:bold;vertical-align:top;">domain</td><td style="vertical-align:top;">:</td><td><div></div></td></tr><tr><td style="font-weight:bold;vertical-align:top;">expires</td><td style="vertical-align:top;">:</td><td><div></div></td></tr><tr><td style="font-weight:bold;vertical-align:top;">httponly</td><td style="vertical-align:top;">:</td><td><div></div></td></tr><tr><td style="font-weight:bold;vertical-align:top;">max-age</td><td style="vertical-align:top;">:</td><td><div></div></td></tr><tr><td style="font-weight:bold;vertical-align:top;">path</td><td style="vertical-align:top;">:</td><td><div></div></td></tr><tr><td style="font-weight:bold;vertical-align:top;">secure</td><td style="vertical-align:top;">:</td><td><div></div></td></tr><tr><td style="font-weight:bold;vertical-align:top;">version</td><td style="vertical-align:top;">:</td><td><div></div></td></tr></table></div></td></tr></table></div></td></tr><tr><td style="font-weight:bold;vertical-align:top;">env</td><td style="vertical-align:top;">:</td><td><div><table><tr><td style="font-weight:bold;vertical-align:top;">CONTEXT_DOCUMENT_ROOT</td><td style="vertical-align:top;">:</td><td><div>/var/www/html</div></td></tr><tr><td style="font-weight:bold;vertical-align:top;">CONTEXT_PREFIX</td><td style="vertical-align:top;">:</td><td><div></div></td></tr><tr><td style="font-weight:bold;vertical-align:top;">DOCUMENT_ROOT</td><td style="vertical-align:top;">:</td><td><div>/var/www/html</div></td></tr><tr><td style="font-weight:bold;vertical-align:top;">GATEWAY_INTERFACE</td><td style="vertical-align:top;">:</td><td><div>CGI/1.1</div></td></tr><tr><td style="font-weight:bold;vertical-align:top;">HTTP_ACCEPT</td><td style="vertical-align:top;">:</td><td><div>text/html,application/xhtml+xml,application/xml;q=0.9,image/webp,*/*;q=0.8</div></td></tr><tr><td style="font-weight:bold;vertical-align:top;">HTTP_ACCEPT_ENCODING</td><td style="vertical-align:top;">:</td><td><div>gzip, deflate, sdch, br</div></td></tr><tr><td style="font-weight:bold;vertical-align:top;">HTTP_ACCEPT_LANGUAGE</td><td style="vertical-align:top;">:</td><td><div>fr-FR,fr;q=0.8,en-US;q=0.6,en;q=0.4</div></td></tr><tr><td style="font-weight:bold;vertical-align:top;">HTTP_CONNECTION</td><td style="vertical-align:top;">:</td><td><div>keep-alive</div></td></tr><tr><td style="font-weight:bold;vertical-align:top;">HTTP_COOKIE</td><td style="vertical-align:top;">:</td><td><div>session_id_welcome=81.248.7.56-0ae8ab43-04d0-4da9-a8cb-d0beba19f461; session_id_obsas=81.248.7.56-7171a511-27a7-44f0-8661-6a243948857f; session_id_admin=81.248.7.56-4995d2e7-0c48-4661-bf0a-f41c6e99f2a5; session_id_obsas_dev=81.248.7.56-b40f1661-cd26-4b14-afd0-f4fd3014828d</div></td></tr><tr><td style="font-weight:bold;vertical-align:top;">HTTP_HOST</td><td style="vertical-align:top;">:</td><td><div>admin.obsas.orvdev.fr</div></td></tr><tr><td style="font-weight:bold;vertical-align:top;">HTTP_UPGRADE_INSECURE_REQUESTS</td><td style="vertical-align:top;">:</td><td><div>1</div></td></tr><tr><td style="font-weight:bold;vertical-align:top;">HTTP_USER_AGENT</td><td style="vertical-align:top;">:</td><td><div>Mozilla/5.0 (X11; Linux x86_64) AppleWebKit/537.36 (KHTML, like Gecko) Ubuntu Chromium/58.0.3029.110 Chrome/58.0.3029.110 Safari/537.36</div></td></tr><tr><td style="font-weight:bold;vertical-align:top;">PATH_INFO</td><td style="vertical-align:top;">:</td><td><div>/obsas_dev/fiches/depute</div></td></tr><tr><td style="font-weight:bold;vertical-align:top;">PATH_TRANSLATED</td><td style="vertical-align:top;">:</td><td><div>/home/www-data/web2py/wsgihandler.py/obsas_dev/fiches/depute</div></td></tr><tr><td style="font-weight:bold;vertical-align:top;">QUERY_STRING</td><td style="vertical-align:top;">:</td><td><div>uid=PA721718</div></td></tr><tr><td style="font-weight:bold;vertical-align:top;">REMOTE_ADDR</td><td style="vertical-align:top;">:</td><td><div>81.248.7.56</div></td></tr><tr><td style="font-weight:bold;vertical-align:top;">REMOTE_PORT</td><td style="vertical-align:top;">:</td><td><div>12027</div></td></tr><tr><td style="font-weight:bold;vertical-align:top;">REQUEST_METHOD</td><td style="vertical-align:top;">:</td><td><div>GET</div></td></tr><tr><td style="font-weight:bold;vertical-align:top;">REQUEST_SCHEME</td><td style="vertical-align:top;">:</td><td><div>https</div></td></tr><tr><td style="font-weight:bold;vertical-align:top;">REQUEST_URI</td><td style="vertical-align:top;">:</td><td><div>/obsas_dev/fiches/depute?uid=PA721718</div></td></tr><tr><td style="font-weight:bold;vertical-align:top;">SCRIPT_FILENAME</td><td style="vertical-align:top;">:</td><td><div>/home/www-data/web2py/wsgihandler.py</div></td></tr><tr><td style="font-weight:bold;vertical-align:top;">SCRIPT_NAME</td><td style="vertical-align:top;">:</td><td><div></div></td></tr><tr><td style="font-weight:bold;vertical-align:top;">SERVER_ADDR</td><td style="vertical-align:top;">:</td><td><div>151.80.57.169</div></td></tr><tr><td style="font-weight:bold;vertical-align:top;">SERVER_ADMIN</td><td style="vertical-align:top;">:</td><td><div>[no address given]</div></td></tr><tr><td style="font-weight:bold;vertical-align:top;">SERVER_NAME</td><td style="vertical-align:top;">:</td><td><div>admin.obsas.orvdev.fr</div></td></tr><tr><td style="font-weight:bold;vertical-align:top;">SERVER_PORT</td><td style="vertical-align:top;">:</td><td><div>443</div></td></tr><tr><td style="font-weight:bold;vertical-align:top;">SERVER_PROTOCOL</td><td style="vertical-align:top;">:</td><td><div>HTTP/1.1</div></td></tr><tr><td style="font-weight:bold;vertical-align:top;">SERVER_SIGNATURE</td><td style="vertical-align:top;">:</td><td><div>&lt;address&gt;Apache/2.4.18 (Ubuntu) Server at admin.obsas.orvdev.fr Port 443&lt;/address&gt;\n</div></td></tr><tr><td style="font-weight:bold;vertical-align:top;">SERVER_SOFTWARE</td><td style="vertical-align:top;">:</td><td><div>Apache/2.4.18 (Ubuntu)</div></td></tr><tr><td style="font-weight:bold;vertical-align:top;">SSL_TLS_SNI</td><td style="vertical-align:top;">:</td><td><div>admin.obsas.orvdev.fr</div></td></tr><tr><td style="font-weight:bold;vertical-align:top;">apache.version</td><td style="vertical-align:top;">:</td><td><div><table><tr><td><div>2</div></td></tr><tr><td><div>4</div></td></tr><tr><td><div>18</div></td></tr></table></div></td></tr><tr><td style="font-weight:bold;vertical-align:top;">apache_version</td><td style="vertical-align:top;">:</td><td><div><table><tr><td><div>2</div></td></tr><tr><td><div>4</div></td></tr><tr><td><div>18</div></td></tr></table></div></td></tr><tr><td style="font-weight:bold;vertical-align:top;">app_folders</td><td style="vertical-align:top;">:</td><td><div>set([&#x27;/home/www-data/web2py/applications/obsas_dev/&#x27;, &#x27;/home/www-data/web2py/applications/welcome/&#x27;, &#x27;/home/www-data/web2py/applications/admin/&#x27;])</div></td></tr><tr><td style="font-weight:bold;vertical-align:top;">applications_parent</td><td style="vertical-align:top;">:</td><td><div>/home/www-data/web2py</div></td></tr><tr><td style="font-weight:bold;vertical-align:top;">context_document_root</td><td style="vertical-align:top;">:</td><td><div>/var/www/html</div></td></tr><tr><td style="font-weight:bold;vertical-align:top;">context_prefix</td><td style="vertical-align:top;">:</td><td><div></div></td></tr><tr><td style="font-weight:bold;vertical-align:top;">db_sessions</td><td style="vertical-align:top;">:</td><td><div>set([])</div></td></tr><tr><td style="font-weight:bold;vertical-align:top;">debugging</td><td style="vertical-align:top;">:</td><td><div>True</div></td></tr><tr><td style="font-weight:bold;vertical-align:top;">document_root</td><td style="vertical-align:top;">:</td><td><div>/var/www/html</div></td></tr><tr><td style="font-weight:bold;vertical-align:top;">gateway_interface</td><td style="vertical-align:top;">:</td><td><div>CGI/1.1</div></td></tr><tr><td style="font-weight:bold;vertical-align:top;">gluon_parent</td><td style="vertical-align:top;">:</td><td><div>/home/www-data/web2py</div></td></tr><tr><td style="font-weight:bold;vertical-align:top;">http_accept</td><td style="vertical-align:top;">:</td><td><div>text/html,application/xhtml+xml,application/xml;q=0.9,image/webp,*/*;q=0.8</div></td></tr><tr><td style="font-weight:bold;vertical-align:top;">http_accept_encoding</td><td style="vertical-align:top;">:</td><td><div>gzip, deflate, sdch, br</div></td></tr><tr><td style="font-weight:bold;vertical-align:top;">http_accept_language</td><td style="vertical-align:top;">:</td><td><div>fr-FR,fr;q=0.8,en-US;q=0.6,en;q=0.4</div></td></tr><tr><td style="font-weight:bold;vertical-align:top;">http_connection</td><td style="vertical-align:top;">:</td><td><div>keep-alive</div></td></tr><tr><td style="font-weight:bold;vertical-align:top;">http_cookie</td><td style="vertical-align:top;">:</td><td><div>session_id_welcome=81.248.7.56-0ae8ab43-04d0-4da9-a8cb-d0beba19f461; session_id_obsas=81.248.7.56-7171a511-27a7-44f0-8661-6a243948857f; session_id_admin=81.248.7.56-4995d2e7-0c48-4661-bf0a-f41c6e99f2a5; session_id_obsas_dev=81.248.7.56-b40f1661-cd26-4b14-afd0-f4fd3014828d</div></td></tr><tr><td style="font-weight:bold;vertical-align:top;">http_host</td><td style="vertical-align:top;">:</td><td><div>admin.obsas.orvdev.fr</div></td></tr><tr><td style="font-weight:bold;vertical-align:top;">http_upgrade_insecure_requests</td><td style="vertical-align:top;">:</td><td><div>1</div></td></tr><tr><td style="font-weight:bold;vertical-align:top;">http_user_agent</td><td style="vertical-align:top;">:</td><td><div>Mozilla/5.0 (X11; Linux x86_64) AppleWebKit/537.36 (KHTML, like Gecko) Ubuntu Chromium/58.0.3029.110 Chrome/58.0.3029.110 Safari/537.36</div></td></tr><tr><td style="font-weight:bold;vertical-align:top;">is_jython</td><td style="vertical-align:top;">:</td><td><div>False</div></td></tr><tr><td style="font-weight:bold;vertical-align:top;">is_py2</td><td style="vertical-align:top;">:</td><td><div>True</div></td></tr><tr><td style="font-weight:bold;vertical-align:top;">is_pypy</td><td style="vertical-align:top;">:</td><td><div>False</div></td></tr><tr><td style="font-weight:bold;vertical-align:top;">is_source</td><td style="vertical-align:top;">:</td><td><div>True</div></td></tr><tr><td style="font-weight:bold;vertical-align:top;">local_hosts</td><td style="vertical-align:top;">:</td><td><div><table><tr><td><div>vps433020</div></td></tr><tr><td><div>::ffff:127.0.0.1</div></td></tr><tr><td><div>::1</div></td></tr><tr><td><div>151.80.57.169</div></td></tr><tr><td><div>vps433020.ovh.net</div></td></tr><tr><td><div>127.0.1.1</div></td></tr><tr><td><div>admin.obsas.orvdev.fr</div></td></tr><tr><td><div>127.0.0.1</div></td></tr></table></div></td></tr><tr><td style="font-weight:bold;vertical-align:top;">mod_wsgi.application_group</td><td style="vertical-align:top;">:</td><td><div></div></td></tr><tr><td style="font-weight:bold;vertical-align:top;">mod_wsgi.callable_object</td><td style="vertical-align:top;">:</td><td><div>application</div></td></tr><tr><td style="font-weight:bold;vertical-align:top;">mod_wsgi.daemon_connects</td><td style="vertical-align:top;">:</td><td><div>1</div></td></tr><tr><td style="font-weight:bold;vertical-align:top;">mod_wsgi.daemon_restarts</td><td style="vertical-align:top;">:</td><td><div>0</div></td></tr><tr><td style="font-weight:bold;vertical-align:top;">mod_wsgi.daemon_start</td><td style="vertical-align:top;">:</td><td><div>1500583354299762</div></td></tr><tr><td style="font-weight:bold;vertical-align:top;">mod_wsgi.enable_sendfile</td><td style="vertical-align:top;">:</td><td><div>0</div></td></tr><tr><td style="font-weight:bold;vertical-align:top;">mod_wsgi.handler_script</td><td style="vertical-align:top;">:</td><td><div></div></td></tr><tr><td style="font-weight:bold;vertical-align:top;">mod_wsgi.input_chunked</td><td style="vertical-align:top;">:</td><td><div>0</div></td></tr><tr><td style="font-weight:bold;vertical-align:top;">mod_wsgi.listener_host</td><td style="vertical-align:top;">:</td><td><div></div></td></tr><tr><td style="font-weight:bold;vertical-align:top;">mod_wsgi.listener_port</td><td style="vertical-align:top;">:</td><td><div>443</div></td></tr><tr><td style="font-weight:bold;vertical-align:top;">mod_wsgi.process_group</td><td style="vertical-align:top;">:</td><td><div>obsasadm</div></td></tr><tr><td style="font-weight:bold;vertical-align:top;">mod_wsgi.queue_start</td><td style="vertical-align:top;">:</td><td><div>1500583354299518</div></td></tr><tr><td style="font-weight:bold;vertical-align:top;">mod_wsgi.request_handler</td><td style="vertical-align:top;">:</td><td><div>wsgi-script</div></td></tr><tr><td style="font-weight:bold;vertical-align:top;">mod_wsgi.request_start</td><td style="vertical-align:top;">:</td><td><div>1500583354298890</div></td></tr><tr><td style="font-weight:bold;vertical-align:top;">mod_wsgi.script_reloading</td><td style="vertical-align:top;">:</td><td><div>1</div></td></tr><tr><td style="font-weight:bold;vertical-align:top;">mod_wsgi.script_start</td><td style="vertical-align:top;">:</td><td><div>1500583354299801</div></td></tr><tr><td style="font-weight:bold;vertical-align:top;">mod_wsgi.version</td><td style="vertical-align:top;">:</td><td><div><table><tr><td><div>4</div></td></tr><tr><td><div>3</div></td></tr><tr><td><div>0</div></td></tr></table></div></td></tr><tr><td style="font-weight:bold;vertical-align:top;">mod_wsgi_application_group</td><td style="vertical-align:top;">:</td><td><div></div></td></tr><tr><td style="font-weight:bold;vertical-align:top;">mod_wsgi_callable_object</td><td style="vertical-align:top;">:</td><td><div>application</div></td></tr><tr><td style="font-weight:bold;vertical-align:top;">mod_wsgi_daemon_connects</td><td style="vertical-align:top;">:</td><td><div>1</div></td></tr><tr><td style="font-weight:bold;vertical-align:top;">mod_wsgi_daemon_restarts</td><td style="vertical-align:top;">:</td><td><div>0</div></td></tr><tr><td style="font-weight:bold;vertical-align:top;">mod_wsgi_daemon_start</td><td style="vertical-align:top;">:</td><td><div>1500583354299762</div></td></tr><tr><td style="font-weight:bold;vertical-align:top;">mod_wsgi_enable_sendfile</td><td style="vertical-align:top;">:</td><td><div>0</div></td></tr><tr><td style="font-weight:bold;vertical-align:top;">mod_wsgi_handler_script</td><td style="vertical-align:top;">:</td><td><div></div></td></tr><tr><td style="font-weight:bold;vertical-align:top;">mod_wsgi_input_chunked</td><td style="vertical-align:top;">:</td><td><div>0</div></td></tr><tr><td style="font-weight:bold;vertical-align:top;">mod_wsgi_listener_host</td><td style="vertical-align:top;">:</td><td><div></div></td></tr><tr><td style="font-weight:bold;vertical-align:top;">mod_wsgi_listener_port</td><td style="vertical-align:top;">:</td><td><div>443</div></td></tr><tr><td style="font-weight:bold;vertical-align:top;">mod_wsgi_process_group</td><td style="vertical-align:top;">:</td><td><div>obsasadm</div></td></tr><tr><td style="font-weight:bold;vertical-align:top;">mod_wsgi_queue_start</td><td style="vertical-align:top;">:</td><td><div>1500583354299518</div></td></tr><tr><td style="font-weight:bold;vertical-align:top;">mod_wsgi_request_handler</td><td style="vertical-align:top;">:</td><td><div>wsgi-script</div></td></tr><tr><td style="font-weight:bold;vertical-align:top;">mod_wsgi_request_start</td><td style="vertical-align:top;">:</td><td><div>1500583354298890</div></td></tr><tr><td style="font-weight:bold;vertical-align:top;">mod_wsgi_script_reloading</td><td style="vertical-align:top;">:</td><td><div>1</div></td></tr><tr><td style="font-weight:bold;vertical-align:top;">mod_wsgi_script_start</td><td style="vertical-align:top;">:</td><td><div>1500583354299801</div></td></tr><tr><td style="font-weight:bold;vertical-align:top;">mod_wsgi_version</td><td style="vertical-align:top;">:</td><td><div><table><tr><td><div>4</div></td></tr><tr><td><div>3</div></td></tr><tr><td><div>0</div></td></tr></table></div></td></tr><tr><td style="font-weight:bold;vertical-align:top;">path_info</td><td style="vertical-align:top;">:</td><td><div>/obsas_dev/fiches/depute</div></td></tr><tr><td style="font-weight:bold;vertical-align:top;">path_translated</td><td style="vertical-align:top;">:</td><td><div>/home/www-data/web2py/wsgihandler.py/obsas_dev/fiches/depute</div></td></tr><tr><td style="font-weight:bold;vertical-align:top;">query_string</td><td style="vertical-align:top;">:</td><td><div>uid=PA721718</div></td></tr><tr><td style="font-weight:bold;vertical-align:top;">remote_addr</td><td style="vertical-align:top;">:</td><td><div>81.248.7.56</div></td></tr><tr><td style="font-weight:bold;vertical-align:top;">remote_port</td><td style="vertical-align:top;">:</td><td><div>12027</div></td></tr><tr><td style="font-weight:bold;vertical-align:top;">request_method</td><td style="vertical-align:top;">:</td><td><div>GET</div></td></tr><tr><td style="font-weight:bold;vertical-align:top;">request_scheme</td><td style="vertical-align:top;">:</td><td><div>https</div></td></tr><tr><td style="font-weight:bold;vertical-align:top;">request_uri</td><td style="vertical-align:top;">:</td><td><div>/obsas_dev/fiches/depute?uid=PA721718</div></td></tr><tr><td style="font-weight:bold;vertical-align:top;">script_filename</td><td style="vertical-align:top;">:</td><td><div>/home/www-data/web2py/wsgihandler.py</div></td></tr><tr><td style="font-weight:bold;vertical-align:top;">script_name</td><td style="vertical-align:top;">:</td><td><div></div></td></tr><tr><td style="font-weight:bold;vertical-align:top;">server_addr</td><td style="vertical-align:top;">:</td><td><div>151.80.57.169</div></td></tr><tr><td style="font-weight:bold;vertical-align:top;">server_admin</td><td style="vertical-align:top;">:</td><td><div>[no address given]</div></td></tr><tr><td style="font-weight:bold;vertical-align:top;">server_name</td><td style="vertical-align:top;">:</td><td><div>admin.obsas.orvdev.fr</div></td></tr><tr><td style="font-weight:bold;vertical-align:top;">server_port</td><td style="vertical-align:top;">:</td><td><div>443</div></td></tr><tr><td style="font-weight:bold;vertical-align:top;">server_protocol</td><td style="vertical-align:top;">:</td><td><div>HTTP/1.1</div></td></tr><tr><td style="font-weight:bold;vertical-align:top;">server_signature</td><td style="vertical-align:top;">:</td><td><div>&lt;address&gt;Apache/2.4.18 (Ubuntu) Server at admin.obsas.orvdev.fr Port 443&lt;/address&gt;\n</div></td></tr><tr><td style="font-weight:bold;vertical-align:top;">server_software</td><td style="vertical-align:top;">:</td><td><div>Apache/2.4.18 (Ubuntu)</div></td></tr><tr><td style="font-weight:bold;vertical-align:top;">ssl_tls_sni</td><td style="vertical-align:top;">:</td><td><div>admin.obsas.orvdev.fr</div></td></tr><tr><td style="font-weight:bold;vertical-align:top;">web2py_original_uri</td><td style="vertical-align:top;">:</td><td><div>/obsas_dev/fiches/depute?uid=PA721718</div></td></tr><tr><td style="font-weight:bold;vertical-align:top;">web2py_path</td><td style="vertical-align:top;">:</td><td><div>/home/www-data/web2py</div></td></tr><tr><td style="font-weight:bold;vertical-align:top;">web2py_version</td><td style="vertical-align:top;">:</td><td><div>2.15.1-stable+timestamp.2017.07.10.21.25.06</div></td></tr><tr><td style="font-weight:bold;vertical-align:top;">wsgi.errors</td><td style="vertical-align:top;">:</td><td><div>&lt;mod_wsgi.Log object at 0x7fd3b45b6540&gt;</div></td></tr><tr><td style="font-weight:bold;vertical-align:top;">wsgi.file_wrapper</td><td style="vertical-align:top;">:</td><td><div>&lt;type &#x27;mod_wsgi.FileWrapper&#x27;&gt;</div></td></tr><tr><td style="font-weight:bold;vertical-align:top;">wsgi.input</td><td style="vertical-align:top;">:</td><td><div>&lt;mod_wsgi.Input object at 0x7fd3b45bc4f0&gt;</div></td></tr><tr><td style="font-weight:bold;vertical-align:top;">wsgi.multiprocess</td><td style="vertical-align:top;">:</td><td><div>False</div></td></tr><tr><td style="font-weight:bold;vertical-align:top;">wsgi.multithread</td><td style="vertical-align:top;">:</td><td><div>True</div></td></tr><tr><td style="font-weight:bold;vertical-align:top;">wsgi.run_once</td><td style="vertical-align:top;">:</td><td><div>False</div></td></tr><tr><td style="font-weight:bold;vertical-align:top;">wsgi.url_scheme</td><td style="vertical-align:top;">:</td><td><div>https</div></td></tr><tr><td style="font-weight:bold;vertical-align:top;">wsgi.version</td><td style="vertical-align:top;">:</td><td><div><table><tr><td><div>1</div></td></tr><tr><td><div>0</div></td></tr></table></div></td></tr><tr><td style="font-weight:bold;vertical-align:top;">wsgi_errors</td><td style="vertical-align:top;">:</td><td><div>&lt;mod_wsgi.Log object at 0x7fd3b45b6540&gt;</div></td></tr><tr><td style="font-weight:bold;vertical-align:top;">wsgi_file_wrapper</td><td style="vertical-align:top;">:</td><td><div>&lt;type &#x27;mod_wsgi.FileWrapper&#x27;&gt;</div></td></tr><tr><td style="font-weight:bold;vertical-align:top;">wsgi_input</td><td style="vertical-align:top;">:</td><td><div>&lt;mod_wsgi.Input object at 0x7fd3b45bc4f0&gt;</div></td></tr><tr><td style="font-weight:bold;vertical-align:top;">wsgi_multiprocess</td><td style="vertical-align:top;">:</td><td><div>False</div></td></tr><tr><td style="font-weight:bold;vertical-align:top;">wsgi_multithread</td><td style="vertical-align:top;">:</td><td><div>True</div></td></tr><tr><td style="font-weight:bold;vertical-align:top;">wsgi_run_once</td><td style="vertical-align:top;">:</td><td><div>False</div></td></tr><tr><td style="font-weight:bold;vertical-align:top;">wsgi_url_scheme</td><td style="vertical-align:top;">:</td><td><div>https</div></td></tr><tr><td style="font-weight:bold;vertical-align:top;">wsgi_version</td><td style="vertical-align:top;">:</td><td><div><table><tr><td><div>1</div></td></tr><tr><td><div>0</div></td></tr></table></div></td></tr></table></div></td></tr><tr><td style="font-weight:bold;vertical-align:top;">extension</td><td style="vertical-align:top;">:</td><td><div>html</div></td></tr><tr><td style="font-weight:bold;vertical-align:top;">folder</td><td style="vertical-align:top;">:</td><td><div>/home/www-data/web2py/applications/obsas_dev/</div></td></tr><tr><td style="font-weight:bold;vertical-align:top;">function</td><td style="vertical-align:top;">:</td><td><div>depute</div></td></tr><tr><td style="font-weight:bold;vertical-align:top;">global_settings</td><td style="vertical-align:top;">:</td><td><div><table><tr><td style="font-weight:bold;vertical-align:top;">app_folders</td><td style="vertical-align:top;">:</td><td><div>set([&#x27;/home/www-data/web2py/applications/obsas_dev/&#x27;, &#x27;/home/www-data/web2py/applications/welcome/&#x27;, &#x27;/home/www-data/web2py/applications/admin/&#x27;])</div></td></tr><tr><td style="font-weight:bold;vertical-align:top;">applications_parent</td><td style="vertical-align:top;">:</td><td><div>/home/www-data/web2py</div></td></tr><tr><td style="font-weight:bold;vertical-align:top;">db_sessions</td><td style="vertical-align:top;">:</td><td><div>set([])</div></td></tr><tr><td style="font-weight:bold;vertical-align:top;">debugging</td><td style="vertical-align:top;">:</td><td><div>True</div></td></tr><tr><td style="font-weight:bold;vertical-align:top;">gluon_parent</td><td style="vertical-align:top;">:</td><td><div>/home/www-data/web2py</div></td></tr><tr><td style="font-weight:bold;vertical-align:top;">is_jython</td><td style="vertical-align:top;">:</td><td><div>False</div></td></tr><tr><td style="font-weight:bold;vertical-align:top;">is_py2</td><td style="vertical-align:top;">:</td><td><div>True</div></td></tr><tr><td style="font-weight:bold;vertical-align:top;">is_pypy</td><td style="vertical-align:top;">:</td><td><div>False</div></td></tr><tr><td style="font-weight:bold;vertical-align:top;">is_source</td><td style="vertical-align:top;">:</td><td><div>True</div></td></tr><tr><td style="font-weight:bold;vertical-align:top;">local_hosts</td><td style="vertical-align:top;">:</td><td><div><table><tr><td><div>vps433020</div></td></tr><tr><td><div>::ffff:127.0.0.1</div></td></tr><tr><td><div>::1</div></td></tr><tr><td><div>151.80.57.169</div></td></tr><tr><td><div>vps433020.ovh.net</div></td></tr><tr><td><div>127.0.1.1</div></td></tr><tr><td><div>admin.obsas.orvdev.fr</div></td></tr><tr><td><div>127.0.0.1</div></td></tr></table></div></td></tr><tr><td style="font-weight:bold;vertical-align:top;">web2py_version</td><td style="vertical-align:top;">:</td><td><div>2.15.1-stable+timestamp.2017.07.10.21.25.06</div></td></tr></table></div></td></tr><tr><td style="font-weight:bold;vertical-align:top;">is_https</td><td style="vertical-align:top;">:</td><td><div>True</div></td></tr><tr><td style="font-weight:bold;vertical-align:top;">is_local</td><td style="vertical-align:top;">:</td><td><div>False</div></td></tr><tr><td style="font-weight:bold;vertical-align:top;">is_restful</td><td style="vertical-align:top;">:</td><td><div>False</div></td></tr><tr><td style="font-weight:bold;vertical-align:top;">is_scheduler</td><td style="vertical-align:top;">:</td><td><div>False</div></td></tr><tr><td style="font-weight:bold;vertical-align:top;">is_shell</td><td style="vertical-align:top;">:</td><td><div>False</div></td></tr><tr><td style="font-weight:bold;vertical-align:top;">now</td><td style="vertical-align:top;">:</td><td><div>datetime.datetime(2017, 7, 20, 22, 42, 34, 300116)</div></td></tr><tr><td style="font-weight:bold;vertical-align:top;">url</td><td style="vertical-align:top;">:</td><td><div>/obsas_dev/fiches/depute</div></td></tr><tr><td style="font-weight:bold;vertical-align:top;">utcnow</td><td style="vertical-align:top;">:</td><td><div>datetime.datetime(2017, 7, 20, 20, 42, 34, 300146)</div></td></tr><tr><td style="font-weight:bold;vertical-align:top;">wsgi</td><td style="vertical-align:top;">:</td><td><div>&lt;gluon.main.LazyWSGI object at 0x7fd3b4635f10&gt;</div></td></tr></table></div>'
tRp60
sS'frames'
p61
(lp62
(dp63
S'file'
p64
S'/home/www-data/web2py/gluon/restricted.py'
p65
sS'dump'
p66
(dp67
S'environment'
p68
S"{'A': <class 'gluon.html.A'>, 'ANY_OF': <class 'gluon.validators.ANY_OF'>, 'ASSIGNJS': <function ASSIGNJS>, 'AppCache': <class __restricted__.AppCache>, 'AppConfig': <function AppConfig>, 'Auth': <class 'gluon.tools.Auth'>, 'B': <class 'gluon.html.B'>, 'BEAUTIFY': <class 'gluon.html.BEAUTIFY'>, 'BODY': <class 'gluon.html.BODY'>, 'BR': <class 'gluon.html.BR'>, ...}"
p69
sS'ccode'
p70
S'<code object <module> at 0x7fd3b47a5030, file "/...cations/obsas_dev/controllers/fiches.py", line 3>'
p71
ssS'lnum'
p72
I219
sS'lines'
p73
(dp74
I214
S'    if environment is None:'
p75
sI215
S'        environment = {}'
p76
sI216
S"    environment['__file__'] = layer"
p77
sI217
S"    environment['__name__'] = '__restricted__'"
p78
sI218
S'    try:'
p79
sI219
S'        exec(ccode, environment)'
p80
sI220
S'    except HTTP:'
p81
sI221
S'        raise'
p82
sI222
S'    except RestrictedError:'
p83
sI223
S'        # do not encapsulate (obfuscate) the original RestrictedError'
p84
ssS'call'
p85
S'(ccode=<code object <module> at 0x7fd3b47a5030, file "/...cations/obsas_dev/controllers/fiches.py", line 3>, environment={\'A\': <class \'gluon.html.A\'>, \'ANY_OF\': <class \'gluon.validators.ANY_OF\'>, \'ASSIGNJS\': <function ASSIGNJS>, \'AppCache\': <class __restricted__.AppCache>, \'AppConfig\': <function AppConfig>, \'Auth\': <class \'gluon.tools.Auth\'>, \'B\': <class \'gluon.html.B\'>, \'BEAUTIFY\': <class \'gluon.html.BEAUTIFY\'>, \'BODY\': <class \'gluon.html.BODY\'>, \'BR\': <class \'gluon.html.BR\'>, ...}, layer=\'/home/www-data/web2py/applications/obsas_dev/controllers/fiches.py\')'
p86
sS'func'
p87
S'restricted'
p88
sa(dp89
g64
S'/home/www-data/web2py/applications/obsas_dev/controllers/fiches.py'
p90
sg66
(dp91
sg72
I65
sg73
(dp92
I54
S'        elif s[\'desc\'][:9] =="la motion":'
p93
sI55
S"            s['typedetail'] = 'motion'"
p94
sI56
S'        elif s[\'desc\'][:27] =="l\'ensemble du projet de loi":'
p95
sI57
S"            s['typedetail'] = 'loi'"
p96
sI58
S'        elif s[\'desc\'][:10] =="l\'article":'
p97
sI59
S"            s['typedetail'] = 'article'"
p98
sI60
S'        else:'
p99
sI61
S"            s['typedetail'] = 'autre'"
p100
sI62
S''
sI63
S'    return dict(stats=stats,scrutins=scrutins_dossiers,positions=positions,dossiers=dossiers,**dep)'
p101
ssg85
S'()'
p102
sg87
S'<module>'
p103
sa(dp104
g64
S'/home/www-data/web2py/gluon/globals.py'
p105
sg66
(dp106
S'self'
p107
S'undefined'
p108
sS'f'
S'<function depute>'
p109
ssg72
I409
sg73
(dp110
I404
S"        self.flash = ''            # used by the default view layout"
p111
sI405
S'        self.meta = Storage()      # used by web2py_ajax.html'
p112
sI406
S'        self.menu = []             # used by the default view layout'
p113
sI407
S'        self.files = []            # used by web2py_ajax.html'
p114
sI408
S'        self._vars = None'
p115
sI409
S'        self._caller = lambda f: f()'
p116
sI410
S'        self._view_environment = None'
p117
sI411
S'        self._custom_commit = None'
p118
sI412
S'        self._custom_rollback = None'
p119
sI413
S"        self.generic_patterns = ['*']"
p120
ssg85
S'(f=<function depute>)'
p121
sg87
S'<lambda>'
p122
sa(dp123
g64
S'/home/www-data/web2py/applications/obsas_dev/controllers/fiches.py'
p124
sg66
(dp125
S's'
S'{u\'_id\': ObjectId(\'596fa2a58e5c9b1d2a665e99\'), \'flag\': False, u\'scrutin_date\': u\'18/07/2017\', u\'scrutin_desc\': u"la motion de renvoi en commission, d\\xe9pos\\xe...omptes de l\'ann\\xe9e 2016 (premi\\xe8re lecture).", u\'scrutin_dossier\': u\'S-LEGANR5L15DLreglement_comptes_2016\', u\'scrutin_dossierLibelle\': u\'Budget : r\\xe8glement des comptes 2016\', u\'scrutin_fulldesc\': u"Scrutin n\\xb0 50 du 18/07/2017 : la motion de ...omptes de l\'ann\\xe9e 2016 (premi\\xe8re lecture).", u\'scrutin_id\': u\'15_50\', u\'scrutin_num\': 50, u\'scrutin_ok\': True, ...}'
p126
ssg72
I52
sg73
(dp127
I47
S"        s['flag'] = diss"
p128
sI48
S'        scrutins_dossiers[dosid].append(s)'
p129
sI49
S"        stats['disspct'] =  int(100*float(stats['diss'])/stats['exprime'])"
p130
sI50
S"        stats['votefipct'] =  int(100*float(stats['votefi'])/stats['exprime'])"
p131
sI51
S"        stats['voteempct'] =  int(100*float(stats['voteem'])/stats['exprime'])"
p132
sI52
S'        if s[\'desc\'][:12]=="l\'amendement":'
p133
sI53
S"            s['typedetail'] = 'amendement'"
p134
sI54
S'        elif s[\'desc\'][:9] =="la motion":'
p135
sI55
S"            s['typedetail'] = 'motion'"
p136
sI56
S'        elif s[\'desc\'][:27] =="l\'ensemble du projet de loi":'
p137
ssg85
S'()'
p138
sg87
S'depute'
p139
sasS'pyver'
p140
S'Python 2.7.12: /home/www-data/web2py/applications/obsas_dev/.pyenv/bin/python (prefix: /home/www-data/web2py/applications/obsas_dev/.pyenv)'
p141
sS'session'
p142
g59
(S's\x1a\x00\x00\x00<div><table></table></div>'
tRp143
sS'etype'
p144
S"<type 'exceptions.KeyError'>"
p145
sS'date'
p146
S'Thu Jul 20 22:42:34 2017'
p147
sS'response'
p148
g59
(S's6>\x00\x00<div><table><tr><td style="font-weight:bold;vertical-align:top;">body</td><td style="vertical-align:top;">:</td><td><div>&lt;cStringIO.StringO object at 0x7fd3b42d6960&gt;</div></td></tr><tr><td style="font-weight:bold;vertical-align:top;">cookies</td><td style="vertical-align:top;">:</td><td><div><table><tr><td style="font-weight:bold;vertical-align:top;">session_id_obsas_dev</td><td style="vertical-align:top;">:</td><td><div>81.248.7.56-2b76ade7-c81d-49da-af0c-495584814724<table><tr><td style="font-weight:bold;vertical-align:top;">comment</td><td style="vertical-align:top;">:</td><td><div></div></td></tr><tr><td style="font-weight:bold;vertical-align:top;">domain</td><td style="vertical-align:top;">:</td><td><div></div></td></tr><tr><td style="font-weight:bold;vertical-align:top;">expires</td><td style="vertical-align:top;">:</td><td><div></div></td></tr><tr><td style="font-weight:bold;vertical-align:top;">httponly</td><td style="vertical-align:top;">:</td><td><div></div></td></tr><tr><td style="font-weight:bold;vertical-align:top;">max-age</td><td style="vertical-align:top;">:</td><td><div></div></td></tr><tr><td style="font-weight:bold;vertical-align:top;">path</td><td style="vertical-align:top;">:</td><td><div>/</div></td></tr><tr><td style="font-weight:bold;vertical-align:top;">secure</td><td style="vertical-align:top;">:</td><td><div></div></td></tr><tr><td style="font-weight:bold;vertical-align:top;">version</td><td style="vertical-align:top;">:</td><td><div></div></td></tr></table></div></td></tr></table></div></td></tr><tr><td style="font-weight:bold;vertical-align:top;">delimiters</td><td style="vertical-align:top;">:</td><td><div><table><tr><td><div>{{</div></td></tr><tr><td><div>}}</div></td></tr></table></div></td></tr><tr><td style="font-weight:bold;vertical-align:top;">files</td><td style="vertical-align:top;">:</td><td><div><table></table></div></td></tr><tr><td style="font-weight:bold;vertical-align:top;">flash</td><td style="vertical-align:top;">:</td><td><div></div></td></tr><tr><td style="font-weight:bold;vertical-align:top;">form_label_separator</td><td style="vertical-align:top;">:</td><td><div></div></td></tr><tr><td style="font-weight:bold;vertical-align:top;">formstyle</td><td style="vertical-align:top;">:</td><td><div>bootstrap3_inline</div></td></tr><tr><td style="font-weight:bold;vertical-align:top;">generic_patterns</td><td style="vertical-align:top;">:</td><td><div><table></table></div></td></tr><tr><td style="font-weight:bold;vertical-align:top;">google_analytics_id</td><td style="vertical-align:top;">:</td><td><div>None</div></td></tr><tr><td style="font-weight:bold;vertical-align:top;">headers</td><td style="vertical-align:top;">:</td><td><div><table><tr><td style="font-weight:bold;vertical-align:top;">X-Powered-By</td><td style="vertical-align:top;">:</td><td><div>web2py</div></td></tr></table></div></td></tr><tr><td style="font-weight:bold;vertical-align:top;">logo</td><td style="vertical-align:top;">:</td><td><div><a class="navbar-brand" href="http://www.web2py.com/" id="web2py-logo"><b>web<span>2</span>py</b>&trade;&nbsp;</a></div></td></tr><tr><td style="font-weight:bold;vertical-align:top;">menu</td><td style="vertical-align:top;">:</td><td><div><table><tr><td><div><table><tr><td><div>Accueil</div></td></tr><tr><td><div>False</div></td></tr><tr><td><div>/obsas_dev</div></td></tr><tr><td><div><table></table></div></td></tr></table></div></td></tr><tr><td><div><table><tr><td><div>Mes sites</div></td></tr><tr><td><div>False</div></td></tr><tr><td><div>/admin/site</div></td></tr></table></div></td></tr><tr><td><div><table><tr><td><div>Cette Appli</div></td></tr><tr><td><div>False</div></td></tr><tr><td><div>#</div></td></tr><tr><td><div><table><tr><td><div><table><tr><td><div>Design</div></td></tr><tr><td><div>False</div></td></tr><tr><td><div>/admin/design/obsas_dev</div></td></tr></table></div></td></tr><tr><td><div><li class="divider"></li></div></td></tr><tr><td><div><table><tr><td><div>Contr\xc3\xb4leur</div></td></tr><tr><td><div>False</div></td></tr><tr><td><div>/admin/edit/obsas_dev/controllers/fiches.py</div></td></tr></table></div></td></tr><tr><td><div><table><tr><td><div>Pr\xc3\xa9sentation</div></td></tr><tr><td><div>False</div></td></tr><tr><td><div>/admin/edit/obsas_dev/views/fiches/depute.html</div></td></tr></table></div></td></tr><tr><td><div><table><tr><td><div>Mod\xc3\xa8le BD</div></td></tr><tr><td><div>False</div></td></tr><tr><td><div>/admin/edit/obsas_dev/models/db.py</div></td></tr></table></div></td></tr><tr><td><div><table><tr><td><div>Menu mod\xc3\xa8le</div></td></tr><tr><td><div>False</div></td></tr><tr><td><div>/admin/edit/obsas_dev/models/menu.py</div></td></tr></table></div></td></tr><tr><td><div><table><tr><td><div>Config.ini</div></td></tr><tr><td><div>False</div></td></tr><tr><td><div>/admin/edit/obsas_dev/private/appconfig.ini</div></td></tr></table></div></td></tr><tr><td><div><table><tr><td><div>Mise en page</div></td></tr><tr><td><div>False</div></td></tr><tr><td><div>/admin/edit/obsas_dev/views/layout.html</div></td></tr></table></div></td></tr><tr><td><div><table><tr><td><div>Feuille de style</div></td></tr><tr><td><div>False</div></td></tr><tr><td><div>/admin/edit/obsas_dev/static/css/web2py-bootstrap3.css</div></td></tr></table></div></td></tr><tr><td><div><table><tr><td><div>base de donn\xc3\xa9es</div></td></tr><tr><td><div>False</div></td></tr><tr><td><div>/obsas_dev/appadmin</div></td></tr></table></div></td></tr><tr><td><div><table><tr><td><div>Erreurs</div></td></tr><tr><td><div>False</div></td></tr><tr><td><div>/admin/errors/obsas_dev</div></td></tr></table></div></td></tr><tr><td><div><table><tr><td><div>\xc3\x80 propos</div></td></tr><tr><td><div>False</div></td></tr><tr><td><div>/admin/about/obsas_dev</div></td></tr></table></div></td></tr></table></div></td></tr></table></div></td></tr><tr><td><div><table><tr><td><div>web2py.com</div></td></tr><tr><td><div>False</div></td></tr><tr><td><div>#</div></td></tr><tr><td><div><table><tr><td><div><table><tr><td><div>T\xc3\xa9l\xc3\xa9chargement</div></td></tr><tr><td><div>False</div></td></tr><tr><td><div>http://www.web2py.com/examples/default/download</div></td></tr></table></div></td></tr><tr><td><div><table><tr><td><div>Soutien</div></td></tr><tr><td><div>False</div></td></tr><tr><td><div>http://www.web2py.com/examples/default/support</div></td></tr></table></div></td></tr><tr><td><div><table><tr><td><div>D\xc3\xa9mo</div></td></tr><tr><td><div>False</div></td></tr><tr><td><div>http://web2py.com/demo_admin</div></td></tr></table></div></td></tr><tr><td><div><table><tr><td><div>Exemples Rapides</div></td></tr><tr><td><div>False</div></td></tr><tr><td><div>http://web2py.com/examples/default/examples</div></td></tr></table></div></td></tr><tr><td><div><table><tr><td><div>FAQ</div></td></tr><tr><td><div>False</div></td></tr><tr><td><div>http://web2py.com/AlterEgo</div></td></tr></table></div></td></tr><tr><td><div><table><tr><td><div>Vid\xc3\xa9os</div></td></tr><tr><td><div>False</div></td></tr><tr><td><div>http://www.web2py.com/examples/default/videos/</div></td></tr></table></div></td></tr><tr><td><div><table><tr><td><div>Applications gratuites</div></td></tr><tr><td><div>False</div></td></tr><tr><td><div>http://web2py.com/appliances</div></td></tr></table></div></td></tr><tr><td><div><table><tr><td><div>Plugiciels</div></td></tr><tr><td><div>False</div></td></tr><tr><td><div>http://web2py.com/plugins</div></td></tr></table></div></td></tr><tr><td><div><table><tr><td><div>Recettes</div></td></tr><tr><td><div>False</div></td></tr><tr><td><div>http://web2pyslices.com/</div></td></tr></table></div></td></tr></table></div></td></tr></table></div></td></tr><tr><td><div><table><tr><td><div>Documentation</div></td></tr><tr><td><div>False</div></td></tr><tr><td><div>#</div></td></tr><tr><td><div><table><tr><td><div><table><tr><td><div>Online book</div></td></tr><tr><td><div>False</div></td></tr><tr><td><div>http://www.web2py.com/book</div></td></tr></table></div></td></tr><tr><td><div><li class="divider"></li></div></td></tr><tr><td><div><table><tr><td><div>Pr\xc3\xa9face</div></td></tr><tr><td><div>False</div></td></tr><tr><td><div>http://www.web2py.com/book/default/chapter/00</div></td></tr></table></div></td></tr><tr><td><div><table><tr><td><div>Pr\xc3\xa9sentation</div></td></tr><tr><td><div>False</div></td></tr><tr><td><div>http://www.web2py.com/book/default/chapter/01</div></td></tr></table></div></td></tr><tr><td><div><table><tr><td><div>Python</div></td></tr><tr><td><div>False</div></td></tr><tr><td><div>http://www.web2py.com/book/default/chapter/02</div></td></tr></table></div></td></tr><tr><td><div><table><tr><td><div>Pr\xc3\xa9sentation</div></td></tr><tr><td><div>False</div></td></tr><tr><td><div>http://www.web2py.com/book/default/chapter/03</div></td></tr></table></div></td></tr><tr><td><div><table><tr><td><div>Le noyau</div></td></tr><tr><td><div>False</div></td></tr><tr><td><div>http://www.web2py.com/book/default/chapter/04</div></td></tr></table></div></td></tr><tr><td><div><table><tr><td><div>Les Vues</div></td></tr><tr><td><div>False</div></td></tr><tr><td><div>http://www.web2py.com/book/default/chapter/05</div></td></tr></table></div></td></tr><tr><td><div><table><tr><td><div>base de donn\xc3\xa9es</div></td></tr><tr><td><div>False</div></td></tr><tr><td><div>http://www.web2py.com/book/default/chapter/06</div></td></tr></table></div></td></tr><tr><td><div><table><tr><td><div>Formulaires et Validateurs</div></td></tr><tr><td><div>False</div></td></tr><tr><td><div>http://www.web2py.com/book/default/chapter/07</div></td></tr></table></div></td></tr><tr><td><div><table><tr><td><div>Courriel et texto</div></td></tr><tr><td><div>False</div></td></tr><tr><td><div>http://www.web2py.com/book/default/chapter/08</div></td></tr></table></div></td></tr><tr><td><div><table><tr><td><div>Contr\xc3\xb4le d\'acc\xc3\xa8s</div></td></tr><tr><td><div>False</div></td></tr><tr><td><div>http://www.web2py.com/book/default/chapter/09</div></td></tr></table></div></td></tr><tr><td><div><table><tr><td><div>Services</div></td></tr><tr><td><div>False</div></td></tr><tr><td><div>http://www.web2py.com/book/default/chapter/10</div></td></tr></table></div></td></tr><tr><td><div><table><tr><td><div>Recettes Ajax</div></td></tr><tr><td><div>False</div></td></tr><tr><td><div>http://www.web2py.com/book/default/chapter/11</div></td></tr></table></div></td></tr><tr><td><div><table><tr><td><div>Composants et Plugiciels</div></td></tr><tr><td><div>False</div></td></tr><tr><td><div>http://www.web2py.com/book/default/chapter/12</div></td></tr></table></div></td></tr><tr><td><div><table><tr><td><div>Recettes de d\xc3\xa9ploiement</div></td></tr><tr><td><div>False</div></td></tr><tr><td><div>http://www.web2py.com/book/default/chapter/13</div></td></tr></table></div></td></tr><tr><td><div><table><tr><td><div>Autres recettes</div></td></tr><tr><td><div>False</div></td></tr><tr><td><div>http://www.web2py.com/book/default/chapter/14</div></td></tr></table></div></td></tr><tr><td><div><table><tr><td><div>Aider web2py</div></td></tr><tr><td><div>False</div></td></tr><tr><td><div>http://www.web2py.com/book/default/chapter/15</div></td></tr></table></div></td></tr><tr><td><div><table><tr><td><div>Buy web2py\'s book</div></td></tr><tr><td><div>False</div></td></tr><tr><td><div>http://stores.lulu.com/web2py</div></td></tr></table></div></td></tr></table></div></td></tr></table></div></td></tr><tr><td><div><table><tr><td><div>Communaut\xc3\xa9</div></td></tr><tr><td><div>False</div></td></tr><tr><td><div>None</div></td></tr><tr><td><div><table><tr><td><div><table><tr><td><div>Groupes</div></td></tr><tr><td><div>False</div></td></tr><tr><td><div>http://www.web2py.com/examples/default/usergroups</div></td></tr></table></div></td></tr><tr><td><div><table><tr><td><div>Twitter</div></td></tr><tr><td><div>False</div></td></tr><tr><td><div>http://twitter.com/web2py</div></td></tr></table></div></td></tr><tr><td><div><table><tr><td><div>Clavardage en direct</div></td></tr><tr><td><div>False</div></td></tr><tr><td><div>http://webchat.freenode.net/?channels=web2py</div></td></tr></table></div></td></tr></table></div></td></tr></table></div></td></tr></table></div></td></tr><tr><td style="font-weight:bold;vertical-align:top;">meta</td><td style="vertical-align:top;">:</td><td><div><table><tr><td style="font-weight:bold;vertical-align:top;">author</td><td style="vertical-align:top;">:</td><td><div>Your Name &lt;you@example.com&gt;</div></td></tr><tr><td style="font-weight:bold;vertical-align:top;">description</td><td style="vertical-align:top;">:</td><td><div>a cool new app</div></td></tr><tr><td style="font-weight:bold;vertical-align:top;">generator</td><td style="vertical-align:top;">:</td><td><div>Web2py Web Framework</div></td></tr><tr><td style="font-weight:bold;vertical-align:top;">keywords</td><td style="vertical-align:top;">:</td><td><div><table><tr><td><div>web2py</div></td></tr><tr><td><div>python</div></td></tr><tr><td><div>framework</div></td></tr></table></div></td></tr></table></div></td></tr><tr><td style="font-weight:bold;vertical-align:top;">models_to_run</td><td style="vertical-align:top;">:</td><td><div><table><tr><td><div>^\\w+\\.py$</div></td></tr><tr><td><div>^fiches/\\w+\\.py$</div></td></tr><tr><td><div>^fiches/depute/\\w+\\.py$</div></td></tr></table></div></td></tr><tr><td style="font-weight:bold;vertical-align:top;">postprocessing</td><td style="vertical-align:top;">:</td><td><div><table></table></div></td></tr><tr><td style="font-weight:bold;vertical-align:top;">session_client</td><td style="vertical-align:top;">:</td><td><div>81.248.7.56</div></td></tr><tr><td style="font-weight:bold;vertical-align:top;">session_cookie_compression_level</td><td style="vertical-align:top;">:</td><td><div>None</div></td></tr><tr><td style="font-weight:bold;vertical-align:top;">session_cookie_expires</td><td style="vertical-align:top;">:</td><td><div>None</div></td></tr><tr><td style="font-weight:bold;vertical-align:top;">session_data_name</td><td style="vertical-align:top;">:</td><td><div>session_data_obsas_dev</div></td></tr><tr><td style="font-weight:bold;vertical-align:top;">session_file</td><td style="vertical-align:top;">:</td><td><div>None</div></td></tr><tr><td style="font-weight:bold;vertical-align:top;">session_filename</td><td style="vertical-align:top;">:</td><td><div>/home/www-data/web2py/applications/obsas_dev/sessions/81.248.7.56-2b76ade7-c81d-49da-af0c-495584814724</div></td></tr><tr><td style="font-weight:bold;vertical-align:top;">session_hash</td><td style="vertical-align:top;">:</td><td><div>c0762cbf4baf7f9af97c051e7fcb8083</div></td></tr><tr><td style="font-weight:bold;vertical-align:top;">session_id</td><td style="vertical-align:top;">:</td><td><div>81.248.7.56-2b76ade7-c81d-49da-af0c-495584814724</div></td></tr><tr><td style="font-weight:bold;vertical-align:top;">session_id_name</td><td style="vertical-align:top;">:</td><td><div>session_id_obsas_dev</div></td></tr><tr><td style="font-weight:bold;vertical-align:top;">session_masterapp</td><td style="vertical-align:top;">:</td><td><div>obsas_dev</div></td></tr><tr><td style="font-weight:bold;vertical-align:top;">session_new</td><td style="vertical-align:top;">:</td><td><div>True</div></td></tr><tr><td style="font-weight:bold;vertical-align:top;">session_storage_type</td><td style="vertical-align:top;">:</td><td><div>file</div></td></tr><tr><td style="font-weight:bold;vertical-align:top;">status</td><td style="vertical-align:top;">:</td><td><div>200</div></td></tr><tr><td style="font-weight:bold;vertical-align:top;">subtitle</td><td style="vertical-align:top;">:</td><td><div></div></td></tr><tr><td style="font-weight:bold;vertical-align:top;">title</td><td style="vertical-align:top;">:</td><td><div>Obsas Dev</div></td></tr><tr><td style="font-weight:bold;vertical-align:top;">view</td><td style="vertical-align:top;">:</td><td><div>fiches/depute.html</div></td></tr></table></div>'
tRp149
sS'locals'
p150
(dp151
S'votes'
p152
S'<pymongo.cursor.Cursor object>'
p153
sS'diss'
p154
S'False'
p155
sS'OrderedDict'
p156
S"<class 'collections.OrderedDict'>"
p157
sS'scrutins'
p158
S'[{u\'_id\': ObjectId(\'596fa2a58e5c9b1d2a665e99\'), \'flag\': False, u\'scrutin_date\': u\'18/07/2017\', u\'scrutin_desc\': u"la motion de renvoi en commission, d\\xe9pos\\xe...omptes de l\'ann\\xe9e 2016 (premi\\xe8re lecture).", u\'scrutin_dossier\': u\'S-LEGANR5L15DLreglement_comptes_2016\', u\'scrutin_dossierLibelle\': u\'Budget : r\\xe8glement des comptes 2016\', u\'scrutin_fulldesc\': u"Scrutin n\\xb0 50 du 18/07/2017 : la motion de ...omptes de l\'ann\\xe9e 2016 (premi\\xe8re lecture).", u\'scrutin_id\': u\'15_50\', u\'scrutin_num\': 50, u\'scrutin_ok\': True, ...}, {u\'_id\': ObjectId(\'596dca4b8e5c9b1aa60d49fd\'), u\'scrutin_date\': u\'13/07/2017\', u\'scrutin_desc\': u"l\'amendement n\\xb0 234 de M. Quatennens et les...cement du dialogue social (premi\\xe8re lecture).", u\'scrutin_dossier\': u\'S-LEGANR5L15DLhabilitation_ordonnances_dialogue_social\', u\'scrutin_dossierLibelle\': u\'Travail : mesures pour le renforcement du dialogue social\', u\'scrutin_fulldesc\': u"Scrutin n\\xb0 39 du 13/07/2017 : l\'amendement ...cement du dialogue social (premi\\xe8re lecture).", u\'scrutin_id\': u\'15_39\', u\'scrutin_num\': 39, u\'scrutin_ok\': True, u\'scrutin_type\': u\'SOR\', ...}, {u\'_id\': ObjectId(\'596bc96d8e5c9b497eb9b076\'), u\'scrutin_date\': u\'13/07/2017\', u\'scrutin_desc\': u"l\'article 4 du projet de loi d\'habilitation \\x...cement du dialogue social (premi\\xe8re lecture).", u\'scrutin_dossier\': u\'S-LEGANR5L15DLhabilitation_ordonnances_dialogue_social\', u\'scrutin_dossierLibelle\': u\'Travail : mesures pour le renforcement du dialogue social\', u\'scrutin_fulldesc\': u"Scrutin n\\xb0 38 du 13/07/2017 : l\'article 4 d...cement du dialogue social (premi\\xe8re lecture).", u\'scrutin_id\': u\'15_38\', u\'scrutin_num\': 38, u\'scrutin_ok\': True, u\'scrutin_type\': u\'SOR\', ...}, {u\'_id\': ObjectId(\'596bc96d8e5c9b497eb9b05a\'), u\'scrutin_date\': u\'12/07/2017\', u\'scrutin_desc\': u"l\'amendement n\\xb0 155 de M. Lachaud et les am...cement du dialogue social (premi\\xe8re lecture).", u\'scrutin_dossier\': u\'S-LEGANR5L15DLhabilitation_ordonnances_dialogue_social\', u\'scrutin_dossierLibelle\': u\'Travail : mesures pour le renforcement du dialogue social\', u\'scrutin_fulldesc\': u"Scrutin n\\xb0 27 du 12/07/2017 : l\'amendement ...cement du dialogue social (premi\\xe8re lecture).", u\'scrutin_id\': u\'15_27\', u\'scrutin_num\': 27, u\'scrutin_ok\': True, u\'scrutin_type\': u\'SOR\', ...}, {u\'_id\': ObjectId(\'596bc96d8e5c9b497eb9b059\'), u\'scrutin_date\': u\'12/07/2017\', u\'scrutin_desc\': u"l\'amendement n\\xb0 154 de M. Lachaud et les am...cement du dialogue social (premi\\xe8re lecture).", u\'scrutin_dossier\': u\'S-LEGANR5L15DLhabilitation_ordonnances_dialogue_social\', u\'scrutin_dossierLibelle\': u\'Travail : mesures pour le renforcement du dialogue social\', u\'scrutin_fulldesc\': u"Scrutin n\\xb0 26 du 12/07/2017 : l\'amendement ...cement du dialogue social (premi\\xe8re lecture).", u\'scrutin_id\': u\'15_26\', u\'scrutin_num\': 26, u\'scrutin_ok\': True, u\'scrutin_type\': u\'SOR\', ...}, {u\'_id\': ObjectId(\'596bc96d8e5c9b497eb9b058\'), u\'scrutin_date\': u\'11/07/2017\', u\'scrutin_desc\': u"l\'amendement n\\xb0 454 de M. Vallaud apr\\xe8s ...cement du dialogue social (premi\\xe8re lecture).", u\'scrutin_dossier\': u\'S-LEGANR5L15DLhabilitation_ordonnances_dialogue_social\', u\'scrutin_dossierLibelle\': u\'Travail : mesures pour le renforcement du dialogue social\', u\'scrutin_fulldesc\': u"Scrutin n\\xb0 25 du 11/07/2017 : l\'amendement ...cement du dialogue social (premi\\xe8re lecture).", u\'scrutin_id\': u\'15_25\', u\'scrutin_num\': 25, u\'scrutin_ok\': True, u\'scrutin_type\': u\'SOR\', ...}, {u\'_id\': ObjectId(\'596bc96d8e5c9b497eb9b057\'), u\'scrutin_date\': u\'11/07/2017\', u\'scrutin_desc\': u"l\'amendement n\\xb0 451 de M. Vallaud apr\\xe8s ...cement du dialogue social (premi\\xe8re lecture).", u\'scrutin_dossier\': u\'S-LEGANR5L15DLhabilitation_ordonnances_dialogue_social\', u\'scrutin_dossierLibelle\': u\'Travail : mesures pour le renforcement du dialogue social\', u\'scrutin_fulldesc\': u"Scrutin n\\xb0 24 du 11/07/2017 : l\'amendement ...cement du dialogue social (premi\\xe8re lecture).", u\'scrutin_id\': u\'15_24\', u\'scrutin_num\': 24, u\'scrutin_ok\': True, u\'scrutin_type\': u\'SOR\', ...}, {u\'_id\': ObjectId(\'596bc96d8e5c9b497eb9b07e\'), u\'scrutin_date\': u\'11/07/2017\', u\'scrutin_desc\': u"l\'article 2 du projet de loi d\'habilitation \\x...cement du dialogue social (premi\\xe8re lecture).", u\'scrutin_dossier\': u\'S-LEGANR5L15DLhabilitation_ordonnances_dialogue_social\', u\'scrutin_dossierLibelle\': u\'Travail : mesures pour le renforcement du dialogue social\', u\'scrutin_fulldesc\': u"Scrutin n\\xb0 23 du 11/07/2017 : l\'article 2 d...cement du dialogue social (premi\\xe8re lecture).", u\'scrutin_id\': u\'15_23\', u\'scrutin_num\': 23, u\'scrutin_ok\': True, u\'scrutin_type\': u\'SOR\', ...}, {u\'_id\': ObjectId(\'596bc96d8e5c9b497eb9b078\'), u\'scrutin_date\': u\'11/07/2017\', u\'scrutin_desc\': u"l\'amendement n\\xb0 163 de M. Prudhomme \\xe0 l\'...cement du dialogue social (premi\\xe8re lecture).", u\'scrutin_dossier\': u\'S-LEGANR5L15DLhabilitation_ordonnances_dialogue_social\', u\'scrutin_dossierLibelle\': u\'Travail : mesures pour le renforcement du dialogue social\', u\'scrutin_fulldesc\': u"Scrutin n\\xb0 22 du 11/07/2017 : l\'amendement ...cement du dialogue social (premi\\xe8re lecture).", u\'scrutin_id\': u\'15_22\', u\'scrutin_num\': 22, u\'scrutin_ok\': True, u\'scrutin_type\': u\'SOR\', ...}, {u\'_id\': ObjectId(\'596bc96d8e5c9b497eb9b05c\'), u\'scrutin_date\': u\'11/07/2017\', u\'scrutin_desc\': u"l\'amendement n\\xb0 162 de M. Prudhomme et l\'am...cement du dialogue social (premi\\xe8re lecture).", u\'scrutin_dossier\': u\'S-LEGANR5L15DLhabilitation_ordonnances_dialogue_social\', u\'scrutin_dossierLibelle\': u\'Travail : mesures pour le renforcement du dialogue social\', u\'scrutin_fulldesc\': u"Scrutin n\\xb0 21 du 11/07/2017 : l\'amendement ...cement du dialogue social (premi\\xe8re lecture).", u\'scrutin_id\': u\'15_21\', u\'scrutin_num\': 21, u\'scrutin_ok\': True, u\'scrutin_type\': u\'SOR\', ...}, {u\'_id\': ObjectId(\'596bc96d8e5c9b497eb9b05b\'), u\'scrutin_date\': u\'11/07/2017\', u\'scrutin_desc\': u"l\'amendement n\\xb0 112 de M. Quatennens \\xe0 l...cement du dialogue social (premi\\xe8re lecture).", u\'scrutin_dossier\': u\'S-LEGANR5L15DLhabilitation_ordonnances_dialogue_social\', u\'scrutin_dossierLibelle\': u\'Travail : mesures pour le renforcement du dialogue social\', u\'scrutin_fulldesc\': u"Scrutin n\\xb0 20 du 11/07/2017 : l\'amendement ...cement du dialogue social (premi\\xe8re lecture).", u\'scrutin_id\': u\'15_20\', u\'scrutin_num\': 20, u\'scrutin_ok\': True, u\'scrutin_type\': u\'SOR\', ...}, {u\'_id\': ObjectId(\'596bc96d8e5c9b497eb9b07b\'), u\'scrutin_date\': u\'11/07/2017\', u\'scrutin_desc\': u"l\'amendement n\\xb0 179 de M. Prudhomme et l\'am...cement du dialogue social (premi\\xe8re lecture).", u\'scrutin_dossier\': u\'S-LEGANR5L15DLhabilitation_ordonnances_dialogue_social\', u\'scrutin_dossierLibelle\': u\'Travail : mesures pour le renforcement du dialogue social\', u\'scrutin_fulldesc\': u"Scrutin n\\xb0 19 du 11/07/2017 : l\'amendement ...cement du dialogue social (premi\\xe8re lecture).", u\'scrutin_id\': u\'15_19\', u\'scrutin_num\': 19, u\'scrutin_ok\': True, u\'scrutin_type\': u\'SOR\', ...}, {u\'_id\': ObjectId(\'596bc96d8e5c9b497eb9b07c\'), u\'scrutin_date\': u\'11/07/2017\', u\'scrutin_desc\': u"l\'amendement n\\xb0 369 de M. Dharr\\xe9ville \\x...cement du dialogue social (premi\\xe8re lecture).", u\'scrutin_dossier\': u\'S-LEGANR5L15DLhabilitation_ordonnances_dialogue_social\', u\'scrutin_dossierLibelle\': u\'Travail : mesures pour le renforcement du dialogue social\', u\'scrutin_fulldesc\': u"Scrutin n\\xb0 18 du 11/07/2017 : l\'amendement ...cement du dialogue social (premi\\xe8re lecture).", u\'scrutin_id\': u\'15_18\', u\'scrutin_num\': 18, u\'scrutin_ok\': True, u\'scrutin_type\': u\'SOR\', ...}, {u\'_id\': ObjectId(\'596bc96d8e5c9b497eb9b079\'), u\'scrutin_date\': u\'11/07/2017\', u\'scrutin_desc\': u"l\'amendement n\\xb0 448 de M. Vallaud \\xe0 l\'ar...cement du dialogue social (premi\\xe8re lecture).", u\'scrutin_dossier\': u\'S-LEGANR5L15DLhabilitation_ordonnances_dialogue_social\', u\'scrutin_dossierLibelle\': u\'Travail : mesures pour le renforcement du dialogue social\', u\'scrutin_fulldesc\': u"Scrutin n\\xb0 17 du 11/07/2017 : l\'amendement ...cement du dialogue social (premi\\xe8re lecture).", u\'scrutin_id\': u\'15_17\', u\'scrutin_num\': 17, u\'scrutin_ok\': True, u\'scrutin_type\': u\'SOR\', ...}, {u\'_id\': ObjectId(\'596bc96d8e5c9b497eb9b07a\'), u\'scrutin_date\': u\'11/07/2017\', u\'scrutin_desc\': u"l\'amendement n\\xb0 463 de M. Vallaud \\xe0 l\'ar...cement du dialogue social (premi\\xe8re lecture).", u\'scrutin_dossier\': u\'S-LEGANR5L15DLhabilitation_ordonnances_dialogue_social\', u\'scrutin_dossierLibelle\': u\'Travail : mesures pour le renforcement du dialogue social\', u\'scrutin_fulldesc\': u"Scrutin n\\xb0 16 du 11/07/2017 : l\'amendement ...cement du dialogue social (premi\\xe8re lecture).", u\'scrutin_id\': u\'15_16\', u\'scrutin_num\': 16, u\'scrutin_ok\': True, u\'scrutin_type\': u\'SOR\', ...}, {u\'_id\': ObjectId(\'596bc96d8e5c9b497eb9b077\'), u\'scrutin_date\': u\'11/07/2017\', u\'scrutin_desc\': u"l\'amendement n\\xb0 128 de M. Prud\'homme et les...cement du dialogue social (premi\\xe8re lecture).", u\'scrutin_dossier\': u\'S-LEGANR5L15DLhabilitation_ordonnances_dialogue_social\', u\'scrutin_dossierLibelle\': u\'Travail : mesures pour le renforcement du dialogue social\', u\'scrutin_fulldesc\': u"Scrutin n\\xb0 15 du 11/07/2017 : l\'amendement ...cement du dialogue social (premi\\xe8re lecture).", u\'scrutin_id\': u\'15_15\', u\'scrutin_num\': 15, u\'scrutin_ok\': True, u\'scrutin_type\': u\'SOR\', ...}, {u\'_id\': ObjectId(\'596bc96d8e5c9b497eb9b072\'), u\'scrutin_date\': u\'11/07/2017\', u\'scrutin_desc\': u"l\'article premier du projet de loi d\'habilitat...cement du dialogue social (premi\\xe8re lecture).", u\'scrutin_dossier\': u\'S-LEGANR5L15DLhabilitation_ordonnances_dialogue_social\', u\'scrutin_dossierLibelle\': u\'Travail : mesures pour le renforcement du dialogue social\', u\'scrutin_fulldesc\': u"Scrutin n\\xb0 14 du 11/07/2017 : l\'article pre...cement du dialogue social (premi\\xe8re lecture).", u\'scrutin_id\': u\'15_14\', u\'scrutin_num\': 14, u\'scrutin_ok\': True, u\'scrutin_type\': u\'SOR\', ...}, {u\'_id\': ObjectId(\'596bc96d8e5c9b497eb9b071\'), u\'scrutin_date\': u\'11/07/2017\', u\'scrutin_desc\': u"l\'amendement n\\xb0 439 de M. Vallaud \\xe0 l\'ar...cement du dialogue social (premi\\xe8re lecture).", u\'scrutin_dossier\': u\'S-LEGANR5L15DLhabilitation_ordonnances_dialogue_social\', u\'scrutin_dossierLibelle\': u\'Travail : mesures pour le renforcement du dialogue social\', u\'scrutin_fulldesc\': u"Scrutin n\\xb0 12 du 11/07/2017 : l\'amendement ...cement du dialogue social (premi\\xe8re lecture).", u\'scrutin_id\': u\'15_12\', u\'scrutin_num\': 12, u\'scrutin_ok\': True, u\'scrutin_type\': u\'SOR\', ...}, {u\'_id\': ObjectId(\'596bc96d8e5c9b497eb9b073\'), u\'scrutin_date\': u\'11/07/2017\', u\'scrutin_desc\': u"l\'amendement n\\xb0 118 de M. Quatennens et les...cement du dialogue social (premi\\xe8re lecture).", u\'scrutin_dossier\': u\'S-LEGANR5L15DLhabilitation_ordonnances_dialogue_social\', u\'scrutin_dossierLibelle\': u\'Travail : mesures pour le renforcement du dialogue social\', u\'scrutin_fulldesc\': u"Scrutin n\\xb0 11 du 11/07/2017 : l\'amendement ...cement du dialogue social (premi\\xe8re lecture).", u\'scrutin_id\': u\'15_11\', u\'scrutin_num\': 11, u\'scrutin_ok\': True, u\'scrutin_type\': u\'SOR\', ...}, {u\'_id\': ObjectId(\'596bc96d8e5c9b497eb9b06e\'), u\'scrutin_date\': u\'11/07/2017\', u\'scrutin_desc\': u"l\'amendement n\\xb0 119 de M. Quatennens et les...cement du dialogue social (premi\\xe8re lecture).", u\'scrutin_dossier\': u\'S-LEGANR5L15DLhabilitation_ordonnances_dialogue_social\', u\'scrutin_dossierLibelle\': u\'Travail : mesures pour le renforcement du dialogue social\', u\'scrutin_fulldesc\': u"Scrutin n\\xb0 9 du 11/07/2017 : l\'amendement n...cement du dialogue social (premi\\xe8re lecture).", u\'scrutin_id\': u\'15_9\', u\'scrutin_num\': 9, u\'scrutin_ok\': True, u\'scrutin_type\': u\'SOR\', ...}, ...]'
p159
sS'scrutins_dossiers'
p160
S"OrderedDict([((u'S-LEGANR5L15DLreglement_comptes...58e5c9b1d2a665e99'), u'scrutin_type': u'SOR'}])])"
p161
sS'dep'
p162
S'{u\'adresses\': [{u\'adresseDeRattachement\': None, u\'codePostal\': u\'75355\', u\'complementAdresse\': None, u\'intitule\': u\'Assembl\\xe9e nationale,\', u\'nomRue\': u"Rue de l\'Universit\\xe9,", u\'numeroRue\': u\'126\', u\'poids\': u\'01\', u\'type\': u\'AdressePostale_Type\', u\'typeLibelle\': u\'Adresse officielle\', u\'uid\': u\'AD721720\', ...}, {u\'adresseDeRattachement\': None, u\'poids\': None, u\'type\': u\'AdresseMail_Type\', u\'typeLibelle\': u\'M\\xe8l\', u\'uid\': u\'AD728275\', u\'valElec\': u\'stephanie.do@assemblee-nationale.fr\'}, {u\'adresseDeRattachement\': None, u\'poids\': None, u\'type\': u\'AdresseSiteWeb_Type\', u\'typeLibelle\': u\'Twitter\', u\'uid\': u\'AD728446\', u\'valElec\': u\'@en_marche_77\'}, {u\'adresseDeRattachement\': None, u\'poids\': None, u\'type\': u\'AdresseSiteWeb_Type\', u\'typeLibelle\': u\'Facebook\', u\'uid\': u\'AD728478\', u\'valElec\': u\'StephanieDo.REM\'}, {u\'adresseDeRattachement\': None, u\'poids\': None, u\'type\': u\'AdresseSiteWeb_Type\', u\'typeLibelle\': u\'Site internet\', u\'uid\': u\'AD728548\', u\'valElec\': u\'stephaniedo.en-marche.fr\'}, {u\'adresseDeRattachement\': None, u\'poids\': None, u\'type\': u\'AdresseMail_Type\', u\'typeLibelle\': u\'M\\xe8l\', u\'uid\': u\'AD729092\', u\'valElec\': u\'stephanie.do@en-marche.fr\'}], u\'age\': 37, u\'circo\': u\'10\', u\'classeage\': u\'30-40 ans\', u\'commissions\': [u\'PO419610\'], u\'contacts\': [[u\'M\\xe8l\', u\'stephanie.do@assemblee-nationale.fr\'], [u\'Twitter\', u\'@en_marche_77\'], [u\'Facebook\', u\'StephanieDo.REM\'], [u\'Site internet\', u\'stephaniedo.en-marche.fr\'], [u\'M\\xe8l\', u\'stephanie.do@en-marche.fr\']], u\'csp\': u\'Cadres et professions intellectuelles sup\\xe9rieures\', u\'departement\': u\'Seine-et-Marne\', u\'deputywatch\': None, u\'etatCivil_dateDeces\': None, ...}'
p163
sS'positions'
p164
S"{u'15_1': u'pour', u'15_11': u'contre', u'15_12': u'contre', u'15_14': u'contre', u'15_15': u'contre', u'15_16': u'contre', u'15_17': u'contre', u'15_18': u'contre', u'15_19': u'contre', u'15_20': u'contre', ...}"
p165
sS'v'
S"{u'_id': ObjectId('596dca488e5c9b1aa60d41fa'), u'age': 37, u'classeage': u'30-40 ans', u'commissions': [u'PO419610'], u'csp': u'Cadres et professions intellectuelles sup\\xe9rieures', u'departement': u'Seine-et-Marne', u'groupe': u'PO730964', u'groupeabrev': u'REM', u'nom': u'Mme St\\xe9phanie Do', u'organes': [u'AN', u'CION-ECO', u'REM'], ...}"
p166
sS'p'
S"'voteem'"
p167
sS's'
S'{u\'_id\': ObjectId(\'596fa2a58e5c9b1d2a665e99\'), \'flag\': False, u\'scrutin_date\': u\'18/07/2017\', u\'scrutin_desc\': u"la motion de renvoi en commission, d\\xe9pos\\xe...omptes de l\'ann\\xe9e 2016 (premi\\xe8re lecture).", u\'scrutin_dossier\': u\'S-LEGANR5L15DLreglement_comptes_2016\', u\'scrutin_dossierLibelle\': u\'Budget : r\\xe8glement des comptes 2016\', u\'scrutin_fulldesc\': u"Scrutin n\\xb0 50 du 18/07/2017 : la motion de ...omptes de l\'ann\\xe9e 2016 (premi\\xe8re lecture).", u\'scrutin_id\': u\'15_50\', u\'scrutin_num\': 50, u\'scrutin_ok\': True, ...}'
p168
sS'dosid'
p169
S"(u'S-LEGANR5L15DLreglement_comptes_2016', u'Budget : r\\xe8glement des comptes 2016')"
p170
sS'dossiers'
p171
S"{u'S-LEGANR5L15DLreglement_comptes_2016': {'n': 1, 'voteem': 1, 'votefi': 0}, 'tous': {'n': 1, 'voteem': 1, 'votefi': 0}}"
p172
sS'a_id'
p173
S"'PA721718'"
p174
sS'stats'
p175
S"{'absent': 25, 'abstention': 0, 'contre': 26, 'diss': 0, 'disspct': 0, 'exprime': 27, 'exprimepct': 51, 'n': 52, 'nonVotant': 0, 'pour': 1, ...}"
p176
sssS'traceback'
p177
S'Traceback (most recent call last):\n  File "/home/www-data/web2py/gluon/restricted.py", line 219, in restricted\n    exec(ccode, environment)\n  File "/home/www-data/web2py/applications/obsas_dev/controllers/fiches.py", line 65, in <module>\n  File "/home/www-data/web2py/gluon/globals.py", line 409, in <lambda>\n    self._caller = lambda f: f()\n  File "/home/www-data/web2py/applications/obsas_dev/controllers/fiches.py", line 52, in depute\n    if s[\'desc\'][:12]=="l\'amendement":\nKeyError: \'desc\'\n'
p178
s.