(dp1
S'output'
p2
S'The "end" tag is unmatched, please check if you have a starting "block" tag'
p3
sS'layer'
p4
S'ParserContainer'
p5
sS'code'
p6
S'{{ extend "base.html" }}\n<style>\n    .parti {\n      color: grey;\n      font-weight:300;\n    }\n    .sortvote {\n      font-weight: 500;\n    }\n</style>\n{{ end }}\n{{ block content }}\n<div class="row">\n  <div class="col s12">\n    <div class="card horizontal coul{{ =groupe_abrev}}bg">\n      <div class="card-image">\n        <img src="http://www2.assemblee-nationale.fr/static/tribun/15/photos/{{ =uid[2:] }}.jpg" style="top:10px;left:10px;"/>\n      </div>\n      <div class="card-stacked">\n        <div class="card-content">\n          <h4>{{ nomcomplet }}</h4>\n          <h5>{{ for (k,v) in contacts: }}\n            {{ if (k=="M\xc3\xa8l"): }}\n              <a href="mailto:{{ =v }}"><i class="fa fa-envelope-o"></i></a>\n            {{ elif (k==\'Twitter\'): }}\n              <a href="https://twitter.com/{{ =v[1:] }}"><i class="fa fa-twitter"></i></a>\n            {{ elif (k==\'Facebook\'): }}\n              <a href="https://fr-fr.facebook.com/{{ =v }}"><i class="fa fa-facebook-square"></i></a>\n            {{ elif (k==\'Site internet\'): }}\n              <a href="http://{{ =v }}"><i class="fa fa-globe"></i></a>\n\n            {{ pass }}\n          {{ pass }}</h5>\n          <h5><i class="fa fa-group coul{{ =groupe_abrev }}-text"></i> <a href="../groupes/{{ =groupe }}.html" class="{{ =groupe_abrev }}-text">{{ groupe_nom }} ( {{ groupe_abrev }})</a></h5>\n          <span>{{ =profession.libelleCourant }}, n\xc3\xa9(e) le {{ etatCivil.infoNaissance.dateNais\'] | fdate }} \xc3\xa0 {{ acteur[\'etatCivil.infoNaissance.villeNais\'] }}</span>\n        </div>\n      </div>\n    </div>\n  </div>\n</div>\n<div class="row">\n  <div class="col s12">\n    <ul class="collapsible" data-collapsible="expandable">\n      <li>\n        <div class="collapsible-header"><i class="fa fa-legal {{ =groupe_abrev }}-text"></i> Fonctions / Mandats</div>\n        <div class="collapsible-body"><ul class="collection">\n          {{ for fct in fonctions: }}<li class="collection-item">\n             <i class="fa fa-play coul{{ =groupe }}-text"></i> {{ =fct[\'qualite\'] }} <a href="{{ =fct[\'organe\'] }}.html" style="color:black; font-weight:500;">libelleEdition organe</a> (depuis le {{ =fct[\'debut\'] }})\n          </li>{{ pass }}\n        </ul></div>\n      </li>\n      <li>\n        <div class="collapsible-header"><i class="fa fa-university {{ =groupe_abrev }}-text"></i> H\xc3\xa9micycle</div>\n        <div class="collapsible-body">\n          <object id="hemicycle" data="../hemicycle.svg" width=\'100%\' type="image/svg+xml"></object>\n        </div>\n      </li>\n      {{ if acteur[\'deputywatch\']: }}\n      <li>\n        <div class="collapsible-header"><i class="fa fa-search coul{{ =groupe_abrev }}-text"></i> Deputy Watch</div>\n        <div class="collapsible-body">\n          <ul class="collection">\n            <li class="collection-item avatar">\n              <a href="{{ =acteur[\'deputywatch\'][\'url\'] }}" target="_blank" style="color:black;"><img src=\'../img/deputywatch.png\' alt="" class="circle">\n              <span class="title" style="font-weight:450">Faits notables ou infraction</span><p>(voir sur le site deputywatch.org)</p></a>\n           </li>\n          </ul>\n        </div>\n      </li>\n      {{ pass }}\n      <li>\n        <div class="collapsible-header"><i class="fa fa-file-text-o coul{{ =groupe_abrev }}-text"></i> HATVP</div>\n        <div class="collapsible-body">\n          <ul class="collection">{{ for dec in acteur[\'hatvp\'] }}\n            <li class="collection-item avatar">\n              <a href="{{ =dec[\'docurl\'] }}" target="_blank" style="color:black;"><i class="fa fa-file-text-o circle coul{{ =groupe_abrev }}"></i>\n              <span class="title" style="font-weight:450">{{ =dec[\'typedoc\'] }}</span>\n              <p>{{ =dec[\'qualite\'] }}</p></a>\n           </li>\n          {{ pass }}</ul>\n\n        </div>\n      </li>\n      \n    </ul>\n  </div>\n</div>\n{{ end }}\n{{ block javascript }}\n  <script>\n    var svg = document.getElementById(\'hemicycle\');\n    svg.addEventListener(\'load\', function () {\n      //var svg = document.getElementById(\'hemicycle\');\n      var svgDoc = svg.contentDocument;\n      var styleElement = svgDoc.createElementNS("http://www.w3.org/2000/svg", "style");\n      styleElement.textContent = "#p{{ acteur[\'place\'] }} { fill: {{ groupe[\'svgcolor\']}}; }"; // add whatever you need here\n      svgDoc.getElementById(\'defs\').appendChild(styleElement);\n\n    });\n  </script>\n{{ end }}\n'
p7
sS'snapshot'
p8
(dp9
sS'traceback'
p10
S'None\n'
p11
s.