(dp1
S'output'
p2
S"<type 'exceptions.KeyError'> 'actif'"
p3
sS'layer'
p4
S'/home/www-data/web2py/applications/obsas_dev/controllers/maintenance.py'
p5
sS'code'
p6
S'<code object <module> at 0x7f6e2ac5c430, file "/home/www-data/web2py/applications/obsas_dev/controllers/maintenance.py", line 4>'
p7
sS'snapshot'
p8
(dp9
S'exception'
p10
(dp11
S'__getslice__'
p12
S"<method-wrapper '__getslice__' of exceptions.KeyError object>"
p13
sS'__str__'
p14
S"<method-wrapper '__str__' of exceptions.KeyError object>"
p15
sS'__reduce__'
p16
S'<built-in method __reduce__ of exceptions.KeyError object>'
p17
sS'__dict__'
p18
S'{}'
p19
sS'message'
p20
S"'actif'"
p21
sS'__sizeof__'
p22
S'<built-in method __sizeof__ of exceptions.KeyError object>'
p23
sS'__init__'
p24
S"<method-wrapper '__init__' of exceptions.KeyError object>"
p25
sS'__setattr__'
p26
S"<method-wrapper '__setattr__' of exceptions.KeyError object>"
p27
sS'__reduce_ex__'
p28
S'<built-in method __reduce_ex__ of exceptions.KeyError object>'
p29
sS'__new__'
p30
S'<built-in method __new__ of type object>'
p31
sS'__format__'
p32
S'<built-in method __format__ of exceptions.KeyError object>'
p33
sS'__class__'
p34
S"<type 'exceptions.KeyError'>"
p35
sS'__doc__'
p36
S"'Mapping key not found.'"
p37
sS'__getitem__'
p38
S"<method-wrapper '__getitem__' of exceptions.KeyError object>"
p39
sS'__setstate__'
p40
S'<built-in method __setstate__ of exceptions.KeyError object>'
p41
sS'__getattribute__'
p42
S"<method-wrapper '__getattribute__' of exceptions.KeyError object>"
p43
sS'args'
p44
S"('actif',)"
p45
sS'__subclasshook__'
p46
S'<built-in method __subclasshook__ of type object>'
p47
sS'__unicode__'
p48
S'<built-in method __unicode__ of exceptions.KeyError object>'
p49
sS'__delattr__'
p50
S"<method-wrapper '__delattr__' of exceptions.KeyError object>"
p51
sS'__repr__'
p52
S"<method-wrapper '__repr__' of exceptions.KeyError object>"
p53
sS'__hash__'
p54
S"<method-wrapper '__hash__' of exceptions.KeyError object>"
p55
ssS'evalue'
p56
S"'actif'"
p57
sS'request'
p58
cgluon.html
XML_unpickle
p59
(S'smn\x00\x00<div><table><tr><td style="font-weight:bold;vertical-align:top;">ajax</td><td style="vertical-align:top;">:</td><td><div>False</div></td></tr><tr><td style="font-weight:bold;vertical-align:top;">application</td><td style="vertical-align:top;">:</td><td><div>obsas_dev</div></td></tr><tr><td style="font-weight:bold;vertical-align:top;">args</td><td style="vertical-align:top;">:</td><td><div><table><tr><td><div>debug</div></td></tr></table></div></td></tr><tr><td style="font-weight:bold;vertical-align:top;">cid</td><td style="vertical-align:top;">:</td><td><div>None</div></td></tr><tr><td style="font-weight:bold;vertical-align:top;">client</td><td style="vertical-align:top;">:</td><td><div>83.203.51.117</div></td></tr><tr><td style="font-weight:bold;vertical-align:top;">controller</td><td style="vertical-align:top;">:</td><td><div>maintenance</div></td></tr><tr><td style="font-weight:bold;vertical-align:top;">cookies</td><td style="vertical-align:top;">:</td><td><div><table><tr><td style="font-weight:bold;vertical-align:top;">session_id_admin</td><td style="vertical-align:top;">:</td><td><div>83.203.51.117-ec5ab064-18ca-475d-9ae1-940e39bb68d9<table><tr><td style="font-weight:bold;vertical-align:top;">comment</td><td style="vertical-align:top;">:</td><td><div></div></td></tr><tr><td style="font-weight:bold;vertical-align:top;">domain</td><td style="vertical-align:top;">:</td><td><div></div></td></tr><tr><td style="font-weight:bold;vertical-align:top;">expires</td><td style="vertical-align:top;">:</td><td><div></div></td></tr><tr><td style="font-weight:bold;vertical-align:top;">httponly</td><td style="vertical-align:top;">:</td><td><div></div></td></tr><tr><td style="font-weight:bold;vertical-align:top;">max-age</td><td style="vertical-align:top;">:</td><td><div></div></td></tr><tr><td style="font-weight:bold;vertical-align:top;">path</td><td style="vertical-align:top;">:</td><td><div></div></td></tr><tr><td style="font-weight:bold;vertical-align:top;">secure</td><td style="vertical-align:top;">:</td><td><div></div></td></tr><tr><td style="font-weight:bold;vertical-align:top;">version</td><td style="vertical-align:top;">:</td><td><div></div></td></tr></table></div></td></tr><tr><td style="font-weight:bold;vertical-align:top;">session_id_obsas_dev</td><td style="vertical-align:top;">:</td><td><div>83.203.51.117-c0158df6-d0b3-427b-bfcb-046445e88c00<table><tr><td style="font-weight:bold;vertical-align:top;">comment</td><td style="vertical-align:top;">:</td><td><div></div></td></tr><tr><td style="font-weight:bold;vertical-align:top;">domain</td><td style="vertical-align:top;">:</td><td><div></div></td></tr><tr><td style="font-weight:bold;vertical-align:top;">expires</td><td style="vertical-align:top;">:</td><td><div></div></td></tr><tr><td style="font-weight:bold;vertical-align:top;">httponly</td><td style="vertical-align:top;">:</td><td><div></div></td></tr><tr><td style="font-weight:bold;vertical-align:top;">max-age</td><td style="vertical-align:top;">:</td><td><div></div></td></tr><tr><td style="font-weight:bold;vertical-align:top;">path</td><td style="vertical-align:top;">:</td><td><div></div></td></tr><tr><td style="font-weight:bold;vertical-align:top;">secure</td><td style="vertical-align:top;">:</td><td><div></div></td></tr><tr><td style="font-weight:bold;vertical-align:top;">version</td><td style="vertical-align:top;">:</td><td><div></div></td></tr></table></div></td></tr></table></div></td></tr><tr><td style="font-weight:bold;vertical-align:top;">env</td><td style="vertical-align:top;">:</td><td><div><table><tr><td style="font-weight:bold;vertical-align:top;">CONTEXT_DOCUMENT_ROOT</td><td style="vertical-align:top;">:</td><td><div>/var/www/html</div></td></tr><tr><td style="font-weight:bold;vertical-align:top;">CONTEXT_PREFIX</td><td style="vertical-align:top;">:</td><td><div></div></td></tr><tr><td style="font-weight:bold;vertical-align:top;">DOCUMENT_ROOT</td><td style="vertical-align:top;">:</td><td><div>/var/www/html</div></td></tr><tr><td style="font-weight:bold;vertical-align:top;">GATEWAY_INTERFACE</td><td style="vertical-align:top;">:</td><td><div>CGI/1.1</div></td></tr><tr><td style="font-weight:bold;vertical-align:top;">HTTP_ACCEPT</td><td style="vertical-align:top;">:</td><td><div>text/html,application/xhtml+xml,application/xml;q=0.9,image/webp,image/apng,*/*;q=0.8</div></td></tr><tr><td style="font-weight:bold;vertical-align:top;">HTTP_ACCEPT_ENCODING</td><td style="vertical-align:top;">:</td><td><div>gzip, deflate, br</div></td></tr><tr><td style="font-weight:bold;vertical-align:top;">HTTP_ACCEPT_LANGUAGE</td><td style="vertical-align:top;">:</td><td><div>fr-FR,fr;q=0.8,en-US;q=0.6,en;q=0.4</div></td></tr><tr><td style="font-weight:bold;vertical-align:top;">HTTP_CONNECTION</td><td style="vertical-align:top;">:</td><td><div>keep-alive</div></td></tr><tr><td style="font-weight:bold;vertical-align:top;">HTTP_COOKIE</td><td style="vertical-align:top;">:</td><td><div>session_id_obsas_dev=83.203.51.117-c0158df6-d0b3-427b-bfcb-046445e88c00; session_id_admin=83.203.51.117-ec5ab064-18ca-475d-9ae1-940e39bb68d9</div></td></tr><tr><td style="font-weight:bold;vertical-align:top;">HTTP_HOST</td><td style="vertical-align:top;">:</td><td><div>admin.obsas.orvdev.fr</div></td></tr><tr><td style="font-weight:bold;vertical-align:top;">HTTP_UPGRADE_INSECURE_REQUESTS</td><td style="vertical-align:top;">:</td><td><div>1</div></td></tr><tr><td style="font-weight:bold;vertical-align:top;">HTTP_USER_AGENT</td><td style="vertical-align:top;">:</td><td><div>Mozilla/5.0 (X11; Linux x86_64) AppleWebKit/537.36 (KHTML, like Gecko) Chrome/60.0.3112.101 Safari/537.36</div></td></tr><tr><td style="font-weight:bold;vertical-align:top;">PATH_INFO</td><td style="vertical-align:top;">:</td><td><div>/obsas_dev/maintenance/updateAssemblee/debug</div></td></tr><tr><td style="font-weight:bold;vertical-align:top;">PATH_TRANSLATED</td><td style="vertical-align:top;">:</td><td><div>/home/www-data/web2py/wsgihandler.py/obsas_dev/maintenance/updateAssemblee/debug</div></td></tr><tr><td style="font-weight:bold;vertical-align:top;">QUERY_STRING</td><td style="vertical-align:top;">:</td><td><div></div></td></tr><tr><td style="font-weight:bold;vertical-align:top;">REMOTE_ADDR</td><td style="vertical-align:top;">:</td><td><div>83.203.51.117</div></td></tr><tr><td style="font-weight:bold;vertical-align:top;">REMOTE_PORT</td><td style="vertical-align:top;">:</td><td><div>34758</div></td></tr><tr><td style="font-weight:bold;vertical-align:top;">REQUEST_METHOD</td><td style="vertical-align:top;">:</td><td><div>GET</div></td></tr><tr><td style="font-weight:bold;vertical-align:top;">REQUEST_SCHEME</td><td style="vertical-align:top;">:</td><td><div>https</div></td></tr><tr><td style="font-weight:bold;vertical-align:top;">REQUEST_URI</td><td style="vertical-align:top;">:</td><td><div>/obsas_dev/maintenance/updateAssemblee/debug</div></td></tr><tr><td style="font-weight:bold;vertical-align:top;">SCRIPT_FILENAME</td><td style="vertical-align:top;">:</td><td><div>/home/www-data/web2py/wsgihandler.py</div></td></tr><tr><td style="font-weight:bold;vertical-align:top;">SCRIPT_NAME</td><td style="vertical-align:top;">:</td><td><div></div></td></tr><tr><td style="font-weight:bold;vertical-align:top;">SERVER_ADDR</td><td style="vertical-align:top;">:</td><td><div>151.80.57.169</div></td></tr><tr><td style="font-weight:bold;vertical-align:top;">SERVER_ADMIN</td><td style="vertical-align:top;">:</td><td><div>[no address given]</div></td></tr><tr><td style="font-weight:bold;vertical-align:top;">SERVER_NAME</td><td style="vertical-align:top;">:</td><td><div>admin.obsas.orvdev.fr</div></td></tr><tr><td style="font-weight:bold;vertical-align:top;">SERVER_PORT</td><td style="vertical-align:top;">:</td><td><div>443</div></td></tr><tr><td style="font-weight:bold;vertical-align:top;">SERVER_PROTOCOL</td><td style="vertical-align:top;">:</td><td><div>HTTP/1.1</div></td></tr><tr><td style="font-weight:bold;vertical-align:top;">SERVER_SIGNATURE</td><td style="vertical-align:top;">:</td><td><div>&lt;address&gt;Apache/2.4.18 (Ubuntu) Server at admin.obsas.orvdev.fr Port 443&lt;/address&gt;\n</div></td></tr><tr><td style="font-weight:bold;vertical-align:top;">SERVER_SOFTWARE</td><td style="vertical-align:top;">:</td><td><div>Apache/2.4.18 (Ubuntu)</div></td></tr><tr><td style="font-weight:bold;vertical-align:top;">SSL_TLS_SNI</td><td style="vertical-align:top;">:</td><td><div>admin.obsas.orvdev.fr</div></td></tr><tr><td style="font-weight:bold;vertical-align:top;">apache.version</td><td style="vertical-align:top;">:</td><td><div><table><tr><td><div>2</div></td></tr><tr><td><div>4</div></td></tr><tr><td><div>18</div></td></tr></table></div></td></tr><tr><td style="font-weight:bold;vertical-align:top;">apache_version</td><td style="vertical-align:top;">:</td><td><div><table><tr><td><div>2</div></td></tr><tr><td><div>4</div></td></tr><tr><td><div>18</div></td></tr></table></div></td></tr><tr><td style="font-weight:bold;vertical-align:top;">app_folders</td><td style="vertical-align:top;">:</td><td><div>set([&#x27;/home/www-data/web2py/applications/obsas_dev/&#x27;, &#x27;/home/www-data/web2py/applications/admin/&#x27;])</div></td></tr><tr><td style="font-weight:bold;vertical-align:top;">applications_parent</td><td style="vertical-align:top;">:</td><td><div>/home/www-data/web2py</div></td></tr><tr><td style="font-weight:bold;vertical-align:top;">context_document_root</td><td style="vertical-align:top;">:</td><td><div>/var/www/html</div></td></tr><tr><td style="font-weight:bold;vertical-align:top;">context_prefix</td><td style="vertical-align:top;">:</td><td><div></div></td></tr><tr><td style="font-weight:bold;vertical-align:top;">db_sessions</td><td style="vertical-align:top;">:</td><td><div>set([])</div></td></tr><tr><td style="font-weight:bold;vertical-align:top;">debugging</td><td style="vertical-align:top;">:</td><td><div>True</div></td></tr><tr><td style="font-weight:bold;vertical-align:top;">document_root</td><td style="vertical-align:top;">:</td><td><div>/var/www/html</div></td></tr><tr><td style="font-weight:bold;vertical-align:top;">gateway_interface</td><td style="vertical-align:top;">:</td><td><div>CGI/1.1</div></td></tr><tr><td style="font-weight:bold;vertical-align:top;">gluon_parent</td><td style="vertical-align:top;">:</td><td><div>/home/www-data/web2py</div></td></tr><tr><td style="font-weight:bold;vertical-align:top;">http_accept</td><td style="vertical-align:top;">:</td><td><div>text/html,application/xhtml+xml,application/xml;q=0.9,image/webp,image/apng,*/*;q=0.8</div></td></tr><tr><td style="font-weight:bold;vertical-align:top;">http_accept_encoding</td><td style="vertical-align:top;">:</td><td><div>gzip, deflate, br</div></td></tr><tr><td style="font-weight:bold;vertical-align:top;">http_accept_language</td><td style="vertical-align:top;">:</td><td><div>fr-FR,fr;q=0.8,en-US;q=0.6,en;q=0.4</div></td></tr><tr><td style="font-weight:bold;vertical-align:top;">http_connection</td><td style="vertical-align:top;">:</td><td><div>keep-alive</div></td></tr><tr><td style="font-weight:bold;vertical-align:top;">http_cookie</td><td style="vertical-align:top;">:</td><td><div>session_id_obsas_dev=83.203.51.117-c0158df6-d0b3-427b-bfcb-046445e88c00; session_id_admin=83.203.51.117-ec5ab064-18ca-475d-9ae1-940e39bb68d9</div></td></tr><tr><td style="font-weight:bold;vertical-align:top;">http_host</td><td style="vertical-align:top;">:</td><td><div>admin.obsas.orvdev.fr</div></td></tr><tr><td style="font-weight:bold;vertical-align:top;">http_upgrade_insecure_requests</td><td style="vertical-align:top;">:</td><td><div>1</div></td></tr><tr><td style="font-weight:bold;vertical-align:top;">http_user_agent</td><td style="vertical-align:top;">:</td><td><div>Mozilla/5.0 (X11; Linux x86_64) AppleWebKit/537.36 (KHTML, like Gecko) Chrome/60.0.3112.101 Safari/537.36</div></td></tr><tr><td style="font-weight:bold;vertical-align:top;">is_jython</td><td style="vertical-align:top;">:</td><td><div>False</div></td></tr><tr><td style="font-weight:bold;vertical-align:top;">is_py2</td><td style="vertical-align:top;">:</td><td><div>True</div></td></tr><tr><td style="font-weight:bold;vertical-align:top;">is_pypy</td><td style="vertical-align:top;">:</td><td><div>False</div></td></tr><tr><td style="font-weight:bold;vertical-align:top;">is_source</td><td style="vertical-align:top;">:</td><td><div>True</div></td></tr><tr><td style="font-weight:bold;vertical-align:top;">local_hosts</td><td style="vertical-align:top;">:</td><td><div><table><tr><td><div>vps433020</div></td></tr><tr><td><div>::ffff:127.0.0.1</div></td></tr><tr><td><div>::1</div></td></tr><tr><td><div>151.80.57.169</div></td></tr><tr><td><div>vps433020.ovh.net</div></td></tr><tr><td><div>127.0.1.1</div></td></tr><tr><td><div>127.0.0.1</div></td></tr></table></div></td></tr><tr><td style="font-weight:bold;vertical-align:top;">mod_wsgi.application_group</td><td style="vertical-align:top;">:</td><td><div></div></td></tr><tr><td style="font-weight:bold;vertical-align:top;">mod_wsgi.callable_object</td><td style="vertical-align:top;">:</td><td><div>application</div></td></tr><tr><td style="font-weight:bold;vertical-align:top;">mod_wsgi.daemon_connects</td><td style="vertical-align:top;">:</td><td><div>1</div></td></tr><tr><td style="font-weight:bold;vertical-align:top;">mod_wsgi.daemon_restarts</td><td style="vertical-align:top;">:</td><td><div>0</div></td></tr><tr><td style="font-weight:bold;vertical-align:top;">mod_wsgi.daemon_start</td><td style="vertical-align:top;">:</td><td><div>1504652884367883</div></td></tr><tr><td style="font-weight:bold;vertical-align:top;">mod_wsgi.enable_sendfile</td><td style="vertical-align:top;">:</td><td><div>0</div></td></tr><tr><td style="font-weight:bold;vertical-align:top;">mod_wsgi.handler_script</td><td style="vertical-align:top;">:</td><td><div></div></td></tr><tr><td style="font-weight:bold;vertical-align:top;">mod_wsgi.input_chunked</td><td style="vertical-align:top;">:</td><td><div>0</div></td></tr><tr><td style="font-weight:bold;vertical-align:top;">mod_wsgi.listener_host</td><td style="vertical-align:top;">:</td><td><div></div></td></tr><tr><td style="font-weight:bold;vertical-align:top;">mod_wsgi.listener_port</td><td style="vertical-align:top;">:</td><td><div>443</div></td></tr><tr><td style="font-weight:bold;vertical-align:top;">mod_wsgi.process_group</td><td style="vertical-align:top;">:</td><td><div>obsasadm</div></td></tr><tr><td style="font-weight:bold;vertical-align:top;">mod_wsgi.queue_start</td><td style="vertical-align:top;">:</td><td><div>1504652884367758</div></td></tr><tr><td style="font-weight:bold;vertical-align:top;">mod_wsgi.request_handler</td><td style="vertical-align:top;">:</td><td><div>wsgi-script</div></td></tr><tr><td style="font-weight:bold;vertical-align:top;">mod_wsgi.request_start</td><td style="vertical-align:top;">:</td><td><div>1504652884366967</div></td></tr><tr><td style="font-weight:bold;vertical-align:top;">mod_wsgi.script_reloading</td><td style="vertical-align:top;">:</td><td><div>1</div></td></tr><tr><td style="font-weight:bold;vertical-align:top;">mod_wsgi.script_start</td><td style="vertical-align:top;">:</td><td><div>1504652884367907</div></td></tr><tr><td style="font-weight:bold;vertical-align:top;">mod_wsgi.version</td><td style="vertical-align:top;">:</td><td><div><table><tr><td><div>4</div></td></tr><tr><td><div>3</div></td></tr><tr><td><div>0</div></td></tr></table></div></td></tr><tr><td style="font-weight:bold;vertical-align:top;">mod_wsgi_application_group</td><td style="vertical-align:top;">:</td><td><div></div></td></tr><tr><td style="font-weight:bold;vertical-align:top;">mod_wsgi_callable_object</td><td style="vertical-align:top;">:</td><td><div>application</div></td></tr><tr><td style="font-weight:bold;vertical-align:top;">mod_wsgi_daemon_connects</td><td style="vertical-align:top;">:</td><td><div>1</div></td></tr><tr><td style="font-weight:bold;vertical-align:top;">mod_wsgi_daemon_restarts</td><td style="vertical-align:top;">:</td><td><div>0</div></td></tr><tr><td style="font-weight:bold;vertical-align:top;">mod_wsgi_daemon_start</td><td style="vertical-align:top;">:</td><td><div>1504652884367883</div></td></tr><tr><td style="font-weight:bold;vertical-align:top;">mod_wsgi_enable_sendfile</td><td style="vertical-align:top;">:</td><td><div>0</div></td></tr><tr><td style="font-weight:bold;vertical-align:top;">mod_wsgi_handler_script</td><td style="vertical-align:top;">:</td><td><div></div></td></tr><tr><td style="font-weight:bold;vertical-align:top;">mod_wsgi_input_chunked</td><td style="vertical-align:top;">:</td><td><div>0</div></td></tr><tr><td style="font-weight:bold;vertical-align:top;">mod_wsgi_listener_host</td><td style="vertical-align:top;">:</td><td><div></div></td></tr><tr><td style="font-weight:bold;vertical-align:top;">mod_wsgi_listener_port</td><td style="vertical-align:top;">:</td><td><div>443</div></td></tr><tr><td style="font-weight:bold;vertical-align:top;">mod_wsgi_process_group</td><td style="vertical-align:top;">:</td><td><div>obsasadm</div></td></tr><tr><td style="font-weight:bold;vertical-align:top;">mod_wsgi_queue_start</td><td style="vertical-align:top;">:</td><td><div>1504652884367758</div></td></tr><tr><td style="font-weight:bold;vertical-align:top;">mod_wsgi_request_handler</td><td style="vertical-align:top;">:</td><td><div>wsgi-script</div></td></tr><tr><td style="font-weight:bold;vertical-align:top;">mod_wsgi_request_start</td><td style="vertical-align:top;">:</td><td><div>1504652884366967</div></td></tr><tr><td style="font-weight:bold;vertical-align:top;">mod_wsgi_script_reloading</td><td style="vertical-align:top;">:</td><td><div>1</div></td></tr><tr><td style="font-weight:bold;vertical-align:top;">mod_wsgi_script_start</td><td style="vertical-align:top;">:</td><td><div>1504652884367907</div></td></tr><tr><td style="font-weight:bold;vertical-align:top;">mod_wsgi_version</td><td style="vertical-align:top;">:</td><td><div><table><tr><td><div>4</div></td></tr><tr><td><div>3</div></td></tr><tr><td><div>0</div></td></tr></table></div></td></tr><tr><td style="font-weight:bold;vertical-align:top;">nokeepalive</td><td style="vertical-align:top;">:</td><td><div>ssl-unclean-shutdown</div></td></tr><tr><td style="font-weight:bold;vertical-align:top;">path_info</td><td style="vertical-align:top;">:</td><td><div>/obsas_dev/maintenance/updateAssemblee/debug</div></td></tr><tr><td style="font-weight:bold;vertical-align:top;">path_translated</td><td style="vertical-align:top;">:</td><td><div>/home/www-data/web2py/wsgihandler.py/obsas_dev/maintenance/updateAssemblee/debug</div></td></tr><tr><td style="font-weight:bold;vertical-align:top;">query_string</td><td style="vertical-align:top;">:</td><td><div></div></td></tr><tr><td style="font-weight:bold;vertical-align:top;">remote_addr</td><td style="vertical-align:top;">:</td><td><div>83.203.51.117</div></td></tr><tr><td style="font-weight:bold;vertical-align:top;">remote_port</td><td style="vertical-align:top;">:</td><td><div>34758</div></td></tr><tr><td style="font-weight:bold;vertical-align:top;">request_method</td><td style="vertical-align:top;">:</td><td><div>GET</div></td></tr><tr><td style="font-weight:bold;vertical-align:top;">request_scheme</td><td style="vertical-align:top;">:</td><td><div>https</div></td></tr><tr><td style="font-weight:bold;vertical-align:top;">request_uri</td><td style="vertical-align:top;">:</td><td><div>/obsas_dev/maintenance/updateAssemblee/debug</div></td></tr><tr><td style="font-weight:bold;vertical-align:top;">script_filename</td><td style="vertical-align:top;">:</td><td><div>/home/www-data/web2py/wsgihandler.py</div></td></tr><tr><td style="font-weight:bold;vertical-align:top;">script_name</td><td style="vertical-align:top;">:</td><td><div></div></td></tr><tr><td style="font-weight:bold;vertical-align:top;">server_addr</td><td style="vertical-align:top;">:</td><td><div>151.80.57.169</div></td></tr><tr><td style="font-weight:bold;vertical-align:top;">server_admin</td><td style="vertical-align:top;">:</td><td><div>[no address given]</div></td></tr><tr><td style="font-weight:bold;vertical-align:top;">server_name</td><td style="vertical-align:top;">:</td><td><div>admin.obsas.orvdev.fr</div></td></tr><tr><td style="font-weight:bold;vertical-align:top;">server_port</td><td style="vertical-align:top;">:</td><td><div>443</div></td></tr><tr><td style="font-weight:bold;vertical-align:top;">server_protocol</td><td style="vertical-align:top;">:</td><td><div>HTTP/1.1</div></td></tr><tr><td style="font-weight:bold;vertical-align:top;">server_signature</td><td style="vertical-align:top;">:</td><td><div>&lt;address&gt;Apache/2.4.18 (Ubuntu) Server at admin.obsas.orvdev.fr Port 443&lt;/address&gt;\n</div></td></tr><tr><td style="font-weight:bold;vertical-align:top;">server_software</td><td style="vertical-align:top;">:</td><td><div>Apache/2.4.18 (Ubuntu)</div></td></tr><tr><td style="font-weight:bold;vertical-align:top;">ssl_tls_sni</td><td style="vertical-align:top;">:</td><td><div>admin.obsas.orvdev.fr</div></td></tr><tr><td style="font-weight:bold;vertical-align:top;">web2py_original_uri</td><td style="vertical-align:top;">:</td><td><div>/obsas_dev/maintenance/updateAssemblee/debug</div></td></tr><tr><td style="font-weight:bold;vertical-align:top;">web2py_path</td><td style="vertical-align:top;">:</td><td><div>/home/www-data/web2py</div></td></tr><tr><td style="font-weight:bold;vertical-align:top;">web2py_version</td><td style="vertical-align:top;">:</td><td><div>2.15.1-stable+timestamp.2017.07.10.21.25.06</div></td></tr><tr><td style="font-weight:bold;vertical-align:top;">wsgi.errors</td><td style="vertical-align:top;">:</td><td><div>&lt;mod_wsgi.Log object at 0x7f6e2ac37540&gt;</div></td></tr><tr><td style="font-weight:bold;vertical-align:top;">wsgi.file_wrapper</td><td style="vertical-align:top;">:</td><td><div>&lt;type &#x27;mod_wsgi.FileWrapper&#x27;&gt;</div></td></tr><tr><td style="font-weight:bold;vertical-align:top;">wsgi.input</td><td style="vertical-align:top;">:</td><td><div>&lt;mod_wsgi.Input object at 0x7f6e0edfa370&gt;</div></td></tr><tr><td style="font-weight:bold;vertical-align:top;">wsgi.multiprocess</td><td style="vertical-align:top;">:</td><td><div>False</div></td></tr><tr><td style="font-weight:bold;vertical-align:top;">wsgi.multithread</td><td style="vertical-align:top;">:</td><td><div>True</div></td></tr><tr><td style="font-weight:bold;vertical-align:top;">wsgi.run_once</td><td style="vertical-align:top;">:</td><td><div>False</div></td></tr><tr><td style="font-weight:bold;vertical-align:top;">wsgi.url_scheme</td><td style="vertical-align:top;">:</td><td><div>https</div></td></tr><tr><td style="font-weight:bold;vertical-align:top;">wsgi.version</td><td style="vertical-align:top;">:</td><td><div><table><tr><td><div>1</div></td></tr><tr><td><div>0</div></td></tr></table></div></td></tr><tr><td style="font-weight:bold;vertical-align:top;">wsgi_errors</td><td style="vertical-align:top;">:</td><td><div>&lt;mod_wsgi.Log object at 0x7f6e2ac37540&gt;</div></td></tr><tr><td style="font-weight:bold;vertical-align:top;">wsgi_file_wrapper</td><td style="vertical-align:top;">:</td><td><div>&lt;type &#x27;mod_wsgi.FileWrapper&#x27;&gt;</div></td></tr><tr><td style="font-weight:bold;vertical-align:top;">wsgi_input</td><td style="vertical-align:top;">:</td><td><div>&lt;mod_wsgi.Input object at 0x7f6e0edfa370&gt;</div></td></tr><tr><td style="font-weight:bold;vertical-align:top;">wsgi_multiprocess</td><td style="vertical-align:top;">:</td><td><div>False</div></td></tr><tr><td style="font-weight:bold;vertical-align:top;">wsgi_multithread</td><td style="vertical-align:top;">:</td><td><div>True</div></td></tr><tr><td style="font-weight:bold;vertical-align:top;">wsgi_run_once</td><td style="vertical-align:top;">:</td><td><div>False</div></td></tr><tr><td style="font-weight:bold;vertical-align:top;">wsgi_url_scheme</td><td style="vertical-align:top;">:</td><td><div>https</div></td></tr><tr><td style="font-weight:bold;vertical-align:top;">wsgi_version</td><td style="vertical-align:top;">:</td><td><div><table><tr><td><div>1</div></td></tr><tr><td><div>0</div></td></tr></table></div></td></tr></table></div></td></tr><tr><td style="font-weight:bold;vertical-align:top;">extension</td><td style="vertical-align:top;">:</td><td><div>html</div></td></tr><tr><td style="font-weight:bold;vertical-align:top;">folder</td><td style="vertical-align:top;">:</td><td><div>/home/www-data/web2py/applications/obsas_dev/</div></td></tr><tr><td style="font-weight:bold;vertical-align:top;">function</td><td style="vertical-align:top;">:</td><td><div>updateAssemblee</div></td></tr><tr><td style="font-weight:bold;vertical-align:top;">global_settings</td><td style="vertical-align:top;">:</td><td><div><table><tr><td style="font-weight:bold;vertical-align:top;">app_folders</td><td style="vertical-align:top;">:</td><td><div>set([&#x27;/home/www-data/web2py/applications/obsas_dev/&#x27;, &#x27;/home/www-data/web2py/applications/admin/&#x27;])</div></td></tr><tr><td style="font-weight:bold;vertical-align:top;">applications_parent</td><td style="vertical-align:top;">:</td><td><div>/home/www-data/web2py</div></td></tr><tr><td style="font-weight:bold;vertical-align:top;">db_sessions</td><td style="vertical-align:top;">:</td><td><div>set([])</div></td></tr><tr><td style="font-weight:bold;vertical-align:top;">debugging</td><td style="vertical-align:top;">:</td><td><div>True</div></td></tr><tr><td style="font-weight:bold;vertical-align:top;">gluon_parent</td><td style="vertical-align:top;">:</td><td><div>/home/www-data/web2py</div></td></tr><tr><td style="font-weight:bold;vertical-align:top;">is_jython</td><td style="vertical-align:top;">:</td><td><div>False</div></td></tr><tr><td style="font-weight:bold;vertical-align:top;">is_py2</td><td style="vertical-align:top;">:</td><td><div>True</div></td></tr><tr><td style="font-weight:bold;vertical-align:top;">is_pypy</td><td style="vertical-align:top;">:</td><td><div>False</div></td></tr><tr><td style="font-weight:bold;vertical-align:top;">is_source</td><td style="vertical-align:top;">:</td><td><div>True</div></td></tr><tr><td style="font-weight:bold;vertical-align:top;">local_hosts</td><td style="vertical-align:top;">:</td><td><div><table><tr><td><div>vps433020</div></td></tr><tr><td><div>::ffff:127.0.0.1</div></td></tr><tr><td><div>::1</div></td></tr><tr><td><div>151.80.57.169</div></td></tr><tr><td><div>vps433020.ovh.net</div></td></tr><tr><td><div>127.0.1.1</div></td></tr><tr><td><div>127.0.0.1</div></td></tr></table></div></td></tr><tr><td style="font-weight:bold;vertical-align:top;">web2py_version</td><td style="vertical-align:top;">:</td><td><div>2.15.1-stable+timestamp.2017.07.10.21.25.06</div></td></tr></table></div></td></tr><tr><td style="font-weight:bold;vertical-align:top;">is_https</td><td style="vertical-align:top;">:</td><td><div>True</div></td></tr><tr><td style="font-weight:bold;vertical-align:top;">is_local</td><td style="vertical-align:top;">:</td><td><div>False</div></td></tr><tr><td style="font-weight:bold;vertical-align:top;">is_restful</td><td style="vertical-align:top;">:</td><td><div>False</div></td></tr><tr><td style="font-weight:bold;vertical-align:top;">is_scheduler</td><td style="vertical-align:top;">:</td><td><div>False</div></td></tr><tr><td style="font-weight:bold;vertical-align:top;">is_shell</td><td style="vertical-align:top;">:</td><td><div>False</div></td></tr><tr><td style="font-weight:bold;vertical-align:top;">now</td><td style="vertical-align:top;">:</td><td><div>datetime.datetime(2017, 9, 6, 1, 8, 4, 368120)</div></td></tr><tr><td style="font-weight:bold;vertical-align:top;">url</td><td style="vertical-align:top;">:</td><td><div>/obsas_dev/maintenance/updateAssemblee/debug</div></td></tr><tr><td style="font-weight:bold;vertical-align:top;">utcnow</td><td style="vertical-align:top;">:</td><td><div>datetime.datetime(2017, 9, 5, 23, 8, 4, 368146)</div></td></tr><tr><td style="font-weight:bold;vertical-align:top;">wsgi</td><td style="vertical-align:top;">:</td><td><div>&lt;gluon.main.LazyWSGI object at 0x7f6e2b718a10&gt;</div></td></tr></table></div>'
tRp60
sS'frames'
p61
(lp62
(dp63
S'file'
p64
S'/home/www-data/web2py/gluon/restricted.py'
p65
sS'dump'
p66
(dp67
S'environment'
p68
S"{'A': <class 'gluon.html.A'>, 'ANY_OF': <class 'gluon.validators.ANY_OF'>, 'ASSIGNJS': <function ASSIGNJS>, 'AppCache': <class __restricted__.AppCache>, 'AppConfig': <function AppConfig>, 'Auth': <class 'gluon.tools.Auth'>, 'B': <class 'gluon.html.B'>, 'BEAUTIFY': <class 'gluon.html.BEAUTIFY'>, 'BODY': <class 'gluon.html.BODY'>, 'BR': <class 'gluon.html.BR'>, ...}"
p69
sS'ccode'
p70
S'<code object <module> at 0x7f6e2ac5c430, file "/...ns/obsas_dev/controllers/maintenance.py", line 4>'
p71
ssS'lnum'
p72
I219
sS'lines'
p73
(dp74
I214
S'    if environment is None:'
p75
sI215
S'        environment = {}'
p76
sI216
S"    environment['__file__'] = layer"
p77
sI217
S"    environment['__name__'] = '__restricted__'"
p78
sI218
S'    try:'
p79
sI219
S'        exec(ccode, environment)'
p80
sI220
S'    except HTTP:'
p81
sI221
S'        raise'
p82
sI222
S'    except RestrictedError:'
p83
sI223
S'        # do not encapsulate (obfuscate) the original RestrictedError'
p84
ssS'call'
p85
S'(ccode=<code object <module> at 0x7f6e2ac5c430, file "/...ns/obsas_dev/controllers/maintenance.py", line 4>, environment={\'A\': <class \'gluon.html.A\'>, \'ANY_OF\': <class \'gluon.validators.ANY_OF\'>, \'ASSIGNJS\': <function ASSIGNJS>, \'AppCache\': <class __restricted__.AppCache>, \'AppConfig\': <function AppConfig>, \'Auth\': <class \'gluon.tools.Auth\'>, \'B\': <class \'gluon.html.B\'>, \'BEAUTIFY\': <class \'gluon.html.BEAUTIFY\'>, \'BODY\': <class \'gluon.html.BODY\'>, \'BR\': <class \'gluon.html.BR\'>, ...}, layer=\'/home/www-data/web2py/applications/obsas_dev/controllers/maintenance.py\')'
p86
sS'func'
p87
S'restricted'
p88
sa(dp89
g64
S'/home/www-data/web2py/applications/obsas_dev/controllers/maintenance.py'
p90
sg66
(dp91
sg72
I258
sg73
(dp92
I256
S'        mdb.scrutins.insert_many(scrutins)'
p93
sI247
S'    # stockage des votes et des scrutins dans la base'
p94
sI248
S'    if votes:'
p95
sI249
S"        mdb.votes.create_index([('vote_id', pymongo.ASCENDING)], unique = True)"
p96
sI250
S'        #mdb.votes.insert_many(votes)'
p97
sI251
S'        for v in votes:'
p98
sI252
S'            mdb.votes.insert(v)'
p99
sI253
S''
sI254
S'    if scrutins:'
p100
sI255
S"        mdb.scrutins.create_index([('scrutin_id', pymongo.ASCENDING)], unique = True)"
p101
ssg85
S'()'
p102
sg87
S'<module>'
p103
sa(dp104
g64
S'/home/www-data/web2py/gluon/globals.py'
p105
sg66
(dp106
S'self'
p107
S'undefined'
p108
sS'f'
S'<function updateAssemblee>'
p109
ssg72
I409
sg73
(dp110
I404
S"        self.flash = ''            # used by the default view layout"
p111
sI405
S'        self.meta = Storage()      # used by web2py_ajax.html'
p112
sI406
S'        self.menu = []             # used by the default view layout'
p113
sI407
S'        self.files = []            # used by web2py_ajax.html'
p114
sI408
S'        self._vars = None'
p115
sI409
S'        self._caller = lambda f: f()'
p116
sI410
S'        self._view_environment = None'
p117
sI411
S'        self._custom_commit = None'
p118
sI412
S'        self._custom_rollback = None'
p119
sI413
S"        self.generic_patterns = ['*']"
p120
ssg85
S'(f=<function updateAssemblee>)'
p121
sg87
S'<lambda>'
p122
sa(dp123
g64
S'/home/www-data/web2py/applications/obsas_dev/controllers/maintenance.py'
p124
sg66
(dp125
S'deputes'
p126
S'[{u\'depute_actif\': True, \'depute_age\': 47, u\'depute_autresmandats\': [u"Membre du Conseil municipal d\'\\xc9pinal", u"Membre\\xa0de la communaut\\xe9 d\'agglom\\xe9ration d\'\\xc9pinal"], u\'depute_circo\': u\'1\', \'depute_classeage\': \'40-50 ans\', u\'depute_collaborateurs\': [u\'Mme Th\\xe9r\\xe8se Hurter\'], u\'depute_commissions\': [{u\'id\': u\'PO420120\', u\'lien\': u\'http://www2.assemblee-nationale.fr/instances/fiche/OMC_PO420120\', u\'nom\': u\'Commission des affaires sociales\', u\'qualite\': u\'Membre\'}], u\'depute_contacts\': [{u\'lien\': u\'mailto:stephane.viry@assemblee-nationale.fr\', u\'type\': u\'mail\'}], \'depute_csp\': u\'Cadres et professions intellectuelles sup\\xe9rieures\', u\'depute_dateelec\': u\'18/06/2017\', ...}, {u\'depute_actif\': True, \'depute_age\': 37, u\'depute_autresmandats\': [], u\'depute_circo\': u\'7\', \'depute_classeage\': \'30-40 ans\', u\'depute_collaborateurs\': [u\'Mme Djamila Schafter\', u\'Mme Sandrine Scali-Agazzini\', u\'M. R\\xe9my Picard\'], u\'depute_commissions\': [{u\'id\': u\'PO59046\', u\'lien\': u\'http://www2.assemblee-nationale.fr/instances/fiche/OMC_PO59046\', u\'nom\': u\'Commission de la d\\xe9fense nationale et des forces arm\\xe9es\', u\'qualite\': u\'Membre\'}], u\'depute_contacts\': [{u\'lien\': u\'mailto:anissa.khedher@assemblee-nationale.fr\', u\'type\': u\'mail\'}], \'depute_csp\': u\'Cadres et professions intellectuelles sup\\xe9rieures\', u\'depute_dateelec\': u\'18/06/2017\', ...}, {u\'depute_actif\': True, \'depute_age\': 34, u\'depute_autresmandats\': [], u\'depute_circo\': u\'3\', \'depute_classeage\': \'30-40 ans\', u\'depute_collaborateurs\': [u\'M. Lionel Bianquis\', u\'M. Philippe Cheron\', u\'Mme Nazanin Mohammadzadeh Babr\'], u\'depute_commissions\': [{u\'id\': u\'PO59051\', u\'lien\': u\'http://www2.assemblee-nationale.fr/instances/fiche/OMC_PO59051\', u\'nom\': u"Commission des lois constitutionnelles, de la ...dministration g\\xe9n\\xe9rale de la R\\xe9publique", u\'qualite\': u\'Membre\'}], u\'depute_contacts\': [{u\'lien\': u\'mailto:coralie.dubost@assemblee-nationale.fr\', u\'type\': u\'mail\'}, {u\'lien\': u\'mailto:coralie.dubost@en-marche.fr\', u\'type\': u\'mail\'}], \'depute_csp\': u\'Cadres et professions intellectuelles sup\\xe9rieures\', u\'depute_dateelec\': u\'18/06/2017\', ...}, {u\'depute_actif\': True, \'depute_age\': 56, u\'depute_autresmandats\': [u\'Conseill\\xe8re\\xa0de Paris, Paris\', u\'Membre du Conseil municipal de Paris 13\\xe8me Arrondissement \'], u\'depute_circo\': u\'10\', \'depute_classeage\': \'50-60 ans\', u\'depute_collaborateurs\': [u\'M. Benjamin Weinberger\'], u\'depute_commissions\': [{u\'id\': u\'PO419604\', u\'lien\': u\'http://www2.assemblee-nationale.fr/instances/fiche/OMC_PO419604\', u\'nom\': u"Commission des affaires culturelles et de l\'\\xe9ducation", u\'qualite\': u\'Membre\'}], u\'depute_contacts\': [{u\'lien\': u\'mailto:anne-christine.lang@assemblee-nationale.fr\', u\'type\': u\'mail\'}, {u\'lien\': u\'mailto:anne-christine.lang@paris.fr\', u\'type\': u\'mail\'}, {u\'lien\': u\'https://fr-fr.facebook.com/ACLang13/\', u\'type\': u\'facebook\'}, {u\'lien\': u\'https://twitter.com/@AChristine_Lang/\', u\'type\': u\'twitter\'}], \'depute_csp\': u\'Cadres et professions intellectuelles sup\\xe9rieures\', u\'depute_dateelec\': u\'18/06/2017\', ...}, {u\'depute_actif\': True, \'depute_age\': 61, u\'depute_autresmandats\': [u\'Membre du Conseil municipal de Chantilly\', u"Membre\\xa0de la Communaut\\xe9 de communes de l\'Aire Cantilienne (CCAC)"], u\'depute_circo\': u\'4\', \'depute_classeage\': \'60-70 ans\', u\'depute_collaborateurs\': [u\'Mme Kathleen Andr\\xe9\', u\'Mme Chlo\\xe9 Longuet\', u\'Mme Mano\\xeblle Martin\', u\'M. Gr\\xe9goire du Guerny\'], u\'depute_commissions\': [{u\'id\': u\'PO59048\', u\'lien\': u\'http://www2.assemblee-nationale.fr/instances/fiche/OMC_PO59048\', u\'nom\': u"Commission des finances, de l\'\\xe9conomie g\\xe9n\\xe9rale et du contr\\xf4le budg\\xe9taire", u\'qualite\': u\'Pr\\xe9sident\'}], u\'depute_contacts\': [{u\'lien\': u\'mailto:eric.woerth@assemblee-nationale.fr\', u\'type\': u\'mail\'}, {u\'lien\': u\'mailto:maire@ville-chantilly.fr\', u\'type\': u\'mail\'}, {u\'lien\': u\'mailto:eric.woerth@orange.fr\', u\'type\': u\'mail\'}, {u\'lien\': u\'https://fr-fr.facebook.com/ewoerth/\', u\'type\': u\'facebook\'}, {u\'lien\': u\'https://twitter.com/@ericwoerth/\', u\'type\': u\'twitter\'}], \'depute_csp\': u\'Cadres et professions intellectuelles sup\\xe9rieures\', u\'depute_dateelec\': u\'18/06/2017\', ...}, {u\'depute_actif\': True, \'depute_age\': 62, u\'depute_autresmandats\': [], u\'depute_circo\': u\'3\', \'depute_classeage\': \'60-70 ans\', u\'depute_collaborateurs\': [u\'M. S\\xe9lim Denoyelle\', u\'M. Valentin Mugni\\xe9\'], u\'depute_commissions\': [{u\'id\': u\'PO419610\', u\'lien\': u\'http://www2.assemblee-nationale.fr/instances/fiche/OMC_PO419610\', u\'nom\': u\'Commission des affaires \\xe9conomiques\', u\'qualite\': u\'Membre\'}, {u\'id\': u\'PO415287\', u\'lien\': u\'http://www2.assemblee-nationale.fr/instances/fiche/OMC_PO415287\', u\'nom\': u\'Commission des affaires europ\\xe9ennes\', u\'qualite\': u\'Membre\'}], u\'depute_contacts\': [{u\'lien\': u\'mailto:christine.hennion@assemblee-nationale.fr\', u\'type\': u\'mail\'}, {u\'lien\': u\'https://twitter.com/@Ch_Hennion/\', u\'type\': u\'twitter\'}], \'depute_csp\': u\'Cadres et professions intellectuelles sup\\xe9rieures\', u\'depute_dateelec\': u\'18/06/2017\', ...}, {u\'depute_actif\': True, \'depute_age\': 71, u\'depute_autresmandats\': [u\'Membre du Conseil municipal de Lyon 8\\xe8me Arrondissement\', u\'Membre du Conseil municipal de Lyon\'], u\'depute_circo\': u\'3\', \'depute_classeage\': \'70-80 ans\', u\'depute_collaborateurs\': [u\'Mme Nathalie Robert\', u\'Mme Sarah Peillon\'], u\'depute_commissions\': [{u\'id\': u\'PO420120\', u\'lien\': u\'http://www2.assemblee-nationale.fr/instances/fiche/OMC_PO420120\', u\'nom\': u\'Commission des affaires sociales\', u\'qualite\': u\'Vice-pr\\xe9sident\'}], u\'depute_contacts\': [{u\'lien\': u\'mailto:jean-louis.touraine@assemblee-nationale.fr\', u\'type\': u\'mail\'}, {u\'lien\': u\'mailto:jl.touraine@laposte.net\', u\'type\': u\'mail\'}, {u\'lien\': u\'https://fr-fr.facebook.com/jeanlouis.touraine/\', u\'type\': u\'facebook\'}], \'depute_csp\': u\'Cadres et professions intellectuelles sup\\xe9rieures\', u\'depute_dateelec\': u\'18/06/2017\', ...}, {u\'depute_actif\': True, \'depute_age\': 54, u\'depute_autresmandats\': [u\'Membre du conseil r\\xe9gional\\xa0(Auvergne-Rh\\xf4ne-Alpes)\'], u\'depute_circo\': u\'1\', \'depute_classeage\': \'50-60 ans\', u\'depute_collaborateurs\': [u\'M. Pierre Lurin\', u\'Mme Nathalie Brochand\', u\'Mme H\\xe9l\\xe8ne Marechal\'], u\'depute_commissions\': [{u\'id\': u\'PO59051\', u\'lien\': u\'http://www2.assemblee-nationale.fr/instances/fiche/OMC_PO59051\', u\'nom\': u"Commission des lois constitutionnelles, de la ...dministration g\\xe9n\\xe9rale de la R\\xe9publique", u\'qualite\': u\'Secr\\xe9taire\'}], u\'depute_contacts\': [{u\'lien\': u\'mailto:xavier.breton@assemblee-nationale.fr\', u\'type\': u\'mail\'}, {u\'lien\': u\'mailto:contact@xavierbreton.fr\', u\'type\': u\'mail\'}, {u\'lien\': u\'https://fr-fr.facebook.com/xavierbreton01/\', u\'type\': u\'facebook\'}, {u\'lien\': u\'https://twitter.com/@bretonxavier/\', u\'type\': u\'twitter\'}], \'depute_csp\': u\'Cadres et professions intellectuelles sup\\xe9rieures\', u\'depute_dateelec\': u\'18/06/2017\', ...}, {u\'depute_actif\': True, \'depute_age\': 54, u\'depute_autresmandats\': [u\'Maire\\xa0de Vittel, Vosges\', u\'Pr\\xe9sident\\xa0de la communaut\\xe9 de communes Vittel Contrex\\xe9ville Terre d\\u2019Eau\'], u\'depute_circo\': u\'4\', \'depute_classeage\': \'50-60 ans\', u\'depute_collaborateurs\': [u\'Mme \\xc9velyne Pathouot\'], u\'depute_commissions\': [{u\'id\': u\'PO419604\', u\'lien\': u\'http://www2.assemblee-nationale.fr/instances/fiche/OMC_PO419604\', u\'nom\': u"Commission des affaires culturelles et de l\'\\xe9ducation", u\'qualite\': u\'Membre\'}], u\'depute_contacts\': [{u\'lien\': u\'mailto:jean-jacques.gaultier@assemblee-nationale.fr\', u\'type\': u\'mail\'}, {u\'lien\': u\'mailto:jjgaultier.depute@wanadoo.fr\', u\'type\': u\'mail\'}], \'depute_csp\': u\'Cadres et professions intellectuelles sup\\xe9rieures\', u\'depute_dateelec\': u\'18/06/2017\', ...}, {u\'depute_actif\': True, \'depute_age\': 56, u\'depute_autresmandats\': [u\'Membre du Conseil municipal de Malemort-sur-Corr\\xe8ze\', u"Membre\\xa0de la communaut\\xe9 d\'agglom\\xe9ration du Bassin de Brive"], u\'depute_circo\': u\'2\', \'depute_classeage\': \'50-60 ans\', u\'depute_collaborateurs\': [u\'M. Eddie Marcos\', u\'M. Julien Bounie\'], u\'depute_commissions\': [{u\'id\': u\'PO419604\', u\'lien\': u\'http://www2.assemblee-nationale.fr/instances/fiche/OMC_PO419604\', u\'nom\': u"Commission des affaires culturelles et de l\'\\xe9ducation", u\'qualite\': u\'Membre\'}], u\'depute_contacts\': [{u\'lien\': u\'mailto:frederique.meunier@assemblee-nationale.fr\', u\'type\': u\'mail\'}], \'depute_csp\': u\'Cadres et professions intellectuelles sup\\xe9rieures\', u\'depute_dateelec\': u\'18/06/2017\', ...}, {u\'depute_actif\': True, \'depute_age\': 52, u\'depute_autresmandats\': [u\'Maire\\xa0de Sausset-les-Pins, Bouches-du-Rh\\xf4ne\', u"Membre\\xa0de la communaut\\xe9 d\'agglom\\xe9ration du Pays-d\'Aix-en-Provence"], u\'depute_circo\': u\'12\', \'depute_classeage\': \'50-60 ans\', u\'depute_collaborateurs\': [u\'M. Maxime Torrente\'], u\'depute_commissions\': [{u\'id\': u\'PO59051\', u\'lien\': u\'http://www2.assemblee-nationale.fr/instances/fiche/OMC_PO59051\', u\'nom\': u"Commission des lois constitutionnelles, de la ...dministration g\\xe9n\\xe9rale de la R\\xe9publique", u\'qualite\': u\'Membre\'}, {u\'id\': u\'PO271850\', u\'lien\': u\'http://www2.assemblee-nationale.fr/instances/fiche/OMC_PO271850\', u\'nom\': u"Commission charg\\xe9e de l\'application de l\'article 26 de la Constitution", u\'qualite\': u\'Membre suppl\\xe9ant\'}], u\'depute_contacts\': [{u\'lien\': u\'mailto:eric.diard@assemblee-nationale.fr\', u\'type\': u\'mail\'}, {u\'lien\': u\'mailto:ericdiard@yahoo.fr\', u\'type\': u\'mail\'}, {u\'lien\': u\'https://fr-fr.facebook.com/eric.diard.3/\', u\'type\': u\'facebook\'}, {u\'lien\': u\'https://twitter.com/@EricDiardDepute/\', u\'type\': u\'twitter\'}], \'depute_csp\': u\'Cadres et professions intellectuelles sup\\xe9rieures\', u\'depute_dateelec\': u\'18/06/2017\', ...}, {u\'depute_actif\': True, \'depute_age\': 35, u\'depute_autresmandats\': [], u\'depute_circo\': u\'3\', \'depute_classeage\': \'30-40 ans\', u\'depute_collaborateurs\': [u\'M. Maurice Houzard\', u\'Mme St\\xe9phanie Davau\'], u\'depute_commissions\': [{u\'id\': u\'PO419865\', u\'lien\': u\'http://www2.assemblee-nationale.fr/instances/fiche/OMC_PO419865\', u\'nom\': u"Commission du d\\xe9veloppement durable et de l\'am\\xe9nagement du territoire", u\'qualite\': u\'Membre\'}], u\'depute_contacts\': [{u\'lien\': u\'mailto:Adrien.Morenas@assemblee-nationale.fr\', u\'type\': u\'mail\'}], \'depute_csp\': u\'Autres (y compris inconnu et sans profession d\\xe9clar\\xe9e)\', u\'depute_dateelec\': u\'18/06/2017\', ...}, {u\'depute_actif\': True, \'depute_age\': 35, u\'depute_autresmandats\': [], u\'depute_circo\': u\'2\', \'depute_classeage\': \'30-40 ans\', u\'depute_collaborateurs\': [u\'Mme Nad\\xe8ge Condat\', u\'M. Cyril Luche\', u\'M. Robin Troutot\', u\'M. Etienne Damprunt\'], u\'depute_commissions\': [{u\'id\': u\'PO420120\', u\'lien\': u\'http://www2.assemblee-nationale.fr/instances/fiche/OMC_PO420120\', u\'nom\': u\'Commission des affaires sociales\', u\'qualite\': u\'Membre\'}, {u\'id\': u\'PO271850\', u\'lien\': u\'http://www2.assemblee-nationale.fr/instances/fiche/OMC_PO271850\', u\'nom\': u"Commission charg\\xe9e de l\'application de l\'article 26 de la Constitution", u\'qualite\': u\'Membre titulaire\'}], u\'depute_contacts\': [{u\'lien\': u\'mailto:caroline.janvier@assemblee-nationale.fr\', u\'type\': u\'mail\'}, {u\'lien\': u\'mailto:caroline.janvier@en-marche.fr\', u\'type\': u\'mail\'}], \'depute_csp\': u\'Cadres et professions intellectuelles sup\\xe9rieures\', u\'depute_dateelec\': u\'18/06/2017\', ...}, {u\'depute_actif\': False, \'depute_age\': 35, u\'depute_autresmandats\': None, u\'depute_circo\': u\'3\', \'depute_classeage\': \'30-40 ans\', u\'depute_collaborateurs\': None, u\'depute_commissions\': None, u\'depute_contacts\': [], \'depute_csp\': u\'Cadres et professions intellectuelles sup\\xe9rieures\', u\'depute_dateelec\': None, ...}, {u\'depute_actif\': True, \'depute_age\': 57, u\'depute_autresmandats\': [u\'Membre du conseil d\\xe9partemental\\xa0(Sa\\xf4ne-et-Loire)\', u\'Maire\\xa0de Saint-Bonnet-de-Joux, Sa\\xf4ne-et-Loire\', u\'Vice-pr\\xe9sidente\\xa0de la communaut\\xe9 de communes du Grand Charolais\'], u\'depute_circo\': u\'2\', \'depute_classeage\': \'50-60 ans\', u\'depute_collaborateurs\': [u\'M. Emmanuel Rey\'], u\'depute_commissions\': [{u\'id\': u\'PO420120\', u\'lien\': u\'http://www2.assemblee-nationale.fr/instances/fiche/OMC_PO420120\', u\'nom\': u\'Commission des affaires sociales\', u\'qualite\': u\'Membre\'}], u\'depute_contacts\': [{u\'lien\': u\'mailto:josiane.corneloup@assemblee-nationale.fr\', u\'type\': u\'mail\'}], \'depute_csp\': u\'Cadres et professions intellectuelles sup\\xe9rieures\', u\'depute_dateelec\': u\'18/06/2017\', ...}, {u\'depute_actif\': True, \'depute_age\': 31, u\'depute_autresmandats\': [], u\'depute_circo\': u\'1\', \'depute_classeage\': \'30-40 ans\', u\'depute_collaborateurs\': [u\'Mme Elise Haffen\', u\'M. Fabien Buffeteau\'], u\'depute_commissions\': [{u\'id\': u\'PO420120\', u\'lien\': u\'http://www2.assemblee-nationale.fr/instances/fiche/OMC_PO420120\', u\'nom\': u\'Commission des affaires sociales\', u\'qualite\': u\'Membre\'}], u\'depute_contacts\': [{u\'lien\': u\'mailto:thomas.mesnier@assemblee-nationale.fr\', u\'type\': u\'mail\'}, {u\'lien\': u\'https://fr-fr.facebook.com/thomasmesnier.fr/\', u\'type\': u\'facebook\'}, {u\'lien\': u\'https://twitter.com/@MESNIERThomas/\', u\'type\': u\'twitter\'}], \'depute_csp\': u\'Cadres et professions intellectuelles sup\\xe9rieures\', u\'depute_dateelec\': u\'18/06/2017\', ...}, {u\'depute_actif\': True, \'depute_age\': 59, u\'depute_autresmandats\': [u\'Membre du Conseil municipal de Montpellier\'], u\'depute_circo\': u\'9\', \'depute_classeage\': \'50-60 ans\', u\'depute_collaborateurs\': [u\'Mme Fadila Ichou\'], u\'depute_commissions\': [{u\'id\': u\'PO419604\', u\'lien\': u\'http://www2.assemblee-nationale.fr/instances/fiche/OMC_PO419604\', u\'nom\': u"Commission des affaires culturelles et de l\'\\xe9ducation", u\'qualite\': u\'Membre\'}], u\'depute_contacts\': [{u\'lien\': u\'mailto:patrick.vignal@assemblee-nationale.fr\', u\'type\': u\'mail\'}, {u\'lien\': u\'mailto:vignalpatrick@gmail.com\', u\'type\': u\'mail\'}], \'depute_csp\': u"Artisans, commer\\xe7ants et chefs d\'entreprise", u\'depute_dateelec\': u\'18/06/2017\', ...}, {u\'depute_actif\': True, \'depute_age\': 34, u\'depute_autresmandats\': [], u\'depute_circo\': u\'1\', \'depute_classeage\': \'30-40 ans\', u\'depute_collaborateurs\': [u\'Mme Axelle Corosine\', u\'Mme Anne-Pauline Butault\'], u\'depute_commissions\': [{u\'id\': u\'PO420120\', u\'lien\': u\'http://www2.assemblee-nationale.fr/instances/fiche/OMC_PO420120\', u\'nom\': u\'Commission des affaires sociales\', u\'qualite\': u\'Membre\'}, {u\'id\': u\'PO415287\', u\'lien\': u\'http://www2.assemblee-nationale.fr/instances/fiche/OMC_PO415287\', u\'nom\': u\'Commission des affaires europ\\xe9ennes\', u\'qualite\': u\'Membre\'}], u\'depute_contacts\': [{u\'lien\': u\'mailto:carole.grandjean@assemblee-nationale.fr\', u\'type\': u\'mail\'}, {u\'lien\': u\'mailto:carole.grandjean@en-marche.fr\', u\'type\': u\'mail\'}, {u\'lien\': u\'https://fr-fr.facebook.com/GrandjeanCarole/\', u\'type\': u\'facebook\'}, {u\'lien\': u\'https://twitter.com/@caroleem54/\', u\'type\': u\'twitter\'}], \'depute_csp\': u\'Cadres et professions intellectuelles sup\\xe9rieures\', u\'depute_dateelec\': u\'18/06/2017\', ...}, {u\'depute_actif\': True, \'depute_age\': 51, u\'depute_autresmandats\': [u"Membre du Conseil municipal d\'Autun", u\'Membre\\xa0de la communaut\\xe9 de communes du Grand Autunois Morvan\'], u\'depute_circo\': u\'3\', \'depute_classeage\': \'50-60 ans\', u\'depute_collaborateurs\': [u\'Mme Marine Mangione\', u\'Mme Catherine Pannetier\', u\'M. Benjamin Gauthey\'], u\'depute_commissions\': [{u\'id\': u\'PO59051\', u\'lien\': u\'http://www2.assemblee-nationale.fr/instances/fiche/OMC_PO59051\', u\'nom\': u"Commission des lois constitutionnelles, de la ...dministration g\\xe9n\\xe9rale de la R\\xe9publique", u\'qualite\': u\'Membre\'}], u\'depute_contacts\': [{u\'lien\': u\'mailto:remy.rebeyrotte@assemblee-nationale.fr\', u\'type\': u\'mail\'}], \'depute_csp\': u\'Cadres et professions intellectuelles sup\\xe9rieures\', u\'depute_dateelec\': u\'18/06/2017\', ...}, {u\'depute_actif\': True, \'depute_age\': 47, u\'depute_autresmandats\': [u\'Membre du Conseil municipal de Laxou\', u\'Membre\\xa0de la M\\xe9tropole du Grand Nancy\'], u\'depute_circo\': u\'2\', \'depute_classeage\': \'40-50 ans\', u\'depute_collaborateurs\': [u\'Mme Nathalie Greffin\'], u\'depute_commissions\': [{u\'id\': u\'PO419604\', u\'lien\': u\'http://www2.assemblee-nationale.fr/instances/fiche/OMC_PO419604\', u\'nom\': u"Commission des affaires culturelles et de l\'\\xe9ducation", u\'qualite\': u\'Membre\'}], u\'depute_contacts\': [{u\'lien\': u\'mailto:laurent.garcia@assemblee-nationale.fr\', u\'type\': u\'mail\'}, {u\'lien\': u\'mailto:laurent.garcia@laxou.fr\', u\'type\': u\'mail\'}, {u\'lien\': u\'https://fr-fr.facebook.com/Laurent-Garcia-2017-1159962430725786//\', u\'type\': u\'facebook\'}, {u\'lien\': u\'https://twitter.com/@GarciaLaxou/\', u\'type\': u\'twitter\'}], \'depute_csp\': u\'Cadres et professions intellectuelles sup\\xe9rieures\', u\'depute_dateelec\': u\'18/06/2017\', ...}, ...]'
p127
sS'd'
S'{u\'depute_actif\': True, \'depute_age\': 64, u\'depute_autresmandats\': [], u\'depute_circo\': u\'1\', \'depute_classeage\': \'60-70 ans\', u\'depute_collaborateurs\': [u\'M. Fran\\xe7ois Matton\', u\'Mme Mireille Charbonnier\'], u\'depute_commissions\': [{u\'id\': u\'PO59048\', u\'lien\': u\'http://www2.assemblee-nationale.fr/instances/fiche/OMC_PO59048\', u\'nom\': u"Commission des finances, de l\'\\xe9conomie g\\xe9n\\xe9rale et du contr\\xf4le budg\\xe9taire", u\'qualite\': u\'Membre\'}], u\'depute_contacts\': [{u\'lien\': u\'mailto:jacques.savatier@assemblee-nationale.fr\', u\'type\': u\'mail\'}, {u\'lien\': u\'mailto:savatier.jacques@laposte.net\', u\'type\': u\'mail\'}], \'depute_csp\': u\'Retrait\\xe9s\', u\'depute_dateelec\': u\'18/06/2017\', ...}'
p128
sS'global mdb'
p129
S"Database(MongoClient(host=['localhost:27017'], d...s=dict, tz_aware=False, connect=True), u'obsass')"
p130
sS'mdb.deputes'
p131
S"Collection(Database(MongoClient(host=['localhost...are=False, connect=True), u'obsass'), u'deputes')"
p132
sS'mdb.deputes.find'
p133
S"<bound method Collection.find of Collection(Data...re=False, connect=True), u'obsass'), u'deputes')>"
p134
sS'builtindict'
p135
S"<type 'dict'>"
p136
ssg72
I70
sg73
(dp137
I65
S''
sI66
S"        d['depute_csp'] = csp"
p138
sI67
S"        mdb.deputes.update_one({'depute_uid': d['depute_uid']}, {'$set': d}, upsert = True)"
p139
sI68
S''
sI69
S"    groupes = getJson('groupes')"
p140
sI70
S"    deputes = dict((d['depute_uid'],d['actif']) for d in mdb.deputes.find())"
p141
sI71
S'    for g in groupes:'
p142
sI72
S"        g['groupe_membres'] = [ dict(qualite=m['qualite'],uid=m['uid'],actif = deputes[m['uid']]) ]"
p143
sI73
S"        g['groupe_nbmembres'] = len([ m for m in g['groupe_membres'] if m['actif']])"
p144
sI74
S"        mdb.groupes.update_one({'groupe_uid':g['groupe_uid']},{'$set':g}, upsert= True)"
p145
ssg85
S'()'
p146
sg87
S'updateAssemblee'
p147
sa(dp148
g64
S'/home/www-data/web2py/applications/obsas_dev/controllers/maintenance.py'
p149
sg66
(dp150
S'deputes'
p151
g108
sS'd'
S"{u'_id': ObjectId('59af2c7d6d8669a204526fe6'), u'depute_actif': True, u'depute_age': 61, u'depute_autresmandats': [u'Membre du Conseil municipal de Deshaies'], u'depute_circo': u'3', u'depute_classeage': u'60-70 ans', u'depute_collaborateurs': [u'M. Danick Lator', u'Mme Laurence De Saint-Sernin'], u'depute_commissions': [{u'id': u'PO419610', u'lien': u'http://www2.assemblee-nationale.fr/instances/fiche/OMC_PO419610', u'nom': u'Commission des affaires \\xe9conomiques', u'qualite': u'Membre'}], u'depute_contacts': [{u'lien': u'mailto:max.mathiasin@assemblee-nationale.fr', u'type': u'mail'}, {u'lien': u'mailto:max.mathiasin@orange.fr', u'type': u'mail'}], u'depute_csp': u'Cadres et professions intellectuelles sup\\xe9rieures', ...}"
p152
sS'global mdb'
p153
S"Database(MongoClient(host=['localhost:27017'], d...s=dict, tz_aware=False, connect=True), u'obsass')"
p154
sS'mdb.deputes'
p155
S"Collection(Database(MongoClient(host=['localhost...are=False, connect=True), u'obsass'), u'deputes')"
p156
sS'mdb.deputes.find'
p157
S"<bound method Collection.find of Collection(Data...re=False, connect=True), u'obsass'), u'deputes')>"
p158
sS'builtindict'
p159
S"<type 'dict'>"
p160
ssg72
I70
sg73
(dp161
I65
S''
sI66
S"        d['depute_csp'] = csp"
p162
sI67
S"        mdb.deputes.update_one({'depute_uid': d['depute_uid']}, {'$set': d}, upsert = True)"
p163
sI68
S''
sI69
S"    groupes = getJson('groupes')"
p164
sI70
S"    deputes = dict((d['depute_uid'],d['actif']) for d in mdb.deputes.find())"
p165
sI71
S'    for g in groupes:'
p166
sI72
S"        g['groupe_membres'] = [ dict(qualite=m['qualite'],uid=m['uid'],actif = deputes[m['uid']]) ]"
p167
sI73
S"        g['groupe_nbmembres'] = len([ m for m in g['groupe_membres'] if m['actif']])"
p168
sI74
S"        mdb.groupes.update_one({'groupe_uid':g['groupe_uid']},{'$set':g}, upsert= True)"
p169
ssg85
S"((d={u'_id': ObjectId('59af2c7d6d8669a204526fe6'), u'depute_actif': True, u'depute_age': 61, u'depute_autresmandats': [u'Membre du Conseil municipal de Deshaies'], u'depute_circo': u'3', u'depute_classeage': u'60-70 ans', u'depute_collaborateurs': [u'M. Danick Lator', u'Mme Laurence De Saint-Sernin'], u'depute_commissions': [{u'id': u'PO419610', u'lien': u'http://www2.assemblee-nationale.fr/instances/fiche/OMC_PO419610', u'nom': u'Commission des affaires \\xe9conomiques', u'qualite': u'Membre'}], u'depute_contacts': [{u'lien': u'mailto:max.mathiasin@assemblee-nationale.fr', u'type': u'mail'}, {u'lien': u'mailto:max.mathiasin@orange.fr', u'type': u'mail'}], u'depute_csp': u'Cadres et professions intellectuelles sup\\xe9rieures', ...},))"
p170
sg87
S'<genexpr>'
p171
sasS'pyver'
p172
S'Python 2.7.12: /home/www-data/web2py/applications/obsas_dev/.pyenv/bin/python (prefix: /home/www-data/web2py/applications/obsas_dev/.pyenv)'
p173
sS'session'
p174
g59
(S's\x1a\x00\x00\x00<div><table></table></div>'
tRp175
sS'etype'
p176
S"<type 'exceptions.KeyError'>"
p177
sS'date'
p178
S'Wed Sep  6 01:08:05 2017'
p179
sS'response'
p180
g59
(S'sr>\x00\x00<div><table><tr><td style="font-weight:bold;vertical-align:top;">body</td><td style="vertical-align:top;">:</td><td><div>&lt;cStringIO.StringO object at 0x7f6e2a8e27a0&gt;</div></td></tr><tr><td style="font-weight:bold;vertical-align:top;">cookies</td><td style="vertical-align:top;">:</td><td><div><table><tr><td style="font-weight:bold;vertical-align:top;">session_id_obsas_dev</td><td style="vertical-align:top;">:</td><td><div>83.203.51.117-b0560360-e710-45bd-9a89-5fddf9bcdb87<table><tr><td style="font-weight:bold;vertical-align:top;">comment</td><td style="vertical-align:top;">:</td><td><div></div></td></tr><tr><td style="font-weight:bold;vertical-align:top;">domain</td><td style="vertical-align:top;">:</td><td><div></div></td></tr><tr><td style="font-weight:bold;vertical-align:top;">expires</td><td style="vertical-align:top;">:</td><td><div></div></td></tr><tr><td style="font-weight:bold;vertical-align:top;">httponly</td><td style="vertical-align:top;">:</td><td><div></div></td></tr><tr><td style="font-weight:bold;vertical-align:top;">max-age</td><td style="vertical-align:top;">:</td><td><div></div></td></tr><tr><td style="font-weight:bold;vertical-align:top;">path</td><td style="vertical-align:top;">:</td><td><div>/</div></td></tr><tr><td style="font-weight:bold;vertical-align:top;">secure</td><td style="vertical-align:top;">:</td><td><div></div></td></tr><tr><td style="font-weight:bold;vertical-align:top;">version</td><td style="vertical-align:top;">:</td><td><div></div></td></tr></table></div></td></tr></table></div></td></tr><tr><td style="font-weight:bold;vertical-align:top;">delimiters</td><td style="vertical-align:top;">:</td><td><div><table><tr><td><div>{{</div></td></tr><tr><td><div>}}</div></td></tr></table></div></td></tr><tr><td style="font-weight:bold;vertical-align:top;">files</td><td style="vertical-align:top;">:</td><td><div><table></table></div></td></tr><tr><td style="font-weight:bold;vertical-align:top;">flash</td><td style="vertical-align:top;">:</td><td><div></div></td></tr><tr><td style="font-weight:bold;vertical-align:top;">form_label_separator</td><td style="vertical-align:top;">:</td><td><div></div></td></tr><tr><td style="font-weight:bold;vertical-align:top;">formstyle</td><td style="vertical-align:top;">:</td><td><div>bootstrap3_inline</div></td></tr><tr><td style="font-weight:bold;vertical-align:top;">generic_patterns</td><td style="vertical-align:top;">:</td><td><div><table></table></div></td></tr><tr><td style="font-weight:bold;vertical-align:top;">google_analytics_id</td><td style="vertical-align:top;">:</td><td><div>None</div></td></tr><tr><td style="font-weight:bold;vertical-align:top;">headers</td><td style="vertical-align:top;">:</td><td><div><table><tr><td style="font-weight:bold;vertical-align:top;">X-Powered-By</td><td style="vertical-align:top;">:</td><td><div>web2py</div></td></tr></table></div></td></tr><tr><td style="font-weight:bold;vertical-align:top;">logo</td><td style="vertical-align:top;">:</td><td><div><a class="navbar-brand" href="http://www.web2py.com/" id="web2py-logo"><b>web<span>2</span>py</b>&trade;&nbsp;</a></div></td></tr><tr><td style="font-weight:bold;vertical-align:top;">menu</td><td style="vertical-align:top;">:</td><td><div><table><tr><td><div><table><tr><td><div>Accueil</div></td></tr><tr><td><div>False</div></td></tr><tr><td><div>/obsas_dev</div></td></tr><tr><td><div><table></table></div></td></tr></table></div></td></tr><tr><td><div><table><tr><td><div>Mes sites</div></td></tr><tr><td><div>False</div></td></tr><tr><td><div>/admin/site</div></td></tr></table></div></td></tr><tr><td><div><table><tr><td><div>Cette Appli</div></td></tr><tr><td><div>False</div></td></tr><tr><td><div>#</div></td></tr><tr><td><div><table><tr><td><div><table><tr><td><div>Design</div></td></tr><tr><td><div>False</div></td></tr><tr><td><div>/admin/design/obsas_dev</div></td></tr></table></div></td></tr><tr><td><div><li class="divider"></li></div></td></tr><tr><td><div><table><tr><td><div>Contr\xc3\xb4leur</div></td></tr><tr><td><div>False</div></td></tr><tr><td><div>/admin/edit/obsas_dev/controllers/maintenance.py</div></td></tr></table></div></td></tr><tr><td><div><table><tr><td><div>Pr\xc3\xa9sentation</div></td></tr><tr><td><div>False</div></td></tr><tr><td><div>/admin/edit/obsas_dev/views/maintenance/updateAssemblee.html</div></td></tr></table></div></td></tr><tr><td><div><table><tr><td><div>Mod\xc3\xa8le BD</div></td></tr><tr><td><div>False</div></td></tr><tr><td><div>/admin/edit/obsas_dev/models/db.py</div></td></tr></table></div></td></tr><tr><td><div><table><tr><td><div>Menu mod\xc3\xa8le</div></td></tr><tr><td><div>False</div></td></tr><tr><td><div>/admin/edit/obsas_dev/models/menu.py</div></td></tr></table></div></td></tr><tr><td><div><table><tr><td><div>Config.ini</div></td></tr><tr><td><div>False</div></td></tr><tr><td><div>/admin/edit/obsas_dev/private/appconfig.ini</div></td></tr></table></div></td></tr><tr><td><div><table><tr><td><div>Mise en page</div></td></tr><tr><td><div>False</div></td></tr><tr><td><div>/admin/edit/obsas_dev/views/layout.html</div></td></tr></table></div></td></tr><tr><td><div><table><tr><td><div>Feuille de style</div></td></tr><tr><td><div>False</div></td></tr><tr><td><div>/admin/edit/obsas_dev/static/css/web2py-bootstrap3.css</div></td></tr></table></div></td></tr><tr><td><div><table><tr><td><div>base de donn\xc3\xa9es</div></td></tr><tr><td><div>False</div></td></tr><tr><td><div>/obsas_dev/appadmin</div></td></tr></table></div></td></tr><tr><td><div><table><tr><td><div>Erreurs</div></td></tr><tr><td><div>False</div></td></tr><tr><td><div>/admin/errors/obsas_dev</div></td></tr></table></div></td></tr><tr><td><div><table><tr><td><div>\xc3\x80 propos</div></td></tr><tr><td><div>False</div></td></tr><tr><td><div>/admin/about/obsas_dev</div></td></tr></table></div></td></tr></table></div></td></tr></table></div></td></tr><tr><td><div><table><tr><td><div>web2py.com</div></td></tr><tr><td><div>False</div></td></tr><tr><td><div>#</div></td></tr><tr><td><div><table><tr><td><div><table><tr><td><div>T\xc3\xa9l\xc3\xa9chargement</div></td></tr><tr><td><div>False</div></td></tr><tr><td><div>http://www.web2py.com/examples/default/download</div></td></tr></table></div></td></tr><tr><td><div><table><tr><td><div>Soutien</div></td></tr><tr><td><div>False</div></td></tr><tr><td><div>http://www.web2py.com/examples/default/support</div></td></tr></table></div></td></tr><tr><td><div><table><tr><td><div>D\xc3\xa9mo</div></td></tr><tr><td><div>False</div></td></tr><tr><td><div>http://web2py.com/demo_admin</div></td></tr></table></div></td></tr><tr><td><div><table><tr><td><div>Exemples Rapides</div></td></tr><tr><td><div>False</div></td></tr><tr><td><div>http://web2py.com/examples/default/examples</div></td></tr></table></div></td></tr><tr><td><div><table><tr><td><div>FAQ</div></td></tr><tr><td><div>False</div></td></tr><tr><td><div>http://web2py.com/AlterEgo</div></td></tr></table></div></td></tr><tr><td><div><table><tr><td><div>Vid\xc3\xa9os</div></td></tr><tr><td><div>False</div></td></tr><tr><td><div>http://www.web2py.com/examples/default/videos/</div></td></tr></table></div></td></tr><tr><td><div><table><tr><td><div>Applications gratuites</div></td></tr><tr><td><div>False</div></td></tr><tr><td><div>http://web2py.com/appliances</div></td></tr></table></div></td></tr><tr><td><div><table><tr><td><div>Plugiciels</div></td></tr><tr><td><div>False</div></td></tr><tr><td><div>http://web2py.com/plugins</div></td></tr></table></div></td></tr><tr><td><div><table><tr><td><div>Recettes</div></td></tr><tr><td><div>False</div></td></tr><tr><td><div>http://web2pyslices.com/</div></td></tr></table></div></td></tr></table></div></td></tr></table></div></td></tr><tr><td><div><table><tr><td><div>Documentation</div></td></tr><tr><td><div>False</div></td></tr><tr><td><div>#</div></td></tr><tr><td><div><table><tr><td><div><table><tr><td><div>Online book</div></td></tr><tr><td><div>False</div></td></tr><tr><td><div>http://www.web2py.com/book</div></td></tr></table></div></td></tr><tr><td><div><li class="divider"></li></div></td></tr><tr><td><div><table><tr><td><div>Pr\xc3\xa9face</div></td></tr><tr><td><div>False</div></td></tr><tr><td><div>http://www.web2py.com/book/default/chapter/00</div></td></tr></table></div></td></tr><tr><td><div><table><tr><td><div>Pr\xc3\xa9sentation</div></td></tr><tr><td><div>False</div></td></tr><tr><td><div>http://www.web2py.com/book/default/chapter/01</div></td></tr></table></div></td></tr><tr><td><div><table><tr><td><div>Python</div></td></tr><tr><td><div>False</div></td></tr><tr><td><div>http://www.web2py.com/book/default/chapter/02</div></td></tr></table></div></td></tr><tr><td><div><table><tr><td><div>Pr\xc3\xa9sentation</div></td></tr><tr><td><div>False</div></td></tr><tr><td><div>http://www.web2py.com/book/default/chapter/03</div></td></tr></table></div></td></tr><tr><td><div><table><tr><td><div>Le noyau</div></td></tr><tr><td><div>False</div></td></tr><tr><td><div>http://www.web2py.com/book/default/chapter/04</div></td></tr></table></div></td></tr><tr><td><div><table><tr><td><div>Les Vues</div></td></tr><tr><td><div>False</div></td></tr><tr><td><div>http://www.web2py.com/book/default/chapter/05</div></td></tr></table></div></td></tr><tr><td><div><table><tr><td><div>base de donn\xc3\xa9es</div></td></tr><tr><td><div>False</div></td></tr><tr><td><div>http://www.web2py.com/book/default/chapter/06</div></td></tr></table></div></td></tr><tr><td><div><table><tr><td><div>Formulaires et Validateurs</div></td></tr><tr><td><div>False</div></td></tr><tr><td><div>http://www.web2py.com/book/default/chapter/07</div></td></tr></table></div></td></tr><tr><td><div><table><tr><td><div>Courriel et texto</div></td></tr><tr><td><div>False</div></td></tr><tr><td><div>http://www.web2py.com/book/default/chapter/08</div></td></tr></table></div></td></tr><tr><td><div><table><tr><td><div>Contr\xc3\xb4le d\'acc\xc3\xa8s</div></td></tr><tr><td><div>False</div></td></tr><tr><td><div>http://www.web2py.com/book/default/chapter/09</div></td></tr></table></div></td></tr><tr><td><div><table><tr><td><div>Services</div></td></tr><tr><td><div>False</div></td></tr><tr><td><div>http://www.web2py.com/book/default/chapter/10</div></td></tr></table></div></td></tr><tr><td><div><table><tr><td><div>Recettes Ajax</div></td></tr><tr><td><div>False</div></td></tr><tr><td><div>http://www.web2py.com/book/default/chapter/11</div></td></tr></table></div></td></tr><tr><td><div><table><tr><td><div>Composants et Plugiciels</div></td></tr><tr><td><div>False</div></td></tr><tr><td><div>http://www.web2py.com/book/default/chapter/12</div></td></tr></table></div></td></tr><tr><td><div><table><tr><td><div>Recettes de d\xc3\xa9ploiement</div></td></tr><tr><td><div>False</div></td></tr><tr><td><div>http://www.web2py.com/book/default/chapter/13</div></td></tr></table></div></td></tr><tr><td><div><table><tr><td><div>Autres recettes</div></td></tr><tr><td><div>False</div></td></tr><tr><td><div>http://www.web2py.com/book/default/chapter/14</div></td></tr></table></div></td></tr><tr><td><div><table><tr><td><div>Aider web2py</div></td></tr><tr><td><div>False</div></td></tr><tr><td><div>http://www.web2py.com/book/default/chapter/15</div></td></tr></table></div></td></tr><tr><td><div><table><tr><td><div>Buy web2py\'s book</div></td></tr><tr><td><div>False</div></td></tr><tr><td><div>http://stores.lulu.com/web2py</div></td></tr></table></div></td></tr></table></div></td></tr></table></div></td></tr><tr><td><div><table><tr><td><div>Communaut\xc3\xa9</div></td></tr><tr><td><div>False</div></td></tr><tr><td><div>None</div></td></tr><tr><td><div><table><tr><td><div><table><tr><td><div>Groupes</div></td></tr><tr><td><div>False</div></td></tr><tr><td><div>http://www.web2py.com/examples/default/usergroups</div></td></tr></table></div></td></tr><tr><td><div><table><tr><td><div>Twitter</div></td></tr><tr><td><div>False</div></td></tr><tr><td><div>http://twitter.com/web2py</div></td></tr></table></div></td></tr><tr><td><div><table><tr><td><div>Clavardage en direct</div></td></tr><tr><td><div>False</div></td></tr><tr><td><div>http://webchat.freenode.net/?channels=web2py</div></td></tr></table></div></td></tr></table></div></td></tr></table></div></td></tr></table></div></td></tr><tr><td style="font-weight:bold;vertical-align:top;">meta</td><td style="vertical-align:top;">:</td><td><div><table><tr><td style="font-weight:bold;vertical-align:top;">author</td><td style="vertical-align:top;">:</td><td><div>Your Name &lt;you@example.com&gt;</div></td></tr><tr><td style="font-weight:bold;vertical-align:top;">description</td><td style="vertical-align:top;">:</td><td><div>a cool new app</div></td></tr><tr><td style="font-weight:bold;vertical-align:top;">generator</td><td style="vertical-align:top;">:</td><td><div>Web2py Web Framework</div></td></tr><tr><td style="font-weight:bold;vertical-align:top;">keywords</td><td style="vertical-align:top;">:</td><td><div><table><tr><td><div>web2py</div></td></tr><tr><td><div>python</div></td></tr><tr><td><div>framework</div></td></tr></table></div></td></tr></table></div></td></tr><tr><td style="font-weight:bold;vertical-align:top;">models_to_run</td><td style="vertical-align:top;">:</td><td><div><table><tr><td><div>^\\w+\\.py$</div></td></tr><tr><td><div>^maintenance/\\w+\\.py$</div></td></tr><tr><td><div>^maintenance/updateAssemblee/\\w+\\.py$</div></td></tr></table></div></td></tr><tr><td style="font-weight:bold;vertical-align:top;">postprocessing</td><td style="vertical-align:top;">:</td><td><div><table></table></div></td></tr><tr><td style="font-weight:bold;vertical-align:top;">session_client</td><td style="vertical-align:top;">:</td><td><div>83.203.51.117</div></td></tr><tr><td style="font-weight:bold;vertical-align:top;">session_cookie_compression_level</td><td style="vertical-align:top;">:</td><td><div>None</div></td></tr><tr><td style="font-weight:bold;vertical-align:top;">session_cookie_expires</td><td style="vertical-align:top;">:</td><td><div>None</div></td></tr><tr><td style="font-weight:bold;vertical-align:top;">session_data_name</td><td style="vertical-align:top;">:</td><td><div>session_data_obsas_dev</div></td></tr><tr><td style="font-weight:bold;vertical-align:top;">session_file</td><td style="vertical-align:top;">:</td><td><div>None</div></td></tr><tr><td style="font-weight:bold;vertical-align:top;">session_filename</td><td style="vertical-align:top;">:</td><td><div>/home/www-data/web2py/applications/obsas_dev/sessions/83.203.51.117-b0560360-e710-45bd-9a89-5fddf9bcdb87</div></td></tr><tr><td style="font-weight:bold;vertical-align:top;">session_hash</td><td style="vertical-align:top;">:</td><td><div>c0762cbf4baf7f9af97c051e7fcb8083</div></td></tr><tr><td style="font-weight:bold;vertical-align:top;">session_id</td><td style="vertical-align:top;">:</td><td><div>83.203.51.117-b0560360-e710-45bd-9a89-5fddf9bcdb87</div></td></tr><tr><td style="font-weight:bold;vertical-align:top;">session_id_name</td><td style="vertical-align:top;">:</td><td><div>session_id_obsas_dev</div></td></tr><tr><td style="font-weight:bold;vertical-align:top;">session_masterapp</td><td style="vertical-align:top;">:</td><td><div>obsas_dev</div></td></tr><tr><td style="font-weight:bold;vertical-align:top;">session_new</td><td style="vertical-align:top;">:</td><td><div>True</div></td></tr><tr><td style="font-weight:bold;vertical-align:top;">session_storage_type</td><td style="vertical-align:top;">:</td><td><div>file</div></td></tr><tr><td style="font-weight:bold;vertical-align:top;">status</td><td style="vertical-align:top;">:</td><td><div>200</div></td></tr><tr><td style="font-weight:bold;vertical-align:top;">subtitle</td><td style="vertical-align:top;">:</td><td><div></div></td></tr><tr><td style="font-weight:bold;vertical-align:top;">title</td><td style="vertical-align:top;">:</td><td><div>Obsas Dev</div></td></tr><tr><td style="font-weight:bold;vertical-align:top;">view</td><td style="vertical-align:top;">:</td><td><div>maintenance/updateAssemblee.html</div></td></tr></table></div>'
tRp181
sS'locals'
p182
(dp183
S'.0'
p184
S'<pymongo.cursor.Cursor object>'
p185
sS'd'
S"{u'_id': ObjectId('59af2c7d6d8669a204526fe6'), u'depute_actif': True, u'depute_age': 61, u'depute_autresmandats': [u'Membre du Conseil municipal de Deshaies'], u'depute_circo': u'3', u'depute_classeage': u'60-70 ans', u'depute_collaborateurs': [u'M. Danick Lator', u'Mme Laurence De Saint-Sernin'], u'depute_commissions': [{u'id': u'PO419610', u'lien': u'http://www2.assemblee-nationale.fr/instances/fiche/OMC_PO419610', u'nom': u'Commission des affaires \\xe9conomiques', u'qualite': u'Membre'}], u'depute_contacts': [{u'lien': u'mailto:max.mathiasin@assemblee-nationale.fr', u'type': u'mail'}, {u'lien': u'mailto:max.mathiasin@orange.fr', u'type': u'mail'}], u'depute_csp': u'Cadres et professions intellectuelles sup\\xe9rieures', ...}"
p186
sssS'traceback'
p187
S'Traceback (most recent call last):\n  File "/home/www-data/web2py/gluon/restricted.py", line 219, in restricted\n    exec(ccode, environment)\n  File "/home/www-data/web2py/applications/obsas_dev/controllers/maintenance.py", line 258, in <module>\n  File "/home/www-data/web2py/gluon/globals.py", line 409, in <lambda>\n    self._caller = lambda f: f()\n  File "/home/www-data/web2py/applications/obsas_dev/controllers/maintenance.py", line 70, in updateAssemblee\n    deputes = dict((d[\'depute_uid\'],d[\'actif\']) for d in mdb.deputes.find())\n  File "/home/www-data/web2py/applications/obsas_dev/controllers/maintenance.py", line 70, in <genexpr>\n    deputes = dict((d[\'depute_uid\'],d[\'actif\']) for d in mdb.deputes.find())\nKeyError: \'actif\'\n'
p188
s.