(dp1
S'output'
p2
S'<class \'bson.errors.InvalidDocument\'> Cannot encode object: set([\'["PA605036", "PA719866", "PA720242", "PA719146", "PA722038", "PA721036", "PA718954", "PA605963", "PA724827", "PA720798", "PA720124", "PA721278", "PA606675", "PA721158", "PA719318", "PA719100", "PA720310", "PA722190", "PA609726", "PA719806", "PA588884", "PA721624", "PA642764", "PA610634", "PA719770", "PA718744", "PA721776", "PA719558", "PA720256", "PA642724", "PA610681", "PA721836", "PA721046", "PA335999", "PA342415", "PA721522", "PA642847", "PA718884", "PA722170", "PA720210", "PA642935", "PA720362", "PA441", "PA720968", "PA332228", "PA722046", "PA720430", "PA719488", "PA719218", "PA718876", "PA722312", "PA508", "PA720822", "PA718990", "PA719024", "PA608641", "PA720576", "PA720162", "PA721344", "PA721410", "PA718756", "PA266793", "PA719980", "PA642695", "PA721816", "PA336316", "PA606507", "PA267233", "PA608083", "PA721608", "PA722030", "PA719032", "PA718710", "PA330684", "PA721908", "PA713448", "PA330008", "PA267766", "PA605069", "PA672", "PA721336", "PA223837", "PA721118", "PA720772", "PA721328", "PA719890", "PA718838", "PA720546", "PA720116", "PA722000", "PA689", "PA720622", "PA719496", "PA721750", "PA720298", "PA429893", "PA746", "PA719138", "PA720520", "PA767", "PA719922", "PA721352", "PA721166", "PA719472", "PA720814", "PA719440", "PA721860", "PA719748", "PA719790", "PA719448", "PA721218", "PA719170", "PA267306", "PA719250", "PA720468", "PA856", "PA722126", "PA642868", "PA267429", "PA330240", "PA702054", "PA719294", "PA336439", "PA719756", "PA719740", "PA719814", "PA606212", "PA719286", "PA721202", "PA721210", "PA718850", "PA719118", "PA722390", "PA923", "PA719624", "PA721808", "PA719266", "PA942", "PA719194", "PA720932", "PA332523", "PA720268", "PA607155", "PA998", "PA1008", "PA719710", "PA720538", "PA1029", "PA721398", "PA718694", "PA267450", "PA719258", "PA267241", "PA719830", "PA720598", "PA720696", "PA330909", "PA720862", "PA718926", "PA720386", "PA720438", "PA267440", "PA722382", "PA712015", "PA722236", "PA721718", "PA718894", "PA267289", "PA608292", "PA719162", "PA342935", "PA719660", "PA719684", "PA720154", "PA608826", "PA720046", "PA718720", "PA606202", "PA721194", "PA1198", "PA720684", "PA721094", "PA643175", "PA1206", "PA330357", "PA720652", "PA267735", "PA331567", "PA719310", "PA721670", "PA332747", "PA717151", "PA721924", "PA1012", "PA720996", "PA720002", "PA719692", "PA720924", "PA607193", "PA719044", "PA719616", "PA720664", "PA719570", "PA721564", "PA605694", "PA1276", "PA334149", "PA721896", "PA609332", "PA719960", "PA721702", "PA267042", "PA606171", "PA643103", "PA719938", "PA720286", "PA722134", "PA267780", "PA721742", "PA267673", "PA718706", "PA721384", "PA1327", "PA721142", "PA720030", "PA722284", "PA722366", "PA266774", "PA719480", "PA721246", "PA720198", "PA721992", "PA720178", "PA333285", "PA722358", "PA267324", "PA721364", "PA720806", "PA721024", "PA605991", "PA719108", "PA719326", "PA720222", "PA267336", "PA718674", "PA1498", "PA610775", "PA721784", "PA266797", "PA721296", "PA720560", "PA719330", "PA720170", "PA722062", "PA720790", "PA721764", "PA267318", "PA721792", "PA721498", "PA721880", "PA721126", "PA1592", "PA695100", "PA722054", "PA719652", "PA720326", "PA720054", "PA722094", "PA722070", "PA1630", "PA718794", "PA267355", "PA608416", "PA721150", "PA720454", "PA722150", "PA719700", "PA333818", "PA267200", "PA331835", "PA722374", "PA1695", "PA720354", "PA719874", "PA720074", "PA267801", "PA719060", "PA719778", "PA719210", "PA720038", "PA332614", "PA722344", "PA722202", "PA267901", "PA719994", "PA335054", "PA719372", "PA721514", "PA719230", "PA719052", "PA719186", "PA722300", "PA721644", "PA605084", "PA720202", "PA720214", "PA721506", "PA719842", "PA719798", "PA720846", "PA609245", "PA268019", "PA719504", "PA719918", "PA721004", "PA1809", "PA605518", "PA643205", "PA718978", "PA721434", "PA718868", "PA267785", "PA719396", "PA1838", "PA720764", "PA721984", "PA720022", "PA720916", "PA719728", "PA719412", "PA588886", "PA1874", "PA719404", "PA721466", "PA345722", "PA719388", "PA720342", "PA720614", "PA719006", "PA721852", "PA722228", "PA340853", "PA720480", "PA335612", "PA712014", "PA722008", "PA722320", "PA721450", "PA1960", "PA721134", "PA337483", "PA267378", "PA719858", "PA720378", "PA720446", "PA721054", "PA718918", "PA608016", "PA721530", "PA606712", "PA722244", "PA720230", "PA717379", "PA719718", "PA722178", "PA720988", "PA346054", "PA334116", "PA721946", "PA606098", "PA2086", "PA719080", "PA719154", "PA720146", "PA346218", "PA720976", "PA721800", "PA720728", "PA721726", "PA677483", "PA720870", "PA719338", "PA2150", "PA719608", "PA720370", "PA2155", "PA719072", "PA719640", "PA719272", "PA719882", "PA719130", "PA721734", "PA720738", "PA721418", "PA721976", "PA720630", "PA719668", "PA719952", "PA607619", "PA719456", "PA719242", "PA266788", "PA721876", "PA719850", "PA720908", "PA721254", "PA721656", "PA719464", "PA721486", "PA610654", "PA719520", "PA720644", "PA721956", "PA719364", "PA721960", "PA720108", "PA720278", "PA720492", "PA720334", "PA720606", "PA720402", "PA333421", "PA719632", "PA720892", "PA721636", "PA719202", "PA720944", "PA335532", "PA718784", "PA607595", "PA719946", "PA718802", "PA720414", "PA2377", "PA721568", "PA718930", "PA721182", "PA721234", "PA720500", "PA721270", "PA718736", "PA721710", "PA721372", "PA720512", "PA336175", "PA608172", "PA721844", "PA718910", "PA267260", "PA693008", "PA609520", "PA2449", "PA719528", "PA607553", "PA720590", "PA720720", "PA719600", "PA721916", "PA720100", "PA719578", "PA608011", "PA405480", "PA720422", "PA2492", "PA643127", "PA609590", "PA718944", "PA721286", "PA721070", "PA720092", "PA721888", "PA721062", "PA720552", "PA722398", "PA721678", "PA266776", "PA2529", "PA721824", "PA719676", "PA330788", "PA335758", "PA720900", "PA721426", "PA720066", "PA722252", "PA718810", "PA610733", "PA266808", "PA722022", "PA721458", "PA721600", "PA343493", "PA718902", "PA720692", "PA721226", "PA722292", "PA722142", "PA721616", "PA267527", "PA702052", "PA720878", "PA720138", "PA721110", "PA719972", "PA340343", "PA722078", "PA721314", "PA720780", "PA267204", "PA720960", "PA610667", "PA719592", "PA346876", "PA719420", "PA721174", "PA720190", "PA334654", "PA720754", "PA722118", "PA267794", "PA720952", "PA719350", "PA721690", "PA719550", "PA722086", "PA2792", "PA718860", "PA2796", "PA721584", "PA720854", "PA722336", "PA720568", "PA719822", "PA720830", "PA719302", "PA720014", "PA334768", "PA2828", "PA719540", "PA718780", "PA720394", "PA718682", "PA719092", "PA722162", "PA608695", "PA643145", "PA643134", "PA718768", "PA719930", "PA267622", "PA718728", "PA720586", "PA642788", "PA267585", "PA334843", "PA721542", "PA709315", "PA721968", "PA720704", "PA722102", "PA607090", "PA331582", "PA606639", "PA719512", "PA722260", "PA421348", "PA721474", "PA721262", "PA2952", "PA720746", "PA2960", "PA722268", "PA722110", "PA720318", "PA718962", "PA267330"]\', \'$nin\'])'
p3
sS'layer'
p4
S'/home/www-data/web2py/applications/obsas_dev/controllers/fiches.py'
p5
sS'code'
p6
S'<code object <module> at 0x7f82f15ea9b0, file "/home/www-data/web2py/applications/obsas_dev/controllers/fiches.py", line 6>'
p7
sS'snapshot'
p8
(dp9
S'exception'
p10
(dp11
S'__module__'
p12
S"'bson.errors'"
p13
sS'__getslice__'
p14
S"<method-wrapper '__getslice__' of InvalidDocument object>"
p15
sS'__str__'
p16
S"<method-wrapper '__str__' of InvalidDocument object>"
p17
sS'__reduce__'
p18
S'<built-in method __reduce__ of InvalidDocument object>'
p19
sS'__dict__'
p20
S'{}'
p21
sS'__sizeof__'
p22
S'<built-in method __sizeof__ of InvalidDocument object>'
p23
sS'__weakref__'
p24
S'None'
p25
sS'message'
p26
S'\'Cannot encode object: set([\\\'["PA605036", "PA7198...", "PA720318", "PA718962", "PA267330"]\\\', \\\'$nin\\\'])\''
p27
sS'__init__'
p28
S"<method-wrapper '__init__' of InvalidDocument object>"
p29
sS'__setattr__'
p30
S"<method-wrapper '__setattr__' of InvalidDocument object>"
p31
sS'__reduce_ex__'
p32
S'<built-in method __reduce_ex__ of InvalidDocument object>'
p33
sS'__new__'
p34
S'<built-in method __new__ of type object>'
p35
sS'__format__'
p36
S'<built-in method __format__ of InvalidDocument object>'
p37
sS'__class__'
p38
S"<class 'bson.errors.InvalidDocument'>"
p39
sS'__doc__'
p40
S"'Raised when trying to create a BSON object from an invalid document.\\n    '"
p41
sS'__getitem__'
p42
S"<method-wrapper '__getitem__' of InvalidDocument object>"
p43
sS'__setstate__'
p44
S'<built-in method __setstate__ of InvalidDocument object>'
p45
sS'__getattribute__'
p46
S"<method-wrapper '__getattribute__' of InvalidDocument object>"
p47
sS'args'
p48
S'(\'Cannot encode object: set([\\\'["PA605036", "PA7198...", "PA720318", "PA718962", "PA267330"]\\\', \\\'$nin\\\'])\',)'
p49
sS'__subclasshook__'
p50
S'<built-in method __subclasshook__ of type object>'
p51
sS'__unicode__'
p52
S'<built-in method __unicode__ of InvalidDocument object>'
p53
sS'__delattr__'
p54
S"<method-wrapper '__delattr__' of InvalidDocument object>"
p55
sS'__repr__'
p56
S"<method-wrapper '__repr__' of InvalidDocument object>"
p57
sS'__hash__'
p58
S"<method-wrapper '__hash__' of InvalidDocument object>"
p59
ssS'evalue'
p60
S'Cannot encode object: set([\'["PA605036", "PA719866", "PA720242", "PA719146", "PA722038", "PA721036", "PA718954", "PA605963", "PA724827", "PA720798", "PA720124", "PA721278", "PA606675", "PA721158", "PA719318", "PA719100", "PA720310", "PA722190", "PA609726", "PA719806", "PA588884", "PA721624", "PA642764", "PA610634", "PA719770", "PA718744", "PA721776", "PA719558", "PA720256", "PA642724", "PA610681", "PA721836", "PA721046", "PA335999", "PA342415", "PA721522", "PA642847", "PA718884", "PA722170", "PA720210", "PA642935", "PA720362", "PA441", "PA720968", "PA332228", "PA722046", "PA720430", "PA719488", "PA719218", "PA718876", "PA722312", "PA508", "PA720822", "PA718990", "PA719024", "PA608641", "PA720576", "PA720162", "PA721344", "PA721410", "PA718756", "PA266793", "PA719980", "PA642695", "PA721816", "PA336316", "PA606507", "PA267233", "PA608083", "PA721608", "PA722030", "PA719032", "PA718710", "PA330684", "PA721908", "PA713448", "PA330008", "PA267766", "PA605069", "PA672", "PA721336", "PA223837", "PA721118", "PA720772", "PA721328", "PA719890", "PA718838", "PA720546", "PA720116", "PA722000", "PA689", "PA720622", "PA719496", "PA721750", "PA720298", "PA429893", "PA746", "PA719138", "PA720520", "PA767", "PA719922", "PA721352", "PA721166", "PA719472", "PA720814", "PA719440", "PA721860", "PA719748", "PA719790", "PA719448", "PA721218", "PA719170", "PA267306", "PA719250", "PA720468", "PA856", "PA722126", "PA642868", "PA267429", "PA330240", "PA702054", "PA719294", "PA336439", "PA719756", "PA719740", "PA719814", "PA606212", "PA719286", "PA721202", "PA721210", "PA718850", "PA719118", "PA722390", "PA923", "PA719624", "PA721808", "PA719266", "PA942", "PA719194", "PA720932", "PA332523", "PA720268", "PA607155", "PA998", "PA1008", "PA719710", "PA720538", "PA1029", "PA721398", "PA718694", "PA267450", "PA719258", "PA267241", "PA719830", "PA720598", "PA720696", "PA330909", "PA720862", "PA718926", "PA720386", "PA720438", "PA267440", "PA722382", "PA712015", "PA722236", "PA721718", "PA718894", "PA267289", "PA608292", "PA719162", "PA342935", "PA719660", "PA719684", "PA720154", "PA608826", "PA720046", "PA718720", "PA606202", "PA721194", "PA1198", "PA720684", "PA721094", "PA643175", "PA1206", "PA330357", "PA720652", "PA267735", "PA331567", "PA719310", "PA721670", "PA332747", "PA717151", "PA721924", "PA1012", "PA720996", "PA720002", "PA719692", "PA720924", "PA607193", "PA719044", "PA719616", "PA720664", "PA719570", "PA721564", "PA605694", "PA1276", "PA334149", "PA721896", "PA609332", "PA719960", "PA721702", "PA267042", "PA606171", "PA643103", "PA719938", "PA720286", "PA722134", "PA267780", "PA721742", "PA267673", "PA718706", "PA721384", "PA1327", "PA721142", "PA720030", "PA722284", "PA722366", "PA266774", "PA719480", "PA721246", "PA720198", "PA721992", "PA720178", "PA333285", "PA722358", "PA267324", "PA721364", "PA720806", "PA721024", "PA605991", "PA719108", "PA719326", "PA720222", "PA267336", "PA718674", "PA1498", "PA610775", "PA721784", "PA266797", "PA721296", "PA720560", "PA719330", "PA720170", "PA722062", "PA720790", "PA721764", "PA267318", "PA721792", "PA721498", "PA721880", "PA721126", "PA1592", "PA695100", "PA722054", "PA719652", "PA720326", "PA720054", "PA722094", "PA722070", "PA1630", "PA718794", "PA267355", "PA608416", "PA721150", "PA720454", "PA722150", "PA719700", "PA333818", "PA267200", "PA331835", "PA722374", "PA1695", "PA720354", "PA719874", "PA720074", "PA267801", "PA719060", "PA719778", "PA719210", "PA720038", "PA332614", "PA722344", "PA722202", "PA267901", "PA719994", "PA335054", "PA719372", "PA721514", "PA719230", "PA719052", "PA719186", "PA722300", "PA721644", "PA605084", "PA720202", "PA720214", "PA721506", "PA719842", "PA719798", "PA720846", "PA609245", "PA268019", "PA719504", "PA719918", "PA721004", "PA1809", "PA605518", "PA643205", "PA718978", "PA721434", "PA718868", "PA267785", "PA719396", "PA1838", "PA720764", "PA721984", "PA720022", "PA720916", "PA719728", "PA719412", "PA588886", "PA1874", "PA719404", "PA721466", "PA345722", "PA719388", "PA720342", "PA720614", "PA719006", "PA721852", "PA722228", "PA340853", "PA720480", "PA335612", "PA712014", "PA722008", "PA722320", "PA721450", "PA1960", "PA721134", "PA337483", "PA267378", "PA719858", "PA720378", "PA720446", "PA721054", "PA718918", "PA608016", "PA721530", "PA606712", "PA722244", "PA720230", "PA717379", "PA719718", "PA722178", "PA720988", "PA346054", "PA334116", "PA721946", "PA606098", "PA2086", "PA719080", "PA719154", "PA720146", "PA346218", "PA720976", "PA721800", "PA720728", "PA721726", "PA677483", "PA720870", "PA719338", "PA2150", "PA719608", "PA720370", "PA2155", "PA719072", "PA719640", "PA719272", "PA719882", "PA719130", "PA721734", "PA720738", "PA721418", "PA721976", "PA720630", "PA719668", "PA719952", "PA607619", "PA719456", "PA719242", "PA266788", "PA721876", "PA719850", "PA720908", "PA721254", "PA721656", "PA719464", "PA721486", "PA610654", "PA719520", "PA720644", "PA721956", "PA719364", "PA721960", "PA720108", "PA720278", "PA720492", "PA720334", "PA720606", "PA720402", "PA333421", "PA719632", "PA720892", "PA721636", "PA719202", "PA720944", "PA335532", "PA718784", "PA607595", "PA719946", "PA718802", "PA720414", "PA2377", "PA721568", "PA718930", "PA721182", "PA721234", "PA720500", "PA721270", "PA718736", "PA721710", "PA721372", "PA720512", "PA336175", "PA608172", "PA721844", "PA718910", "PA267260", "PA693008", "PA609520", "PA2449", "PA719528", "PA607553", "PA720590", "PA720720", "PA719600", "PA721916", "PA720100", "PA719578", "PA608011", "PA405480", "PA720422", "PA2492", "PA643127", "PA609590", "PA718944", "PA721286", "PA721070", "PA720092", "PA721888", "PA721062", "PA720552", "PA722398", "PA721678", "PA266776", "PA2529", "PA721824", "PA719676", "PA330788", "PA335758", "PA720900", "PA721426", "PA720066", "PA722252", "PA718810", "PA610733", "PA266808", "PA722022", "PA721458", "PA721600", "PA343493", "PA718902", "PA720692", "PA721226", "PA722292", "PA722142", "PA721616", "PA267527", "PA702052", "PA720878", "PA720138", "PA721110", "PA719972", "PA340343", "PA722078", "PA721314", "PA720780", "PA267204", "PA720960", "PA610667", "PA719592", "PA346876", "PA719420", "PA721174", "PA720190", "PA334654", "PA720754", "PA722118", "PA267794", "PA720952", "PA719350", "PA721690", "PA719550", "PA722086", "PA2792", "PA718860", "PA2796", "PA721584", "PA720854", "PA722336", "PA720568", "PA719822", "PA720830", "PA719302", "PA720014", "PA334768", "PA2828", "PA719540", "PA718780", "PA720394", "PA718682", "PA719092", "PA722162", "PA608695", "PA643145", "PA643134", "PA718768", "PA719930", "PA267622", "PA718728", "PA720586", "PA642788", "PA267585", "PA334843", "PA721542", "PA709315", "PA721968", "PA720704", "PA722102", "PA607090", "PA331582", "PA606639", "PA719512", "PA722260", "PA421348", "PA721474", "PA721262", "PA2952", "PA720746", "PA2960", "PA722268", "PA722110", "PA720318", "PA718962", "PA267330"]\', \'$nin\'])'
p61
sS'request'
p62
cgluon.html
XML_unpickle
p63
(S's\x8cp\x00\x00<div><table><tr><td style="font-weight:bold;vertical-align:top;">ajax</td><td style="vertical-align:top;">:</td><td><div>False</div></td></tr><tr><td style="font-weight:bold;vertical-align:top;">application</td><td style="vertical-align:top;">:</td><td><div>obsas_dev</div></td></tr><tr><td style="font-weight:bold;vertical-align:top;">args</td><td style="vertical-align:top;">:</td><td><div><table></table></div></td></tr><tr><td style="font-weight:bold;vertical-align:top;">cid</td><td style="vertical-align:top;">:</td><td><div>None</div></td></tr><tr><td style="font-weight:bold;vertical-align:top;">client</td><td style="vertical-align:top;">:</td><td><div>83.203.171.193</div></td></tr><tr><td style="font-weight:bold;vertical-align:top;">controller</td><td style="vertical-align:top;">:</td><td><div>fiches</div></td></tr><tr><td style="font-weight:bold;vertical-align:top;">cookies</td><td style="vertical-align:top;">:</td><td><div><table><tr><td style="font-weight:bold;vertical-align:top;">session_id_admin</td><td style="vertical-align:top;">:</td><td><div>83.203.47.167-d88b0450-a5ff-464e-bacc-c4464d7d5ca0<table><tr><td style="font-weight:bold;vertical-align:top;">comment</td><td style="vertical-align:top;">:</td><td><div></div></td></tr><tr><td style="font-weight:bold;vertical-align:top;">domain</td><td style="vertical-align:top;">:</td><td><div></div></td></tr><tr><td style="font-weight:bold;vertical-align:top;">expires</td><td style="vertical-align:top;">:</td><td><div></div></td></tr><tr><td style="font-weight:bold;vertical-align:top;">httponly</td><td style="vertical-align:top;">:</td><td><div></div></td></tr><tr><td style="font-weight:bold;vertical-align:top;">max-age</td><td style="vertical-align:top;">:</td><td><div></div></td></tr><tr><td style="font-weight:bold;vertical-align:top;">path</td><td style="vertical-align:top;">:</td><td><div></div></td></tr><tr><td style="font-weight:bold;vertical-align:top;">secure</td><td style="vertical-align:top;">:</td><td><div></div></td></tr><tr><td style="font-weight:bold;vertical-align:top;">version</td><td style="vertical-align:top;">:</td><td><div></div></td></tr></table></div></td></tr><tr><td style="font-weight:bold;vertical-align:top;">session_id_obsas_dev</td><td style="vertical-align:top;">:</td><td><div>83.203.171.193-32e96700-6ec6-483a-9ec7-7e90df925194<table><tr><td style="font-weight:bold;vertical-align:top;">comment</td><td style="vertical-align:top;">:</td><td><div></div></td></tr><tr><td style="font-weight:bold;vertical-align:top;">domain</td><td style="vertical-align:top;">:</td><td><div></div></td></tr><tr><td style="font-weight:bold;vertical-align:top;">expires</td><td style="vertical-align:top;">:</td><td><div></div></td></tr><tr><td style="font-weight:bold;vertical-align:top;">httponly</td><td style="vertical-align:top;">:</td><td><div></div></td></tr><tr><td style="font-weight:bold;vertical-align:top;">max-age</td><td style="vertical-align:top;">:</td><td><div></div></td></tr><tr><td style="font-weight:bold;vertical-align:top;">path</td><td style="vertical-align:top;">:</td><td><div></div></td></tr><tr><td style="font-weight:bold;vertical-align:top;">secure</td><td style="vertical-align:top;">:</td><td><div></div></td></tr><tr><td style="font-weight:bold;vertical-align:top;">version</td><td style="vertical-align:top;">:</td><td><div></div></td></tr></table></div></td></tr></table></div></td></tr><tr><td style="font-weight:bold;vertical-align:top;">env</td><td style="vertical-align:top;">:</td><td><div><table><tr><td style="font-weight:bold;vertical-align:top;">CONTEXT_DOCUMENT_ROOT</td><td style="vertical-align:top;">:</td><td><div>/var/www/html</div></td></tr><tr><td style="font-weight:bold;vertical-align:top;">CONTEXT_PREFIX</td><td style="vertical-align:top;">:</td><td><div></div></td></tr><tr><td style="font-weight:bold;vertical-align:top;">DOCUMENT_ROOT</td><td style="vertical-align:top;">:</td><td><div>/var/www/html</div></td></tr><tr><td style="font-weight:bold;vertical-align:top;">GATEWAY_INTERFACE</td><td style="vertical-align:top;">:</td><td><div>CGI/1.1</div></td></tr><tr><td style="font-weight:bold;vertical-align:top;">HTTP_ACCEPT</td><td style="vertical-align:top;">:</td><td><div>text/html,application/xhtml+xml,application/xml;q=0.9,image/webp,image/apng,*/*;q=0.8</div></td></tr><tr><td style="font-weight:bold;vertical-align:top;">HTTP_ACCEPT_ENCODING</td><td style="vertical-align:top;">:</td><td><div>gzip, deflate, br</div></td></tr><tr><td style="font-weight:bold;vertical-align:top;">HTTP_ACCEPT_LANGUAGE</td><td style="vertical-align:top;">:</td><td><div>fr-FR,fr;q=0.8,en-US;q=0.6,en;q=0.4</div></td></tr><tr><td style="font-weight:bold;vertical-align:top;">HTTP_CACHE_CONTROL</td><td style="vertical-align:top;">:</td><td><div>max-age=0</div></td></tr><tr><td style="font-weight:bold;vertical-align:top;">HTTP_CONNECTION</td><td style="vertical-align:top;">:</td><td><div>keep-alive</div></td></tr><tr><td style="font-weight:bold;vertical-align:top;">HTTP_COOKIE</td><td style="vertical-align:top;">:</td><td><div>session_id_obsas_dev=83.203.171.193-32e96700-6ec6-483a-9ec7-7e90df925194; session_id_admin=83.203.47.167-d88b0450-a5ff-464e-bacc-c4464d7d5ca0</div></td></tr><tr><td style="font-weight:bold;vertical-align:top;">HTTP_HOST</td><td style="vertical-align:top;">:</td><td><div>admin.obsas.orvdev.fr</div></td></tr><tr><td style="font-weight:bold;vertical-align:top;">HTTP_REFERER</td><td style="vertical-align:top;">:</td><td><div>https://admin.obsas.orvdev.fr/admin/edit/obsas_dev/controllers/fiches.py?id=controllers__fiches__py</div></td></tr><tr><td style="font-weight:bold;vertical-align:top;">HTTP_UPGRADE_INSECURE_REQUESTS</td><td style="vertical-align:top;">:</td><td><div>1</div></td></tr><tr><td style="font-weight:bold;vertical-align:top;">HTTP_USER_AGENT</td><td style="vertical-align:top;">:</td><td><div>Mozilla/5.0 (X11; Linux x86_64) AppleWebKit/537.36 (KHTML, like Gecko) Chrome/60.0.3112.101 Safari/537.36</div></td></tr><tr><td style="font-weight:bold;vertical-align:top;">PATH_INFO</td><td style="vertical-align:top;">:</td><td><div>/obsas_dev/fiches/test</div></td></tr><tr><td style="font-weight:bold;vertical-align:top;">PATH_TRANSLATED</td><td style="vertical-align:top;">:</td><td><div>/home/www-data/web2py/wsgihandler.py/obsas_dev/fiches/test</div></td></tr><tr><td style="font-weight:bold;vertical-align:top;">QUERY_STRING</td><td style="vertical-align:top;">:</td><td><div></div></td></tr><tr><td style="font-weight:bold;vertical-align:top;">REMOTE_ADDR</td><td style="vertical-align:top;">:</td><td><div>83.203.171.193</div></td></tr><tr><td style="font-weight:bold;vertical-align:top;">REMOTE_PORT</td><td style="vertical-align:top;">:</td><td><div>49526</div></td></tr><tr><td style="font-weight:bold;vertical-align:top;">REQUEST_METHOD</td><td style="vertical-align:top;">:</td><td><div>GET</div></td></tr><tr><td style="font-weight:bold;vertical-align:top;">REQUEST_SCHEME</td><td style="vertical-align:top;">:</td><td><div>https</div></td></tr><tr><td style="font-weight:bold;vertical-align:top;">REQUEST_URI</td><td style="vertical-align:top;">:</td><td><div>/obsas_dev/fiches/test</div></td></tr><tr><td style="font-weight:bold;vertical-align:top;">SCRIPT_FILENAME</td><td style="vertical-align:top;">:</td><td><div>/home/www-data/web2py/wsgihandler.py</div></td></tr><tr><td style="font-weight:bold;vertical-align:top;">SCRIPT_NAME</td><td style="vertical-align:top;">:</td><td><div></div></td></tr><tr><td style="font-weight:bold;vertical-align:top;">SERVER_ADDR</td><td style="vertical-align:top;">:</td><td><div>151.80.57.169</div></td></tr><tr><td style="font-weight:bold;vertical-align:top;">SERVER_ADMIN</td><td style="vertical-align:top;">:</td><td><div>[no address given]</div></td></tr><tr><td style="font-weight:bold;vertical-align:top;">SERVER_NAME</td><td style="vertical-align:top;">:</td><td><div>admin.obsas.orvdev.fr</div></td></tr><tr><td style="font-weight:bold;vertical-align:top;">SERVER_PORT</td><td style="vertical-align:top;">:</td><td><div>443</div></td></tr><tr><td style="font-weight:bold;vertical-align:top;">SERVER_PROTOCOL</td><td style="vertical-align:top;">:</td><td><div>HTTP/1.1</div></td></tr><tr><td style="font-weight:bold;vertical-align:top;">SERVER_SIGNATURE</td><td style="vertical-align:top;">:</td><td><div>&lt;address&gt;Apache/2.4.18 (Ubuntu) Server at admin.obsas.orvdev.fr Port 443&lt;/address&gt;\n</div></td></tr><tr><td style="font-weight:bold;vertical-align:top;">SERVER_SOFTWARE</td><td style="vertical-align:top;">:</td><td><div>Apache/2.4.18 (Ubuntu)</div></td></tr><tr><td style="font-weight:bold;vertical-align:top;">SSL_TLS_SNI</td><td style="vertical-align:top;">:</td><td><div>admin.obsas.orvdev.fr</div></td></tr><tr><td style="font-weight:bold;vertical-align:top;">apache.version</td><td style="vertical-align:top;">:</td><td><div><table><tr><td><div>2</div></td></tr><tr><td><div>4</div></td></tr><tr><td><div>18</div></td></tr></table></div></td></tr><tr><td style="font-weight:bold;vertical-align:top;">apache_version</td><td style="vertical-align:top;">:</td><td><div><table><tr><td><div>2</div></td></tr><tr><td><div>4</div></td></tr><tr><td><div>18</div></td></tr></table></div></td></tr><tr><td style="font-weight:bold;vertical-align:top;">app_folders</td><td style="vertical-align:top;">:</td><td><div>set([&#x27;/home/www-data/web2py/applications/obsas_dev/&#x27;, &#x27;/home/www-data/web2py/applications/admin/&#x27;])</div></td></tr><tr><td style="font-weight:bold;vertical-align:top;">applications_parent</td><td style="vertical-align:top;">:</td><td><div>/home/www-data/web2py</div></td></tr><tr><td style="font-weight:bold;vertical-align:top;">context_document_root</td><td style="vertical-align:top;">:</td><td><div>/var/www/html</div></td></tr><tr><td style="font-weight:bold;vertical-align:top;">context_prefix</td><td style="vertical-align:top;">:</td><td><div></div></td></tr><tr><td style="font-weight:bold;vertical-align:top;">db_sessions</td><td style="vertical-align:top;">:</td><td><div>set([])</div></td></tr><tr><td style="font-weight:bold;vertical-align:top;">debugging</td><td style="vertical-align:top;">:</td><td><div>True</div></td></tr><tr><td style="font-weight:bold;vertical-align:top;">document_root</td><td style="vertical-align:top;">:</td><td><div>/var/www/html</div></td></tr><tr><td style="font-weight:bold;vertical-align:top;">gateway_interface</td><td style="vertical-align:top;">:</td><td><div>CGI/1.1</div></td></tr><tr><td style="font-weight:bold;vertical-align:top;">gluon_parent</td><td style="vertical-align:top;">:</td><td><div>/home/www-data/web2py</div></td></tr><tr><td style="font-weight:bold;vertical-align:top;">http_accept</td><td style="vertical-align:top;">:</td><td><div>text/html,application/xhtml+xml,application/xml;q=0.9,image/webp,image/apng,*/*;q=0.8</div></td></tr><tr><td style="font-weight:bold;vertical-align:top;">http_accept_encoding</td><td style="vertical-align:top;">:</td><td><div>gzip, deflate, br</div></td></tr><tr><td style="font-weight:bold;vertical-align:top;">http_accept_language</td><td style="vertical-align:top;">:</td><td><div>fr-FR,fr;q=0.8,en-US;q=0.6,en;q=0.4</div></td></tr><tr><td style="font-weight:bold;vertical-align:top;">http_cache_control</td><td style="vertical-align:top;">:</td><td><div>max-age=0</div></td></tr><tr><td style="font-weight:bold;vertical-align:top;">http_connection</td><td style="vertical-align:top;">:</td><td><div>keep-alive</div></td></tr><tr><td style="font-weight:bold;vertical-align:top;">http_cookie</td><td style="vertical-align:top;">:</td><td><div>session_id_obsas_dev=83.203.171.193-32e96700-6ec6-483a-9ec7-7e90df925194; session_id_admin=83.203.47.167-d88b0450-a5ff-464e-bacc-c4464d7d5ca0</div></td></tr><tr><td style="font-weight:bold;vertical-align:top;">http_host</td><td style="vertical-align:top;">:</td><td><div>admin.obsas.orvdev.fr</div></td></tr><tr><td style="font-weight:bold;vertical-align:top;">http_referer</td><td style="vertical-align:top;">:</td><td><div>https://admin.obsas.orvdev.fr/admin/edit/obsas_dev/controllers/fiches.py?id=controllers__fiches__py</div></td></tr><tr><td style="font-weight:bold;vertical-align:top;">http_upgrade_insecure_requests</td><td style="vertical-align:top;">:</td><td><div>1</div></td></tr><tr><td style="font-weight:bold;vertical-align:top;">http_user_agent</td><td style="vertical-align:top;">:</td><td><div>Mozilla/5.0 (X11; Linux x86_64) AppleWebKit/537.36 (KHTML, like Gecko) Chrome/60.0.3112.101 Safari/537.36</div></td></tr><tr><td style="font-weight:bold;vertical-align:top;">is_jython</td><td style="vertical-align:top;">:</td><td><div>False</div></td></tr><tr><td style="font-weight:bold;vertical-align:top;">is_py2</td><td style="vertical-align:top;">:</td><td><div>True</div></td></tr><tr><td style="font-weight:bold;vertical-align:top;">is_pypy</td><td style="vertical-align:top;">:</td><td><div>False</div></td></tr><tr><td style="font-weight:bold;vertical-align:top;">is_source</td><td style="vertical-align:top;">:</td><td><div>True</div></td></tr><tr><td style="font-weight:bold;vertical-align:top;">local_hosts</td><td style="vertical-align:top;">:</td><td><div><table><tr><td><div>vps433020</div></td></tr><tr><td><div>::ffff:127.0.0.1</div></td></tr><tr><td><div>::1</div></td></tr><tr><td><div>151.80.57.169</div></td></tr><tr><td><div>vps433020.ovh.net</div></td></tr><tr><td><div>127.0.1.1</div></td></tr><tr><td><div>127.0.0.1</div></td></tr></table></div></td></tr><tr><td style="font-weight:bold;vertical-align:top;">mod_wsgi.application_group</td><td style="vertical-align:top;">:</td><td><div></div></td></tr><tr><td style="font-weight:bold;vertical-align:top;">mod_wsgi.callable_object</td><td style="vertical-align:top;">:</td><td><div>application</div></td></tr><tr><td style="font-weight:bold;vertical-align:top;">mod_wsgi.daemon_connects</td><td style="vertical-align:top;">:</td><td><div>1</div></td></tr><tr><td style="font-weight:bold;vertical-align:top;">mod_wsgi.daemon_restarts</td><td style="vertical-align:top;">:</td><td><div>0</div></td></tr><tr><td style="font-weight:bold;vertical-align:top;">mod_wsgi.daemon_start</td><td style="vertical-align:top;">:</td><td><div>1504468936189320</div></td></tr><tr><td style="font-weight:bold;vertical-align:top;">mod_wsgi.enable_sendfile</td><td style="vertical-align:top;">:</td><td><div>0</div></td></tr><tr><td style="font-weight:bold;vertical-align:top;">mod_wsgi.handler_script</td><td style="vertical-align:top;">:</td><td><div></div></td></tr><tr><td style="font-weight:bold;vertical-align:top;">mod_wsgi.input_chunked</td><td style="vertical-align:top;">:</td><td><div>0</div></td></tr><tr><td style="font-weight:bold;vertical-align:top;">mod_wsgi.listener_host</td><td style="vertical-align:top;">:</td><td><div></div></td></tr><tr><td style="font-weight:bold;vertical-align:top;">mod_wsgi.listener_port</td><td style="vertical-align:top;">:</td><td><div>443</div></td></tr><tr><td style="font-weight:bold;vertical-align:top;">mod_wsgi.process_group</td><td style="vertical-align:top;">:</td><td><div>obsasadm</div></td></tr><tr><td style="font-weight:bold;vertical-align:top;">mod_wsgi.queue_start</td><td style="vertical-align:top;">:</td><td><div>1504468936189199</div></td></tr><tr><td style="font-weight:bold;vertical-align:top;">mod_wsgi.request_handler</td><td style="vertical-align:top;">:</td><td><div>wsgi-script</div></td></tr><tr><td style="font-weight:bold;vertical-align:top;">mod_wsgi.request_start</td><td style="vertical-align:top;">:</td><td><div>1504468936188962</div></td></tr><tr><td style="font-weight:bold;vertical-align:top;">mod_wsgi.script_reloading</td><td style="vertical-align:top;">:</td><td><div>1</div></td></tr><tr><td style="font-weight:bold;vertical-align:top;">mod_wsgi.script_start</td><td style="vertical-align:top;">:</td><td><div>1504468936189353</div></td></tr><tr><td style="font-weight:bold;vertical-align:top;">mod_wsgi.version</td><td style="vertical-align:top;">:</td><td><div><table><tr><td><div>4</div></td></tr><tr><td><div>3</div></td></tr><tr><td><div>0</div></td></tr></table></div></td></tr><tr><td style="font-weight:bold;vertical-align:top;">mod_wsgi_application_group</td><td style="vertical-align:top;">:</td><td><div></div></td></tr><tr><td style="font-weight:bold;vertical-align:top;">mod_wsgi_callable_object</td><td style="vertical-align:top;">:</td><td><div>application</div></td></tr><tr><td style="font-weight:bold;vertical-align:top;">mod_wsgi_daemon_connects</td><td style="vertical-align:top;">:</td><td><div>1</div></td></tr><tr><td style="font-weight:bold;vertical-align:top;">mod_wsgi_daemon_restarts</td><td style="vertical-align:top;">:</td><td><div>0</div></td></tr><tr><td style="font-weight:bold;vertical-align:top;">mod_wsgi_daemon_start</td><td style="vertical-align:top;">:</td><td><div>1504468936189320</div></td></tr><tr><td style="font-weight:bold;vertical-align:top;">mod_wsgi_enable_sendfile</td><td style="vertical-align:top;">:</td><td><div>0</div></td></tr><tr><td style="font-weight:bold;vertical-align:top;">mod_wsgi_handler_script</td><td style="vertical-align:top;">:</td><td><div></div></td></tr><tr><td style="font-weight:bold;vertical-align:top;">mod_wsgi_input_chunked</td><td style="vertical-align:top;">:</td><td><div>0</div></td></tr><tr><td style="font-weight:bold;vertical-align:top;">mod_wsgi_listener_host</td><td style="vertical-align:top;">:</td><td><div></div></td></tr><tr><td style="font-weight:bold;vertical-align:top;">mod_wsgi_listener_port</td><td style="vertical-align:top;">:</td><td><div>443</div></td></tr><tr><td style="font-weight:bold;vertical-align:top;">mod_wsgi_process_group</td><td style="vertical-align:top;">:</td><td><div>obsasadm</div></td></tr><tr><td style="font-weight:bold;vertical-align:top;">mod_wsgi_queue_start</td><td style="vertical-align:top;">:</td><td><div>1504468936189199</div></td></tr><tr><td style="font-weight:bold;vertical-align:top;">mod_wsgi_request_handler</td><td style="vertical-align:top;">:</td><td><div>wsgi-script</div></td></tr><tr><td style="font-weight:bold;vertical-align:top;">mod_wsgi_request_start</td><td style="vertical-align:top;">:</td><td><div>1504468936188962</div></td></tr><tr><td style="font-weight:bold;vertical-align:top;">mod_wsgi_script_reloading</td><td style="vertical-align:top;">:</td><td><div>1</div></td></tr><tr><td style="font-weight:bold;vertical-align:top;">mod_wsgi_script_start</td><td style="vertical-align:top;">:</td><td><div>1504468936189353</div></td></tr><tr><td style="font-weight:bold;vertical-align:top;">mod_wsgi_version</td><td style="vertical-align:top;">:</td><td><div><table><tr><td><div>4</div></td></tr><tr><td><div>3</div></td></tr><tr><td><div>0</div></td></tr></table></div></td></tr><tr><td style="font-weight:bold;vertical-align:top;">nokeepalive</td><td style="vertical-align:top;">:</td><td><div>ssl-unclean-shutdown</div></td></tr><tr><td style="font-weight:bold;vertical-align:top;">path_info</td><td style="vertical-align:top;">:</td><td><div>/obsas_dev/fiches/test</div></td></tr><tr><td style="font-weight:bold;vertical-align:top;">path_translated</td><td style="vertical-align:top;">:</td><td><div>/home/www-data/web2py/wsgihandler.py/obsas_dev/fiches/test</div></td></tr><tr><td style="font-weight:bold;vertical-align:top;">query_string</td><td style="vertical-align:top;">:</td><td><div></div></td></tr><tr><td style="font-weight:bold;vertical-align:top;">remote_addr</td><td style="vertical-align:top;">:</td><td><div>83.203.171.193</div></td></tr><tr><td style="font-weight:bold;vertical-align:top;">remote_port</td><td style="vertical-align:top;">:</td><td><div>49526</div></td></tr><tr><td style="font-weight:bold;vertical-align:top;">request_method</td><td style="vertical-align:top;">:</td><td><div>GET</div></td></tr><tr><td style="font-weight:bold;vertical-align:top;">request_scheme</td><td style="vertical-align:top;">:</td><td><div>https</div></td></tr><tr><td style="font-weight:bold;vertical-align:top;">request_uri</td><td style="vertical-align:top;">:</td><td><div>/obsas_dev/fiches/test</div></td></tr><tr><td style="font-weight:bold;vertical-align:top;">script_filename</td><td style="vertical-align:top;">:</td><td><div>/home/www-data/web2py/wsgihandler.py</div></td></tr><tr><td style="font-weight:bold;vertical-align:top;">script_name</td><td style="vertical-align:top;">:</td><td><div></div></td></tr><tr><td style="font-weight:bold;vertical-align:top;">server_addr</td><td style="vertical-align:top;">:</td><td><div>151.80.57.169</div></td></tr><tr><td style="font-weight:bold;vertical-align:top;">server_admin</td><td style="vertical-align:top;">:</td><td><div>[no address given]</div></td></tr><tr><td style="font-weight:bold;vertical-align:top;">server_name</td><td style="vertical-align:top;">:</td><td><div>admin.obsas.orvdev.fr</div></td></tr><tr><td style="font-weight:bold;vertical-align:top;">server_port</td><td style="vertical-align:top;">:</td><td><div>443</div></td></tr><tr><td style="font-weight:bold;vertical-align:top;">server_protocol</td><td style="vertical-align:top;">:</td><td><div>HTTP/1.1</div></td></tr><tr><td style="font-weight:bold;vertical-align:top;">server_signature</td><td style="vertical-align:top;">:</td><td><div>&lt;address&gt;Apache/2.4.18 (Ubuntu) Server at admin.obsas.orvdev.fr Port 443&lt;/address&gt;\n</div></td></tr><tr><td style="font-weight:bold;vertical-align:top;">server_software</td><td style="vertical-align:top;">:</td><td><div>Apache/2.4.18 (Ubuntu)</div></td></tr><tr><td style="font-weight:bold;vertical-align:top;">ssl_tls_sni</td><td style="vertical-align:top;">:</td><td><div>admin.obsas.orvdev.fr</div></td></tr><tr><td style="font-weight:bold;vertical-align:top;">web2py_original_uri</td><td style="vertical-align:top;">:</td><td><div>/obsas_dev/fiches/test</div></td></tr><tr><td style="font-weight:bold;vertical-align:top;">web2py_path</td><td style="vertical-align:top;">:</td><td><div>/home/www-data/web2py</div></td></tr><tr><td style="font-weight:bold;vertical-align:top;">web2py_version</td><td style="vertical-align:top;">:</td><td><div>2.15.1-stable+timestamp.2017.07.10.21.25.06</div></td></tr><tr><td style="font-weight:bold;vertical-align:top;">wsgi.errors</td><td style="vertical-align:top;">:</td><td><div>&lt;mod_wsgi.Log object at 0x7f82cc984540&gt;</div></td></tr><tr><td style="font-weight:bold;vertical-align:top;">wsgi.file_wrapper</td><td style="vertical-align:top;">:</td><td><div>&lt;type &#x27;mod_wsgi.FileWrapper&#x27;&gt;</div></td></tr><tr><td style="font-weight:bold;vertical-align:top;">wsgi.input</td><td style="vertical-align:top;">:</td><td><div>&lt;mod_wsgi.Input object at 0x7f82f15598f0&gt;</div></td></tr><tr><td style="font-weight:bold;vertical-align:top;">wsgi.multiprocess</td><td style="vertical-align:top;">:</td><td><div>False</div></td></tr><tr><td style="font-weight:bold;vertical-align:top;">wsgi.multithread</td><td style="vertical-align:top;">:</td><td><div>True</div></td></tr><tr><td style="font-weight:bold;vertical-align:top;">wsgi.run_once</td><td style="vertical-align:top;">:</td><td><div>False</div></td></tr><tr><td style="font-weight:bold;vertical-align:top;">wsgi.url_scheme</td><td style="vertical-align:top;">:</td><td><div>https</div></td></tr><tr><td style="font-weight:bold;vertical-align:top;">wsgi.version</td><td style="vertical-align:top;">:</td><td><div><table><tr><td><div>1</div></td></tr><tr><td><div>0</div></td></tr></table></div></td></tr><tr><td style="font-weight:bold;vertical-align:top;">wsgi_errors</td><td style="vertical-align:top;">:</td><td><div>&lt;mod_wsgi.Log object at 0x7f82cc984540&gt;</div></td></tr><tr><td style="font-weight:bold;vertical-align:top;">wsgi_file_wrapper</td><td style="vertical-align:top;">:</td><td><div>&lt;type &#x27;mod_wsgi.FileWrapper&#x27;&gt;</div></td></tr><tr><td style="font-weight:bold;vertical-align:top;">wsgi_input</td><td style="vertical-align:top;">:</td><td><div>&lt;mod_wsgi.Input object at 0x7f82f15598f0&gt;</div></td></tr><tr><td style="font-weight:bold;vertical-align:top;">wsgi_multiprocess</td><td style="vertical-align:top;">:</td><td><div>False</div></td></tr><tr><td style="font-weight:bold;vertical-align:top;">wsgi_multithread</td><td style="vertical-align:top;">:</td><td><div>True</div></td></tr><tr><td style="font-weight:bold;vertical-align:top;">wsgi_run_once</td><td style="vertical-align:top;">:</td><td><div>False</div></td></tr><tr><td style="font-weight:bold;vertical-align:top;">wsgi_url_scheme</td><td style="vertical-align:top;">:</td><td><div>https</div></td></tr><tr><td style="font-weight:bold;vertical-align:top;">wsgi_version</td><td style="vertical-align:top;">:</td><td><div><table><tr><td><div>1</div></td></tr><tr><td><div>0</div></td></tr></table></div></td></tr></table></div></td></tr><tr><td style="font-weight:bold;vertical-align:top;">extension</td><td style="vertical-align:top;">:</td><td><div>html</div></td></tr><tr><td style="font-weight:bold;vertical-align:top;">folder</td><td style="vertical-align:top;">:</td><td><div>/home/www-data/web2py/applications/obsas_dev/</div></td></tr><tr><td style="font-weight:bold;vertical-align:top;">function</td><td style="vertical-align:top;">:</td><td><div>test</div></td></tr><tr><td style="font-weight:bold;vertical-align:top;">global_settings</td><td style="vertical-align:top;">:</td><td><div><table><tr><td style="font-weight:bold;vertical-align:top;">app_folders</td><td style="vertical-align:top;">:</td><td><div>set([&#x27;/home/www-data/web2py/applications/obsas_dev/&#x27;, &#x27;/home/www-data/web2py/applications/admin/&#x27;])</div></td></tr><tr><td style="font-weight:bold;vertical-align:top;">applications_parent</td><td style="vertical-align:top;">:</td><td><div>/home/www-data/web2py</div></td></tr><tr><td style="font-weight:bold;vertical-align:top;">db_sessions</td><td style="vertical-align:top;">:</td><td><div>set([])</div></td></tr><tr><td style="font-weight:bold;vertical-align:top;">debugging</td><td style="vertical-align:top;">:</td><td><div>True</div></td></tr><tr><td style="font-weight:bold;vertical-align:top;">gluon_parent</td><td style="vertical-align:top;">:</td><td><div>/home/www-data/web2py</div></td></tr><tr><td style="font-weight:bold;vertical-align:top;">is_jython</td><td style="vertical-align:top;">:</td><td><div>False</div></td></tr><tr><td style="font-weight:bold;vertical-align:top;">is_py2</td><td style="vertical-align:top;">:</td><td><div>True</div></td></tr><tr><td style="font-weight:bold;vertical-align:top;">is_pypy</td><td style="vertical-align:top;">:</td><td><div>False</div></td></tr><tr><td style="font-weight:bold;vertical-align:top;">is_source</td><td style="vertical-align:top;">:</td><td><div>True</div></td></tr><tr><td style="font-weight:bold;vertical-align:top;">local_hosts</td><td style="vertical-align:top;">:</td><td><div><table><tr><td><div>vps433020</div></td></tr><tr><td><div>::ffff:127.0.0.1</div></td></tr><tr><td><div>::1</div></td></tr><tr><td><div>151.80.57.169</div></td></tr><tr><td><div>vps433020.ovh.net</div></td></tr><tr><td><div>127.0.1.1</div></td></tr><tr><td><div>127.0.0.1</div></td></tr></table></div></td></tr><tr><td style="font-weight:bold;vertical-align:top;">web2py_version</td><td style="vertical-align:top;">:</td><td><div>2.15.1-stable+timestamp.2017.07.10.21.25.06</div></td></tr></table></div></td></tr><tr><td style="font-weight:bold;vertical-align:top;">is_https</td><td style="vertical-align:top;">:</td><td><div>True</div></td></tr><tr><td style="font-weight:bold;vertical-align:top;">is_local</td><td style="vertical-align:top;">:</td><td><div>False</div></td></tr><tr><td style="font-weight:bold;vertical-align:top;">is_restful</td><td style="vertical-align:top;">:</td><td><div>False</div></td></tr><tr><td style="font-weight:bold;vertical-align:top;">is_scheduler</td><td style="vertical-align:top;">:</td><td><div>False</div></td></tr><tr><td style="font-weight:bold;vertical-align:top;">is_shell</td><td style="vertical-align:top;">:</td><td><div>False</div></td></tr><tr><td style="font-weight:bold;vertical-align:top;">now</td><td style="vertical-align:top;">:</td><td><div>datetime.datetime(2017, 9, 3, 22, 2, 16, 189580)</div></td></tr><tr><td style="font-weight:bold;vertical-align:top;">url</td><td style="vertical-align:top;">:</td><td><div>/obsas_dev/fiches/test</div></td></tr><tr><td style="font-weight:bold;vertical-align:top;">utcnow</td><td style="vertical-align:top;">:</td><td><div>datetime.datetime(2017, 9, 3, 20, 2, 16, 189606)</div></td></tr><tr><td style="font-weight:bold;vertical-align:top;">wsgi</td><td style="vertical-align:top;">:</td><td><div>&lt;gluon.main.LazyWSGI object at 0x7f82f14f66d0&gt;</div></td></tr></table></div>'
tRp64
sS'frames'
p65
(lp66
(dp67
S'file'
p68
S'/home/www-data/web2py/gluon/restricted.py'
p69
sS'dump'
p70
(dp71
S'environment'
p72
S"{'A': <class 'gluon.html.A'>, 'ANY_OF': <class 'gluon.validators.ANY_OF'>, 'ASSIGNJS': <function ASSIGNJS>, 'AppCache': <class __restricted__.AppCache>, 'AppConfig': <function AppConfig>, 'Auth': <class 'gluon.tools.Auth'>, 'B': <class 'gluon.html.B'>, 'BEAUTIFY': <class 'gluon.html.BEAUTIFY'>, 'BODY': <class 'gluon.html.BODY'>, 'BR': <class 'gluon.html.BR'>, ...}"
p73
sS'ccode'
p74
S'<code object <module> at 0x7f82f15ea9b0, file "/...cations/obsas_dev/controllers/fiches.py", line 6>'
p75
ssS'lnum'
p76
I219
sS'lines'
p77
(dp78
I214
S'    if environment is None:'
p79
sI215
S'        environment = {}'
p80
sI216
S"    environment['__file__'] = layer"
p81
sI217
S"    environment['__name__'] = '__restricted__'"
p82
sI218
S'    try:'
p83
sI219
S'        exec(ccode, environment)'
p84
sI220
S'    except HTTP:'
p85
sI221
S'        raise'
p86
sI222
S'    except RestrictedError:'
p87
sI223
S'        # do not encapsulate (obfuscate) the original RestrictedError'
p88
ssS'call'
p89
S'(ccode=<code object <module> at 0x7f82f15ea9b0, file "/...cations/obsas_dev/controllers/fiches.py", line 6>, environment={\'A\': <class \'gluon.html.A\'>, \'ANY_OF\': <class \'gluon.validators.ANY_OF\'>, \'ASSIGNJS\': <function ASSIGNJS>, \'AppCache\': <class __restricted__.AppCache>, \'AppConfig\': <function AppConfig>, \'Auth\': <class \'gluon.tools.Auth\'>, \'B\': <class \'gluon.html.B\'>, \'BEAUTIFY\': <class \'gluon.html.BEAUTIFY\'>, \'BODY\': <class \'gluon.html.BODY\'>, \'BR\': <class \'gluon.html.BR\'>, ...}, layer=\'/home/www-data/web2py/applications/obsas_dev/controllers/fiches.py\')'
p90
sS'func'
p91
S'restricted'
p92
sa(dp93
g68
S'/home/www-data/web2py/applications/obsas_dev/controllers/fiches.py'
p94
sg70
(dp95
sg76
I305
sg77
(dp96
I294
S'def organe():'
p97
sI295
S"    id = request.vars.get('id','welou')"
p98
sI296
S"    organe = mdb.organes.find_one({'uid':id})"
p99
sI297
S'    if not organe:'
p100
sI298
S"        redirect(URL(c='default',f='notfound'))"
p101
sI299
S"    if organe['codeType']=='GP':"
p102
sI300
S"        redirect(URL('groupe',vars={'id':organe['libelleAbrev']}))"
p103
sI301
S'    return "TODO"'
p104
sI302
S'def depute2():'
p105
sI303
S'    return depute()'
p106
ssg89
S'()'
p107
sg91
S'<module>'
p108
sa(dp109
g68
S'/home/www-data/web2py/gluon/globals.py'
p110
sg70
(dp111
S'self'
p112
S'undefined'
p113
sS'f'
S'<function test>'
p114
ssg76
I409
sg77
(dp115
I404
S"        self.flash = ''            # used by the default view layout"
p116
sI405
S'        self.meta = Storage()      # used by web2py_ajax.html'
p117
sI406
S'        self.menu = []             # used by the default view layout'
p118
sI407
S'        self.files = []            # used by web2py_ajax.html'
p119
sI408
S'        self._vars = None'
p120
sI409
S'        self._caller = lambda f: f()'
p121
sI410
S'        self._view_environment = None'
p122
sI411
S'        self._custom_commit = None'
p123
sI412
S'        self._custom_rollback = None'
p124
sI413
S"        self.generic_patterns = ['*']"
p125
ssg89
S'(f=<function test>)'
p126
sg91
S'<lambda>'
p127
sa(dp128
g68
S'/home/www-data/web2py/applications/obsas_dev/controllers/fiches.py'
p129
sg70
(dp130
S'a'
g113
sS'global json'
p131
S"<module 'json' from '/usr/lib/python2.7/json/__init__.pyc'>"
p132
sS'json.dumps'
p133
S'<function dumps>'
p134
sS'global mdb'
p135
S"Database(MongoClient(host=['localhost:27017'], d...ss=dict, tz_aware=False, connect=True), u'obsas')"
p136
sS'mdb.acteurs'
p137
S"Collection(Database(MongoClient(host=['localhost...ware=False, connect=True), u'obsas'), u'acteurs')"
p138
sS'mdb.acteurs.find'
p139
S"<bound method Collection.find of Collection(Data...are=False, connect=True), u'obsas'), u'acteurs')>"
p140
sS'deplist'
p141
S'\'["PA605036", "PA719866", "PA720242", "PA719146",..., "PA722110", "PA720318", "PA718962", "PA267330"]\''
p142
ssg76
I16
sg77
(dp143
I11
S'    return dict(message="hello from fiches.py")'
p144
sI12
S'import json'
p145
sI13
S''
sI14
S'def test():'
p146
sI15
S'    deplist = \'["PA605036", "PA719866", "PA720242", "PA719146", "PA722038", "PA721036", "PA718954", "PA605963", "PA724827", "PA720798", "PA720124", "PA721278", "PA606675", "PA721158", "PA719318", "PA719100", "PA720310", "PA722190", "PA609726", "PA719806", "PA588884", "PA721624", "PA642764", "PA610634", "PA719770", "PA718744", "PA721776", "PA719558", "PA720256", "PA642724", "PA610681", "PA721836", "PA721046", "PA335999", "PA342415", "PA721522", "PA642847", "PA718884", "PA722170", "PA720210", "PA642935", "PA720362", "PA441", "PA720968", "PA332228", "PA722046", "PA720430", "PA719488", "PA719218", "PA718876", "PA722312", "PA508", "PA720822", "PA718990", "PA719024", "PA608641", "PA720576", "PA720162", "PA721344", "PA721410", "PA718756", "PA266793", "PA719980", "PA642695", "PA721816", "PA336316", "PA606507", "PA267233", "PA608083", "PA721608", "PA722030", "PA719032", "PA718710", "PA330684", "PA721908", "PA713448", "PA330008", "PA267766", "PA605069", "PA672", "PA721336", "PA223837", "PA721118", "PA720772", "PA721328", "PA719890", "PA718838", "PA720546", "PA720116", "PA722000", "PA689", "PA720622", "PA719496", "PA721750", "PA720298", "PA429893", "PA746", "PA719138", "PA720520", "PA767", "PA719922", "PA721352", "PA721166", "PA719472", "PA720814", "PA719440", "PA721860", "PA719748", "PA719790", "PA719448", "PA721218", "PA719170", "PA267306", "PA719250", "PA720468", "PA856", "PA722126", "PA642868", "PA267429", "PA330240", "PA702054", "PA719294", "PA336439", "PA719756", "PA719740", "PA719814", "PA606212", "PA719286", "PA721202", "PA721210", "PA718850", "PA719118", "PA722390", "PA923", "PA719624", "PA721808", "PA719266", "PA942", "PA719194", "PA720932", "PA332523", "PA720268", "PA607155", "PA998", "PA1008", "PA719710", "PA720538", "PA1029", "PA721398", "PA718694", "PA267450", "PA719258", "PA267241", "PA719830", "PA720598", "PA720696", "PA330909", "PA720862", "PA718926", "PA720386", "PA720438", "PA267440", "PA722382", "PA712015", "PA722236", "PA721718", "PA718894", "PA267289", "PA608292", "PA719162", "PA342935", "PA719660", "PA719684", "PA720154", "PA608826", "PA720046", "PA718720", "PA606202", "PA721194", "PA1198", "PA720684", "PA721094", "PA643175", "PA1206", "PA330357", "PA720652", "PA267735", "PA331567", "PA719310", "PA721670", "PA332747", "PA717151", "PA721924", "PA1012", "PA720996", "PA720002", "PA719692", "PA720924", "PA607193", "PA719044", "PA719616", "PA720664", "PA719570", "PA721564", "PA605694", "PA1276", "PA334149", "PA721896", "PA609332", "PA719960", "PA721702", "PA267042", "PA606171", "PA643103", "PA719938", "PA720286", "PA722134", "PA267780", "PA721742", "PA267673", "PA718706", "PA721384", "PA1327", "PA721142", "PA720030", "PA722284", "PA722366", "PA266774", "PA719480", "PA721246", "PA720198", "PA721992", "PA720178", "PA333285", "PA722358", "PA267324", "PA721364", "PA720806", "PA721024", "PA605991", "PA719108", "PA719326", "PA720222", "PA267336", "PA718674", "PA1498", "PA610775", "PA721784", "PA266797", "PA721296", "PA720560", "PA719330", "PA720170", "PA722062", "PA720790", "PA721764", "PA267318", "PA721792", "PA721498", "PA721880", "PA721126", "PA1592", "PA695100", "PA722054", "PA719652", "PA720326", "PA720054", "PA722094", "PA722070", "PA1630", "PA718794", "PA267355", "PA608416", "PA721150", "PA720454", "PA722150", "PA719700", "PA333818", "PA267200", "PA331835", "PA722374", "PA1695", "PA720354", "PA719874", "PA720074", "PA267801", "PA719060", "PA719778", "PA719210", "PA720038", "PA332614", "PA722344", "PA722202", "PA267901", "PA719994", "PA335054", "PA719372", "PA721514", "PA719230", "PA719052", "PA719186", "PA722300", "PA721644", "PA605084", "PA720202", "PA720214", "PA721506", "PA719842", "PA719798", "PA720846", "PA609245", "PA268019", "PA719504", "PA719918", "PA721004", "PA1809", "PA605518", "PA643205", "PA718978", "PA721434", "PA718868", "PA267785", "PA719396", "PA1838", "PA720764", "PA721984", "PA720022", "PA720916", "PA719728", "PA719412", "PA588886", "PA1874", "PA719404", "PA721466", "PA345722", "PA719388", "PA720342", "PA720614", "PA719006", "PA721852", "PA722228", "PA340853", "PA720480", "PA335612", "PA712014", "PA722008", "PA722320", "PA721450", "PA1960", "PA721134", "PA337483", "PA267378", "PA719858", "PA720378", "PA720446", "PA721054", "PA718918", "PA608016", "PA721530", "PA606712", "PA722244", "PA720230", "PA717379", "PA719718", "PA722178", "PA720988", "PA346054", "PA334116", "PA721946", "PA606098", "PA2086", "PA719080", "PA719154", "PA720146", "PA346218", "PA720976", "PA721800", "PA720728", "PA721726", "PA677483", "PA720870", "PA719338", "PA2150", "PA719608", "PA720370", "PA2155", "PA719072", "PA719640", "PA719272", "PA719882", "PA719130", "PA721734", "PA720738", "PA721418", "PA721976", "PA720630", "PA719668", "PA719952", "PA607619", "PA719456", "PA719242", "PA266788", "PA721876", "PA719850", "PA720908", "PA721254", "PA721656", "PA719464", "PA721486", "PA610654", "PA719520", "PA720644", "PA721956", "PA719364", "PA721960", "PA720108", "PA720278", "PA720492", "PA720334", "PA720606", "PA720402", "PA333421", "PA719632", "PA720892", "PA721636", "PA719202", "PA720944", "PA335532", "PA718784", "PA607595", "PA719946", "PA718802", "PA720414", "PA2377", "PA721568", "PA718930", "PA721182", "PA721234", "PA720500", "PA721270", "PA718736", "PA721710", "PA721372", "PA720512", "PA336175", "PA608172", "PA721844", "PA718910", "PA267260", "PA693008", "PA609520", "PA2449", "PA719528", "PA607553", "PA720590", "PA720720", "PA719600", "PA721916", "PA720100", "PA719578", "PA608011", "PA405480", "PA720422", "PA2492", "PA643127", "PA609590", "PA718944", "PA721286", "PA721070", "PA720092", "PA721888", "PA721062", "PA720552", "PA722398", "PA721678", "PA266776", "PA2529", "PA721824", "PA719676", "PA330788", "PA335758", "PA720900", "PA721426", "PA720066", "PA722252", "PA718810", "PA610733", "PA266808", "PA722022", "PA721458", "PA721600", "PA343493", "PA718902", "PA720692", "PA721226", "PA722292", "PA722142", "PA721616", "PA267527", "PA702052", "PA720878", "PA720138", "PA721110", "PA719972", "PA340343", "PA722078", "PA721314", "PA720780", "PA267204", "PA720960", "PA610667", "PA719592", "PA346876", "PA719420", "PA721174", "PA720190", "PA334654", "PA720754", "PA722118", "PA267794", "PA720952", "PA719350", "PA721690", "PA719550", "PA722086", "PA2792", "PA718860", "PA2796", "PA721584", "PA720854", "PA722336", "PA720568", "PA719822", "PA720830", "PA719302", "PA720014", "PA334768", "PA2828", "PA719540", "PA718780", "PA720394", "PA718682", "PA719092", "PA722162", "PA608695", "PA643145", "PA643134", "PA718768", "PA719930", "PA267622", "PA718728", "PA720586", "PA642788", "PA267585", "PA334843", "PA721542", "PA709315", "PA721968", "PA720704", "PA722102", "PA607090", "PA331582", "PA606639", "PA719512", "PA722260", "PA421348", "PA721474", "PA721262", "PA2952", "PA720746", "PA2960", "PA722268", "PA722110", "PA720318", "PA718962", "PA267330"]\''
p147
sI16
S"    return json.dumps([(a['uid'],a['nomcomplet']) for a in mdb.acteurs.find({'uid':{'$nin',deplist}})])"
p148
sI17
S"    act = mdb.acteurs.find_one({'uid':'PA2150'})"
p149
sI18
S"    del act['_id']"
p150
sI19
S"    return json.dumps(act,sort_keys=True, indent=4, separators=(',', ': '))"
p151
sI20
S"    return json.dumps(mdb.acteurs.find_one({'$and':[ {'deputywatch':{'$ne':None}},{'hatvp':{'$ne':[]}}]})['rankings'])"
p152
ssg89
S'()'
p153
sg91
S'test'
p154
sa(dp155
g68
S'/home/www-data/web2py/applications/obsas_dev/.pyenv/local/lib/python2.7/site-packages/pymongo/cursor.py'
p156
sg70
(dp157
S'builtinlen'
p158
S'<built-in function len>'
p159
sS'self'
p160
S'<pymongo.cursor.Cursor object>'
p161
sS'self.__data'
p162
g113
sS'self._refresh'
p163
S'<bound method Cursor._refresh of <pymongo.cursor.Cursor object>>'
p164
ssg76
I1114
sg77
(dp165
I1109
S'    def next(self):'
p166
sI1110
S'        """Advance the cursor."""'
p167
sI1111
S'        if self.__empty:'
p168
sI1112
S'            raise StopIteration'
p169
sI1113
S'        _db = self.__collection.database'
p170
sI1114
S'        if len(self.__data) or self._refresh():'
p171
sI1115
S'            if self.__manipulate:'
p172
sI1116
S'                return _db._fix_outgoing(self.__data.popleft(),'
p173
sI1117
S'                                         self.__collection)'
p174
sI1118
S'            else:'
p175
ssg89
S'(self=<pymongo.cursor.Cursor object>)'
p176
sg91
S'next'
p177
sa(dp178
g68
S'/home/www-data/web2py/applications/obsas_dev/.pyenv/local/lib/python2.7/site-packages/pymongo/cursor.py'
p179
sg70
(dp180
S'self'
p181
S'<pymongo.cursor.Cursor object>'
p182
sS'self.__collation'
p183
g113
ssg76
I1036
sg77
(dp184
I1031
S'                                       self.__codec_options,'
p185
sI1032
S'                                       self.__read_preference,'
p186
sI1033
S'                                       self.__limit,'
p187
sI1034
S'                                       self.__batch_size,'
p188
sI1035
S'                                       self.__read_concern,'
p189
sI1036
S'                                       self.__collation))'
p190
sI1037
S'            if not self.__id:'
p191
sI1038
S'                self.__killed = True'
p192
sI1039
S'        elif self.__id:  # Get More'
p193
sI1040
S'            if self.__limit:'
p194
ssg89
S'(self=<pymongo.cursor.Cursor object>)'
p195
sg91
S'_refresh'
p196
sa(dp197
g68
S'/home/www-data/web2py/applications/obsas_dev/.pyenv/local/lib/python2.7/site-packages/pymongo/cursor.py'
p198
sg70
(dp199
S'kwargs'
p200
S"{'exhaust': False, 'read_preference': Primary()}"
p201
ssg76
I873
sg77
(dp202
I868
S'            if self.__address is not None:'
p203
sI869
S'                kwargs["address"] = self.__address'
p204
sI870
S''
sI871
S'            try:'
p205
sI872
S'                response = client._send_message_with_response(operation,'
p206
sI873
S'                                                              **kwargs)'
p207
sI874
S'                self.__address = response.address'
p208
sI875
S'                if self.__exhaust:'
p209
sI876
S"                    # 'response' is an ExhaustResponse."
p210
sI877
S'                    self.__exhaust_mgr = _SocketManager(response.socket_info,'
p211
ssg89
S'(self=<pymongo.cursor.Cursor object>, operation=<pymongo.message._Query object>)'
p212
sg91
S'__send_message'
p213
sa(dp214
g68
S'/home/www-data/web2py/applications/obsas_dev/.pyenv/local/lib/python2.7/site-packages/pymongo/mongo_client.py'
p215
sg70
(dp216
S'exhaust'
p217
S'False'
p218
ssg76
I905
sg77
(dp219
I900
S'            server.send_message_with_response,'
p220
sI901
S'            operation,'
p221
sI902
S'            set_slave_ok,'
p222
sI903
S'            self.__all_credentials,'
p223
sI904
S'            self._event_listeners,'
p224
sI905
S'            exhaust)'
p225
sI906
S''
sI907
S'    def _reset_on_error(self, server, func, *args, **kwargs):'
p226
sI908
S'        """Execute an operation. Reset the server on network error.'
p227
sI909
S''
ssg89
S"(self=MongoClient(host=['localhost:27017'], document_class=dict, tz_aware=False, connect=True), operation=<pymongo.message._Query object>, read_preference=Primary(), exhaust=False, address=None)"
p228
sg91
S'_send_message_with_response'
p229
sa(dp230
g68
S'/home/www-data/web2py/applications/obsas_dev/.pyenv/local/lib/python2.7/site-packages/pymongo/mongo_client.py'
p231
sg70
(dp232
S'args'
p233
S'(<pymongo.message._Query object>, True, {}, <pymongo.monitoring._EventListeners object>, False)'
p234
sS'func'
p235
S'<bound method Server.send_message_with_response of <pymongo.server.Server object>>'
p236
sS'kwargs'
p237
g21
ssg76
I916
sg77
(dp238
I911
S'        pool and marks the server Unknown.'
p239
sI912
S''
sI913
S'        Re-raises any exception thrown by fn().'
p240
sI914
S'        """'
p241
sI915
S'        try:'
p242
sI916
S'            return func(*args, **kwargs)'
p243
sI917
S'        except NetworkTimeout:'
p244
sI918
S"            # The socket has been closed. Don't reset the server."
p245
sI919
S'            raise'
p246
sI920
S'        except ConnectionFailure:'
p247
ssg89
S"(self=MongoClient(host=['localhost:27017'], document_class=dict, tz_aware=False, connect=True), server=<pymongo.server.Server object>, func=<bound method Server.send_message_with_response of <pymongo.server.Server object>>, *args=(<pymongo.message._Query object>, True, {}, <pymongo.monitoring._EventListeners object>, False), **kwargs={})"
p248
sg91
S'_reset_on_error'
p249
sa(dp250
g68
S'/home/www-data/web2py/applications/obsas_dev/.pyenv/local/lib/python2.7/site-packages/pymongo/server.py'
p251
sg70
(dp252
S'sock_info.is_mongos'
p253
g218
sS'use_find_cmd'
p254
g218
sS'set_slave_okay'
p255
S'True'
p256
sS'sock_info'
p257
S'SocketInfo(<socket._socketobject object at 0x7f82cdf72440>) at 140200371533456'
p258
ssg76
I124
sg77
(dp259
I128
S'                encoding_duration = datetime.now() - start'
p260
sI119
S'                    operation.collation is not None):'
p261
sI120
S'                raise ConfigurationError('
p262
sI121
S"                    'Specifying a collation is unsupported with a max wire '"
p263
sI122
S"                    'version of %d.' % (sock_info.max_wire_version,))"
p264
sI123
S'            message = operation.get_message('
p265
sI124
S'                set_slave_okay, sock_info.is_mongos, use_find_cmd)'
p266
sI125
S'            request_id, data, max_doc_size = self._split_message(message)'
p267
sI126
S''
sI127
S'            if publish:'
p268
ssg89
S'(self=<pymongo.server.Server object>, operation=<pymongo.message._Query object>, set_slave_okay=True, all_credentials={}, listeners=<pymongo.monitoring._EventListeners object>, exhaust=False)'
p269
sg91
S'send_message_with_response'
p270
sa(dp271
g68
S'/home/www-data/web2py/applications/obsas_dev/.pyenv/local/lib/python2.7/site-packages/pymongo/message.py'
p272
sg70
(dp273
S'self.fields'
p274
S'None'
p275
sS'self'
p276
S'<pymongo.message._Query object>'
p277
sS'spec'
p278
S'{\'uid\': set([\'$nin\', \'["PA605036", "PA719866", "PA720242", "PA719146",..., "PA722110", "PA720318", "PA718962", "PA267330"]\'])}'
p279
sS'self.codec_options'
p280
S"CodecOptions(document_class=dict, tz_aware=False...icode_decode_error_handler='strict', tzinfo=None)"
p281
ssg76
I291
sg77
(dp282
I288
S'                                              self.read_preference)'
p283
sI289
S''
sI290
S'        return query(flags, ns, self.ntoskip, ntoreturn,'
p284
sI291
S'                     spec, self.fields, self.codec_options)'
p285
sI292
S''
sI293
S''
sI294
S'class _GetMore(object):'
p286
sI295
S'    """A getmore operation."""'
p287
sI286
S'        if is_mongos:'
p288
sI287
S'            spec = _maybe_add_read_preference(spec,'
p289
ssg89
S'(self=<pymongo.message._Query object>, set_slave_ok=True, is_mongos=False, use_cmd=False)'
p290
sg91
S'get_message'
p291
sasS'pyver'
p292
S'Python 2.7.12: /home/www-data/web2py/applications/obsas_dev/.pyenv/bin/python (prefix: /home/www-data/web2py/applications/obsas_dev/.pyenv)'
p293
sS'session'
p294
g63
(S's\x1a\x00\x00\x00<div><table></table></div>'
tRp295
sS'etype'
p296
S"<class 'bson.errors.InvalidDocument'>"
p297
sS'date'
p298
S'Sun Sep  3 22:02:16 2017'
p299
sS'response'
p300
g63
(S's<>\x00\x00<div><table><tr><td style="font-weight:bold;vertical-align:top;">body</td><td style="vertical-align:top;">:</td><td><div>&lt;cStringIO.StringO object at 0x7f82f156f500&gt;</div></td></tr><tr><td style="font-weight:bold;vertical-align:top;">cookies</td><td style="vertical-align:top;">:</td><td><div><table><tr><td style="font-weight:bold;vertical-align:top;">session_id_obsas_dev</td><td style="vertical-align:top;">:</td><td><div>83.203.171.193-1927b33b-df5f-4481-bea1-08381c57fe7e<table><tr><td style="font-weight:bold;vertical-align:top;">comment</td><td style="vertical-align:top;">:</td><td><div></div></td></tr><tr><td style="font-weight:bold;vertical-align:top;">domain</td><td style="vertical-align:top;">:</td><td><div></div></td></tr><tr><td style="font-weight:bold;vertical-align:top;">expires</td><td style="vertical-align:top;">:</td><td><div></div></td></tr><tr><td style="font-weight:bold;vertical-align:top;">httponly</td><td style="vertical-align:top;">:</td><td><div></div></td></tr><tr><td style="font-weight:bold;vertical-align:top;">max-age</td><td style="vertical-align:top;">:</td><td><div></div></td></tr><tr><td style="font-weight:bold;vertical-align:top;">path</td><td style="vertical-align:top;">:</td><td><div>/</div></td></tr><tr><td style="font-weight:bold;vertical-align:top;">secure</td><td style="vertical-align:top;">:</td><td><div></div></td></tr><tr><td style="font-weight:bold;vertical-align:top;">version</td><td style="vertical-align:top;">:</td><td><div></div></td></tr></table></div></td></tr></table></div></td></tr><tr><td style="font-weight:bold;vertical-align:top;">delimiters</td><td style="vertical-align:top;">:</td><td><div><table><tr><td><div>{{</div></td></tr><tr><td><div>}}</div></td></tr></table></div></td></tr><tr><td style="font-weight:bold;vertical-align:top;">files</td><td style="vertical-align:top;">:</td><td><div><table></table></div></td></tr><tr><td style="font-weight:bold;vertical-align:top;">flash</td><td style="vertical-align:top;">:</td><td><div></div></td></tr><tr><td style="font-weight:bold;vertical-align:top;">form_label_separator</td><td style="vertical-align:top;">:</td><td><div></div></td></tr><tr><td style="font-weight:bold;vertical-align:top;">formstyle</td><td style="vertical-align:top;">:</td><td><div>bootstrap3_inline</div></td></tr><tr><td style="font-weight:bold;vertical-align:top;">generic_patterns</td><td style="vertical-align:top;">:</td><td><div><table></table></div></td></tr><tr><td style="font-weight:bold;vertical-align:top;">google_analytics_id</td><td style="vertical-align:top;">:</td><td><div>None</div></td></tr><tr><td style="font-weight:bold;vertical-align:top;">headers</td><td style="vertical-align:top;">:</td><td><div><table><tr><td style="font-weight:bold;vertical-align:top;">X-Powered-By</td><td style="vertical-align:top;">:</td><td><div>web2py</div></td></tr></table></div></td></tr><tr><td style="font-weight:bold;vertical-align:top;">logo</td><td style="vertical-align:top;">:</td><td><div><a class="navbar-brand" href="http://www.web2py.com/" id="web2py-logo"><b>web<span>2</span>py</b>&trade;&nbsp;</a></div></td></tr><tr><td style="font-weight:bold;vertical-align:top;">menu</td><td style="vertical-align:top;">:</td><td><div><table><tr><td><div><table><tr><td><div>Accueil</div></td></tr><tr><td><div>False</div></td></tr><tr><td><div>/obsas_dev</div></td></tr><tr><td><div><table></table></div></td></tr></table></div></td></tr><tr><td><div><table><tr><td><div>Mes sites</div></td></tr><tr><td><div>False</div></td></tr><tr><td><div>/admin/site</div></td></tr></table></div></td></tr><tr><td><div><table><tr><td><div>Cette Appli</div></td></tr><tr><td><div>False</div></td></tr><tr><td><div>#</div></td></tr><tr><td><div><table><tr><td><div><table><tr><td><div>Design</div></td></tr><tr><td><div>False</div></td></tr><tr><td><div>/admin/design/obsas_dev</div></td></tr></table></div></td></tr><tr><td><div><li class="divider"></li></div></td></tr><tr><td><div><table><tr><td><div>Contr\xc3\xb4leur</div></td></tr><tr><td><div>False</div></td></tr><tr><td><div>/admin/edit/obsas_dev/controllers/fiches.py</div></td></tr></table></div></td></tr><tr><td><div><table><tr><td><div>Pr\xc3\xa9sentation</div></td></tr><tr><td><div>False</div></td></tr><tr><td><div>/admin/edit/obsas_dev/views/fiches/test.html</div></td></tr></table></div></td></tr><tr><td><div><table><tr><td><div>Mod\xc3\xa8le BD</div></td></tr><tr><td><div>False</div></td></tr><tr><td><div>/admin/edit/obsas_dev/models/db.py</div></td></tr></table></div></td></tr><tr><td><div><table><tr><td><div>Menu mod\xc3\xa8le</div></td></tr><tr><td><div>False</div></td></tr><tr><td><div>/admin/edit/obsas_dev/models/menu.py</div></td></tr></table></div></td></tr><tr><td><div><table><tr><td><div>Config.ini</div></td></tr><tr><td><div>False</div></td></tr><tr><td><div>/admin/edit/obsas_dev/private/appconfig.ini</div></td></tr></table></div></td></tr><tr><td><div><table><tr><td><div>Mise en page</div></td></tr><tr><td><div>False</div></td></tr><tr><td><div>/admin/edit/obsas_dev/views/layout.html</div></td></tr></table></div></td></tr><tr><td><div><table><tr><td><div>Feuille de style</div></td></tr><tr><td><div>False</div></td></tr><tr><td><div>/admin/edit/obsas_dev/static/css/web2py-bootstrap3.css</div></td></tr></table></div></td></tr><tr><td><div><table><tr><td><div>base de donn\xc3\xa9es</div></td></tr><tr><td><div>False</div></td></tr><tr><td><div>/obsas_dev/appadmin</div></td></tr></table></div></td></tr><tr><td><div><table><tr><td><div>Erreurs</div></td></tr><tr><td><div>False</div></td></tr><tr><td><div>/admin/errors/obsas_dev</div></td></tr></table></div></td></tr><tr><td><div><table><tr><td><div>\xc3\x80 propos</div></td></tr><tr><td><div>False</div></td></tr><tr><td><div>/admin/about/obsas_dev</div></td></tr></table></div></td></tr></table></div></td></tr></table></div></td></tr><tr><td><div><table><tr><td><div>web2py.com</div></td></tr><tr><td><div>False</div></td></tr><tr><td><div>#</div></td></tr><tr><td><div><table><tr><td><div><table><tr><td><div>T\xc3\xa9l\xc3\xa9chargement</div></td></tr><tr><td><div>False</div></td></tr><tr><td><div>http://www.web2py.com/examples/default/download</div></td></tr></table></div></td></tr><tr><td><div><table><tr><td><div>Soutien</div></td></tr><tr><td><div>False</div></td></tr><tr><td><div>http://www.web2py.com/examples/default/support</div></td></tr></table></div></td></tr><tr><td><div><table><tr><td><div>D\xc3\xa9mo</div></td></tr><tr><td><div>False</div></td></tr><tr><td><div>http://web2py.com/demo_admin</div></td></tr></table></div></td></tr><tr><td><div><table><tr><td><div>Exemples Rapides</div></td></tr><tr><td><div>False</div></td></tr><tr><td><div>http://web2py.com/examples/default/examples</div></td></tr></table></div></td></tr><tr><td><div><table><tr><td><div>FAQ</div></td></tr><tr><td><div>False</div></td></tr><tr><td><div>http://web2py.com/AlterEgo</div></td></tr></table></div></td></tr><tr><td><div><table><tr><td><div>Vid\xc3\xa9os</div></td></tr><tr><td><div>False</div></td></tr><tr><td><div>http://www.web2py.com/examples/default/videos/</div></td></tr></table></div></td></tr><tr><td><div><table><tr><td><div>Applications gratuites</div></td></tr><tr><td><div>False</div></td></tr><tr><td><div>http://web2py.com/appliances</div></td></tr></table></div></td></tr><tr><td><div><table><tr><td><div>Plugiciels</div></td></tr><tr><td><div>False</div></td></tr><tr><td><div>http://web2py.com/plugins</div></td></tr></table></div></td></tr><tr><td><div><table><tr><td><div>Recettes</div></td></tr><tr><td><div>False</div></td></tr><tr><td><div>http://web2pyslices.com/</div></td></tr></table></div></td></tr></table></div></td></tr></table></div></td></tr><tr><td><div><table><tr><td><div>Documentation</div></td></tr><tr><td><div>False</div></td></tr><tr><td><div>#</div></td></tr><tr><td><div><table><tr><td><div><table><tr><td><div>Online book</div></td></tr><tr><td><div>False</div></td></tr><tr><td><div>http://www.web2py.com/book</div></td></tr></table></div></td></tr><tr><td><div><li class="divider"></li></div></td></tr><tr><td><div><table><tr><td><div>Pr\xc3\xa9face</div></td></tr><tr><td><div>False</div></td></tr><tr><td><div>http://www.web2py.com/book/default/chapter/00</div></td></tr></table></div></td></tr><tr><td><div><table><tr><td><div>Pr\xc3\xa9sentation</div></td></tr><tr><td><div>False</div></td></tr><tr><td><div>http://www.web2py.com/book/default/chapter/01</div></td></tr></table></div></td></tr><tr><td><div><table><tr><td><div>Python</div></td></tr><tr><td><div>False</div></td></tr><tr><td><div>http://www.web2py.com/book/default/chapter/02</div></td></tr></table></div></td></tr><tr><td><div><table><tr><td><div>Pr\xc3\xa9sentation</div></td></tr><tr><td><div>False</div></td></tr><tr><td><div>http://www.web2py.com/book/default/chapter/03</div></td></tr></table></div></td></tr><tr><td><div><table><tr><td><div>Le noyau</div></td></tr><tr><td><div>False</div></td></tr><tr><td><div>http://www.web2py.com/book/default/chapter/04</div></td></tr></table></div></td></tr><tr><td><div><table><tr><td><div>Les Vues</div></td></tr><tr><td><div>False</div></td></tr><tr><td><div>http://www.web2py.com/book/default/chapter/05</div></td></tr></table></div></td></tr><tr><td><div><table><tr><td><div>base de donn\xc3\xa9es</div></td></tr><tr><td><div>False</div></td></tr><tr><td><div>http://www.web2py.com/book/default/chapter/06</div></td></tr></table></div></td></tr><tr><td><div><table><tr><td><div>Formulaires et Validateurs</div></td></tr><tr><td><div>False</div></td></tr><tr><td><div>http://www.web2py.com/book/default/chapter/07</div></td></tr></table></div></td></tr><tr><td><div><table><tr><td><div>Courriel et texto</div></td></tr><tr><td><div>False</div></td></tr><tr><td><div>http://www.web2py.com/book/default/chapter/08</div></td></tr></table></div></td></tr><tr><td><div><table><tr><td><div>Contr\xc3\xb4le d\'acc\xc3\xa8s</div></td></tr><tr><td><div>False</div></td></tr><tr><td><div>http://www.web2py.com/book/default/chapter/09</div></td></tr></table></div></td></tr><tr><td><div><table><tr><td><div>Services</div></td></tr><tr><td><div>False</div></td></tr><tr><td><div>http://www.web2py.com/book/default/chapter/10</div></td></tr></table></div></td></tr><tr><td><div><table><tr><td><div>Recettes Ajax</div></td></tr><tr><td><div>False</div></td></tr><tr><td><div>http://www.web2py.com/book/default/chapter/11</div></td></tr></table></div></td></tr><tr><td><div><table><tr><td><div>Composants et Plugiciels</div></td></tr><tr><td><div>False</div></td></tr><tr><td><div>http://www.web2py.com/book/default/chapter/12</div></td></tr></table></div></td></tr><tr><td><div><table><tr><td><div>Recettes de d\xc3\xa9ploiement</div></td></tr><tr><td><div>False</div></td></tr><tr><td><div>http://www.web2py.com/book/default/chapter/13</div></td></tr></table></div></td></tr><tr><td><div><table><tr><td><div>Autres recettes</div></td></tr><tr><td><div>False</div></td></tr><tr><td><div>http://www.web2py.com/book/default/chapter/14</div></td></tr></table></div></td></tr><tr><td><div><table><tr><td><div>Aider web2py</div></td></tr><tr><td><div>False</div></td></tr><tr><td><div>http://www.web2py.com/book/default/chapter/15</div></td></tr></table></div></td></tr><tr><td><div><table><tr><td><div>Buy web2py\'s book</div></td></tr><tr><td><div>False</div></td></tr><tr><td><div>http://stores.lulu.com/web2py</div></td></tr></table></div></td></tr></table></div></td></tr></table></div></td></tr><tr><td><div><table><tr><td><div>Communaut\xc3\xa9</div></td></tr><tr><td><div>False</div></td></tr><tr><td><div>None</div></td></tr><tr><td><div><table><tr><td><div><table><tr><td><div>Groupes</div></td></tr><tr><td><div>False</div></td></tr><tr><td><div>http://www.web2py.com/examples/default/usergroups</div></td></tr></table></div></td></tr><tr><td><div><table><tr><td><div>Twitter</div></td></tr><tr><td><div>False</div></td></tr><tr><td><div>http://twitter.com/web2py</div></td></tr></table></div></td></tr><tr><td><div><table><tr><td><div>Clavardage en direct</div></td></tr><tr><td><div>False</div></td></tr><tr><td><div>http://webchat.freenode.net/?channels=web2py</div></td></tr></table></div></td></tr></table></div></td></tr></table></div></td></tr></table></div></td></tr><tr><td style="font-weight:bold;vertical-align:top;">meta</td><td style="vertical-align:top;">:</td><td><div><table><tr><td style="font-weight:bold;vertical-align:top;">author</td><td style="vertical-align:top;">:</td><td><div>Your Name &lt;you@example.com&gt;</div></td></tr><tr><td style="font-weight:bold;vertical-align:top;">description</td><td style="vertical-align:top;">:</td><td><div>a cool new app</div></td></tr><tr><td style="font-weight:bold;vertical-align:top;">generator</td><td style="vertical-align:top;">:</td><td><div>Web2py Web Framework</div></td></tr><tr><td style="font-weight:bold;vertical-align:top;">keywords</td><td style="vertical-align:top;">:</td><td><div><table><tr><td><div>web2py</div></td></tr><tr><td><div>python</div></td></tr><tr><td><div>framework</div></td></tr></table></div></td></tr></table></div></td></tr><tr><td style="font-weight:bold;vertical-align:top;">models_to_run</td><td style="vertical-align:top;">:</td><td><div><table><tr><td><div>^\\w+\\.py$</div></td></tr><tr><td><div>^fiches/\\w+\\.py$</div></td></tr><tr><td><div>^fiches/test/\\w+\\.py$</div></td></tr></table></div></td></tr><tr><td style="font-weight:bold;vertical-align:top;">postprocessing</td><td style="vertical-align:top;">:</td><td><div><table></table></div></td></tr><tr><td style="font-weight:bold;vertical-align:top;">session_client</td><td style="vertical-align:top;">:</td><td><div>83.203.171.193</div></td></tr><tr><td style="font-weight:bold;vertical-align:top;">session_cookie_compression_level</td><td style="vertical-align:top;">:</td><td><div>None</div></td></tr><tr><td style="font-weight:bold;vertical-align:top;">session_cookie_expires</td><td style="vertical-align:top;">:</td><td><div>None</div></td></tr><tr><td style="font-weight:bold;vertical-align:top;">session_data_name</td><td style="vertical-align:top;">:</td><td><div>session_data_obsas_dev</div></td></tr><tr><td style="font-weight:bold;vertical-align:top;">session_file</td><td style="vertical-align:top;">:</td><td><div>None</div></td></tr><tr><td style="font-weight:bold;vertical-align:top;">session_filename</td><td style="vertical-align:top;">:</td><td><div>/home/www-data/web2py/applications/obsas_dev/sessions/83.203.171.193-1927b33b-df5f-4481-bea1-08381c57fe7e</div></td></tr><tr><td style="font-weight:bold;vertical-align:top;">session_hash</td><td style="vertical-align:top;">:</td><td><div>c0762cbf4baf7f9af97c051e7fcb8083</div></td></tr><tr><td style="font-weight:bold;vertical-align:top;">session_id</td><td style="vertical-align:top;">:</td><td><div>83.203.171.193-1927b33b-df5f-4481-bea1-08381c57fe7e</div></td></tr><tr><td style="font-weight:bold;vertical-align:top;">session_id_name</td><td style="vertical-align:top;">:</td><td><div>session_id_obsas_dev</div></td></tr><tr><td style="font-weight:bold;vertical-align:top;">session_masterapp</td><td style="vertical-align:top;">:</td><td><div>obsas_dev</div></td></tr><tr><td style="font-weight:bold;vertical-align:top;">session_new</td><td style="vertical-align:top;">:</td><td><div>True</div></td></tr><tr><td style="font-weight:bold;vertical-align:top;">session_storage_type</td><td style="vertical-align:top;">:</td><td><div>file</div></td></tr><tr><td style="font-weight:bold;vertical-align:top;">status</td><td style="vertical-align:top;">:</td><td><div>200</div></td></tr><tr><td style="font-weight:bold;vertical-align:top;">subtitle</td><td style="vertical-align:top;">:</td><td><div></div></td></tr><tr><td style="font-weight:bold;vertical-align:top;">title</td><td style="vertical-align:top;">:</td><td><div>Obsas Dev</div></td></tr><tr><td style="font-weight:bold;vertical-align:top;">view</td><td style="vertical-align:top;">:</td><td><div>fiches/test.html</div></td></tr></table></div>'
tRp301
sS'locals'
p302
(dp303
S'use_cmd'
p304
g218
sS'set_slave_ok'
p305
g256
sS'self'
p306
S'<pymongo.message._Query object>'
p307
sS'is_mongos'
p308
g218
sS'flags'
p309
S'4'
sS'ntoreturn'
p310
S'0'
sS'ns'
p311
S"u'obsas.acteurs'"
p312
sS'spec'
p313
S'{\'uid\': set([\'$nin\', \'["PA605036", "PA719866", "PA720242", "PA719146",..., "PA722110", "PA720318", "PA718962", "PA267330"]\'])}'
p314
sssS'traceback'
p315
S'Traceback (most recent call last):\n  File "/home/www-data/web2py/gluon/restricted.py", line 219, in restricted\n    exec(ccode, environment)\n  File "/home/www-data/web2py/applications/obsas_dev/controllers/fiches.py", line 305, in <module>\n  File "/home/www-data/web2py/gluon/globals.py", line 409, in <lambda>\n    self._caller = lambda f: f()\n  File "/home/www-data/web2py/applications/obsas_dev/controllers/fiches.py", line 16, in test\n    return json.dumps([(a[\'uid\'],a[\'nomcomplet\']) for a in mdb.acteurs.find({\'uid\':{\'$nin\',deplist}})])\n  File "/home/www-data/web2py/applications/obsas_dev/.pyenv/local/lib/python2.7/site-packages/pymongo/cursor.py", line 1114, in next\n    if len(self.__data) or self._refresh():\n  File "/home/www-data/web2py/applications/obsas_dev/.pyenv/local/lib/python2.7/site-packages/pymongo/cursor.py", line 1036, in _refresh\n    self.__collation))\n  File "/home/www-data/web2py/applications/obsas_dev/.pyenv/local/lib/python2.7/site-packages/pymongo/cursor.py", line 873, in __send_message\n    **kwargs)\n  File "/home/www-data/web2py/applications/obsas_dev/.pyenv/local/lib/python2.7/site-packages/pymongo/mongo_client.py", line 905, in _send_message_with_response\n    exhaust)\n  File "/home/www-data/web2py/applications/obsas_dev/.pyenv/local/lib/python2.7/site-packages/pymongo/mongo_client.py", line 916, in _reset_on_error\n    return func(*args, **kwargs)\n  File "/home/www-data/web2py/applications/obsas_dev/.pyenv/local/lib/python2.7/site-packages/pymongo/server.py", line 124, in send_message_with_response\n    set_slave_okay, sock_info.is_mongos, use_find_cmd)\n  File "/home/www-data/web2py/applications/obsas_dev/.pyenv/local/lib/python2.7/site-packages/pymongo/message.py", line 291, in get_message\n    spec, self.fields, self.codec_options)\nInvalidDocument: Cannot encode object: set([\'["PA605036", "PA719866", "PA720242", "PA719146", "PA722038", "PA721036", "PA718954", "PA605963", "PA724827", "PA720798", "PA720124", "PA721278", "PA606675", "PA721158", "PA719318", "PA719100", "PA720310", "PA722190", "PA609726", "PA719806", "PA588884", "PA721624", "PA642764", "PA610634", "PA719770", "PA718744", "PA721776", "PA719558", "PA720256", "PA642724", "PA610681", "PA721836", "PA721046", "PA335999", "PA342415", "PA721522", "PA642847", "PA718884", "PA722170", "PA720210", "PA642935", "PA720362", "PA441", "PA720968", "PA332228", "PA722046", "PA720430", "PA719488", "PA719218", "PA718876", "PA722312", "PA508", "PA720822", "PA718990", "PA719024", "PA608641", "PA720576", "PA720162", "PA721344", "PA721410", "PA718756", "PA266793", "PA719980", "PA642695", "PA721816", "PA336316", "PA606507", "PA267233", "PA608083", "PA721608", "PA722030", "PA719032", "PA718710", "PA330684", "PA721908", "PA713448", "PA330008", "PA267766", "PA605069", "PA672", "PA721336", "PA223837", "PA721118", "PA720772", "PA721328", "PA719890", "PA718838", "PA720546", "PA720116", "PA722000", "PA689", "PA720622", "PA719496", "PA721750", "PA720298", "PA429893", "PA746", "PA719138", "PA720520", "PA767", "PA719922", "PA721352", "PA721166", "PA719472", "PA720814", "PA719440", "PA721860", "PA719748", "PA719790", "PA719448", "PA721218", "PA719170", "PA267306", "PA719250", "PA720468", "PA856", "PA722126", "PA642868", "PA267429", "PA330240", "PA702054", "PA719294", "PA336439", "PA719756", "PA719740", "PA719814", "PA606212", "PA719286", "PA721202", "PA721210", "PA718850", "PA719118", "PA722390", "PA923", "PA719624", "PA721808", "PA719266", "PA942", "PA719194", "PA720932", "PA332523", "PA720268", "PA607155", "PA998", "PA1008", "PA719710", "PA720538", "PA1029", "PA721398", "PA718694", "PA267450", "PA719258", "PA267241", "PA719830", "PA720598", "PA720696", "PA330909", "PA720862", "PA718926", "PA720386", "PA720438", "PA267440", "PA722382", "PA712015", "PA722236", "PA721718", "PA718894", "PA267289", "PA608292", "PA719162", "PA342935", "PA719660", "PA719684", "PA720154", "PA608826", "PA720046", "PA718720", "PA606202", "PA721194", "PA1198", "PA720684", "PA721094", "PA643175", "PA1206", "PA330357", "PA720652", "PA267735", "PA331567", "PA719310", "PA721670", "PA332747", "PA717151", "PA721924", "PA1012", "PA720996", "PA720002", "PA719692", "PA720924", "PA607193", "PA719044", "PA719616", "PA720664", "PA719570", "PA721564", "PA605694", "PA1276", "PA334149", "PA721896", "PA609332", "PA719960", "PA721702", "PA267042", "PA606171", "PA643103", "PA719938", "PA720286", "PA722134", "PA267780", "PA721742", "PA267673", "PA718706", "PA721384", "PA1327", "PA721142", "PA720030", "PA722284", "PA722366", "PA266774", "PA719480", "PA721246", "PA720198", "PA721992", "PA720178", "PA333285", "PA722358", "PA267324", "PA721364", "PA720806", "PA721024", "PA605991", "PA719108", "PA719326", "PA720222", "PA267336", "PA718674", "PA1498", "PA610775", "PA721784", "PA266797", "PA721296", "PA720560", "PA719330", "PA720170", "PA722062", "PA720790", "PA721764", "PA267318", "PA721792", "PA721498", "PA721880", "PA721126", "PA1592", "PA695100", "PA722054", "PA719652", "PA720326", "PA720054", "PA722094", "PA722070", "PA1630", "PA718794", "PA267355", "PA608416", "PA721150", "PA720454", "PA722150", "PA719700", "PA333818", "PA267200", "PA331835", "PA722374", "PA1695", "PA720354", "PA719874", "PA720074", "PA267801", "PA719060", "PA719778", "PA719210", "PA720038", "PA332614", "PA722344", "PA722202", "PA267901", "PA719994", "PA335054", "PA719372", "PA721514", "PA719230", "PA719052", "PA719186", "PA722300", "PA721644", "PA605084", "PA720202", "PA720214", "PA721506", "PA719842", "PA719798", "PA720846", "PA609245", "PA268019", "PA719504", "PA719918", "PA721004", "PA1809", "PA605518", "PA643205", "PA718978", "PA721434", "PA718868", "PA267785", "PA719396", "PA1838", "PA720764", "PA721984", "PA720022", "PA720916", "PA719728", "PA719412", "PA588886", "PA1874", "PA719404", "PA721466", "PA345722", "PA719388", "PA720342", "PA720614", "PA719006", "PA721852", "PA722228", "PA340853", "PA720480", "PA335612", "PA712014", "PA722008", "PA722320", "PA721450", "PA1960", "PA721134", "PA337483", "PA267378", "PA719858", "PA720378", "PA720446", "PA721054", "PA718918", "PA608016", "PA721530", "PA606712", "PA722244", "PA720230", "PA717379", "PA719718", "PA722178", "PA720988", "PA346054", "PA334116", "PA721946", "PA606098", "PA2086", "PA719080", "PA719154", "PA720146", "PA346218", "PA720976", "PA721800", "PA720728", "PA721726", "PA677483", "PA720870", "PA719338", "PA2150", "PA719608", "PA720370", "PA2155", "PA719072", "PA719640", "PA719272", "PA719882", "PA719130", "PA721734", "PA720738", "PA721418", "PA721976", "PA720630", "PA719668", "PA719952", "PA607619", "PA719456", "PA719242", "PA266788", "PA721876", "PA719850", "PA720908", "PA721254", "PA721656", "PA719464", "PA721486", "PA610654", "PA719520", "PA720644", "PA721956", "PA719364", "PA721960", "PA720108", "PA720278", "PA720492", "PA720334", "PA720606", "PA720402", "PA333421", "PA719632", "PA720892", "PA721636", "PA719202", "PA720944", "PA335532", "PA718784", "PA607595", "PA719946", "PA718802", "PA720414", "PA2377", "PA721568", "PA718930", "PA721182", "PA721234", "PA720500", "PA721270", "PA718736", "PA721710", "PA721372", "PA720512", "PA336175", "PA608172", "PA721844", "PA718910", "PA267260", "PA693008", "PA609520", "PA2449", "PA719528", "PA607553", "PA720590", "PA720720", "PA719600", "PA721916", "PA720100", "PA719578", "PA608011", "PA405480", "PA720422", "PA2492", "PA643127", "PA609590", "PA718944", "PA721286", "PA721070", "PA720092", "PA721888", "PA721062", "PA720552", "PA722398", "PA721678", "PA266776", "PA2529", "PA721824", "PA719676", "PA330788", "PA335758", "PA720900", "PA721426", "PA720066", "PA722252", "PA718810", "PA610733", "PA266808", "PA722022", "PA721458", "PA721600", "PA343493", "PA718902", "PA720692", "PA721226", "PA722292", "PA722142", "PA721616", "PA267527", "PA702052", "PA720878", "PA720138", "PA721110", "PA719972", "PA340343", "PA722078", "PA721314", "PA720780", "PA267204", "PA720960", "PA610667", "PA719592", "PA346876", "PA719420", "PA721174", "PA720190", "PA334654", "PA720754", "PA722118", "PA267794", "PA720952", "PA719350", "PA721690", "PA719550", "PA722086", "PA2792", "PA718860", "PA2796", "PA721584", "PA720854", "PA722336", "PA720568", "PA719822", "PA720830", "PA719302", "PA720014", "PA334768", "PA2828", "PA719540", "PA718780", "PA720394", "PA718682", "PA719092", "PA722162", "PA608695", "PA643145", "PA643134", "PA718768", "PA719930", "PA267622", "PA718728", "PA720586", "PA642788", "PA267585", "PA334843", "PA721542", "PA709315", "PA721968", "PA720704", "PA722102", "PA607090", "PA331582", "PA606639", "PA719512", "PA722260", "PA421348", "PA721474", "PA721262", "PA2952", "PA720746", "PA2960", "PA722268", "PA722110", "PA720318", "PA718962", "PA267330"]\', \'$nin\'])\n'
p316
s.