(dp1
S'output'
p2
S"<type 'exceptions.KeyError'> 'voteem'"
p3
sS'layer'
p4
S'/home/www-data/web2py/applications/obsas_dev/controllers/analyse.py'
p5
sS'code'
p6
S'<code object <module> at 0x7ff3a6a003b0, file "/home/www-data/web2py/applications/obsas_dev/controllers/analyse.py", line 3>'
p7
sS'snapshot'
p8
(dp9
S'exception'
p10
(dp11
S'__getslice__'
p12
S"<method-wrapper '__getslice__' of exceptions.KeyError object>"
p13
sS'__str__'
p14
S"<method-wrapper '__str__' of exceptions.KeyError object>"
p15
sS'__reduce__'
p16
S'<built-in method __reduce__ of exceptions.KeyError object>'
p17
sS'__dict__'
p18
S'{}'
p19
sS'message'
p20
S"'voteem'"
p21
sS'__sizeof__'
p22
S'<built-in method __sizeof__ of exceptions.KeyError object>'
p23
sS'__init__'
p24
S"<method-wrapper '__init__' of exceptions.KeyError object>"
p25
sS'__setattr__'
p26
S"<method-wrapper '__setattr__' of exceptions.KeyError object>"
p27
sS'__reduce_ex__'
p28
S'<built-in method __reduce_ex__ of exceptions.KeyError object>'
p29
sS'__new__'
p30
S'<built-in method __new__ of type object>'
p31
sS'__format__'
p32
S'<built-in method __format__ of exceptions.KeyError object>'
p33
sS'__class__'
p34
S"<type 'exceptions.KeyError'>"
p35
sS'__doc__'
p36
S"'Mapping key not found.'"
p37
sS'__getitem__'
p38
S"<method-wrapper '__getitem__' of exceptions.KeyError object>"
p39
sS'__setstate__'
p40
S'<built-in method __setstate__ of exceptions.KeyError object>'
p41
sS'__getattribute__'
p42
S"<method-wrapper '__getattribute__' of exceptions.KeyError object>"
p43
sS'args'
p44
S"('voteem',)"
p45
sS'__subclasshook__'
p46
S'<built-in method __subclasshook__ of type object>'
p47
sS'__unicode__'
p48
S'<built-in method __unicode__ of exceptions.KeyError object>'
p49
sS'__delattr__'
p50
S"<method-wrapper '__delattr__' of exceptions.KeyError object>"
p51
sS'__repr__'
p52
S"<method-wrapper '__repr__' of exceptions.KeyError object>"
p53
sS'__hash__'
p54
S"<method-wrapper '__hash__' of exceptions.KeyError object>"
p55
ssS'evalue'
p56
S"'voteem'"
p57
sS'request'
p58
cgluon.html
XML_unpickle
p59
(S's\x15z\x00\x00<div><table><tr><td style="font-weight:bold;vertical-align:top;">ajax</td><td style="vertical-align:top;">:</td><td><div>False</div></td></tr><tr><td style="font-weight:bold;vertical-align:top;">application</td><td style="vertical-align:top;">:</td><td><div>obsas_dev</div></td></tr><tr><td style="font-weight:bold;vertical-align:top;">args</td><td style="vertical-align:top;">:</td><td><div><table></table></div></td></tr><tr><td style="font-weight:bold;vertical-align:top;">cid</td><td style="vertical-align:top;">:</td><td><div>None</div></td></tr><tr><td style="font-weight:bold;vertical-align:top;">client</td><td style="vertical-align:top;">:</td><td><div>83.203.43.40</div></td></tr><tr><td style="font-weight:bold;vertical-align:top;">controller</td><td style="vertical-align:top;">:</td><td><div>analyse</div></td></tr><tr><td style="font-weight:bold;vertical-align:top;">cookies</td><td style="vertical-align:top;">:</td><td><div><table><tr><td style="font-weight:bold;vertical-align:top;">session_id_admin</td><td style="vertical-align:top;">:</td><td><div>83.203.176.32-704e3204-d78d-4cb1-9d2b-a7ee77277089<table><tr><td style="font-weight:bold;vertical-align:top;">comment</td><td style="vertical-align:top;">:</td><td><div></div></td></tr><tr><td style="font-weight:bold;vertical-align:top;">domain</td><td style="vertical-align:top;">:</td><td><div></div></td></tr><tr><td style="font-weight:bold;vertical-align:top;">expires</td><td style="vertical-align:top;">:</td><td><div></div></td></tr><tr><td style="font-weight:bold;vertical-align:top;">httponly</td><td style="vertical-align:top;">:</td><td><div></div></td></tr><tr><td style="font-weight:bold;vertical-align:top;">max-age</td><td style="vertical-align:top;">:</td><td><div></div></td></tr><tr><td style="font-weight:bold;vertical-align:top;">path</td><td style="vertical-align:top;">:</td><td><div></div></td></tr><tr><td style="font-weight:bold;vertical-align:top;">secure</td><td style="vertical-align:top;">:</td><td><div></div></td></tr><tr><td style="font-weight:bold;vertical-align:top;">version</td><td style="vertical-align:top;">:</td><td><div></div></td></tr></table></div></td></tr><tr><td style="font-weight:bold;vertical-align:top;">session_id_obsas</td><td style="vertical-align:top;">:</td><td><div>83.203.54.41-e3bd374d-bf18-4487-829f-411f49158515<table><tr><td style="font-weight:bold;vertical-align:top;">comment</td><td style="vertical-align:top;">:</td><td><div></div></td></tr><tr><td style="font-weight:bold;vertical-align:top;">domain</td><td style="vertical-align:top;">:</td><td><div></div></td></tr><tr><td style="font-weight:bold;vertical-align:top;">expires</td><td style="vertical-align:top;">:</td><td><div></div></td></tr><tr><td style="font-weight:bold;vertical-align:top;">httponly</td><td style="vertical-align:top;">:</td><td><div></div></td></tr><tr><td style="font-weight:bold;vertical-align:top;">max-age</td><td style="vertical-align:top;">:</td><td><div></div></td></tr><tr><td style="font-weight:bold;vertical-align:top;">path</td><td style="vertical-align:top;">:</td><td><div></div></td></tr><tr><td style="font-weight:bold;vertical-align:top;">secure</td><td style="vertical-align:top;">:</td><td><div></div></td></tr><tr><td style="font-weight:bold;vertical-align:top;">version</td><td style="vertical-align:top;">:</td><td><div></div></td></tr></table></div></td></tr><tr><td style="font-weight:bold;vertical-align:top;">session_id_obsas_dev</td><td style="vertical-align:top;">:</td><td><div>83.203.54.41-fc7640bd-5607-4d0d-830a-27d2371bbd50<table><tr><td style="font-weight:bold;vertical-align:top;">comment</td><td style="vertical-align:top;">:</td><td><div></div></td></tr><tr><td style="font-weight:bold;vertical-align:top;">domain</td><td style="vertical-align:top;">:</td><td><div></div></td></tr><tr><td style="font-weight:bold;vertical-align:top;">expires</td><td style="vertical-align:top;">:</td><td><div></div></td></tr><tr><td style="font-weight:bold;vertical-align:top;">httponly</td><td style="vertical-align:top;">:</td><td><div></div></td></tr><tr><td style="font-weight:bold;vertical-align:top;">max-age</td><td style="vertical-align:top;">:</td><td><div></div></td></tr><tr><td style="font-weight:bold;vertical-align:top;">path</td><td style="vertical-align:top;">:</td><td><div></div></td></tr><tr><td style="font-weight:bold;vertical-align:top;">secure</td><td style="vertical-align:top;">:</td><td><div></div></td></tr><tr><td style="font-weight:bold;vertical-align:top;">version</td><td style="vertical-align:top;">:</td><td><div></div></td></tr></table></div></td></tr><tr><td style="font-weight:bold;vertical-align:top;">session_id_welcome</td><td style="vertical-align:top;">:</td><td><div>83.203.54.41-2f1de321-540d-4537-a597-598ac7e081ff<table><tr><td style="font-weight:bold;vertical-align:top;">comment</td><td style="vertical-align:top;">:</td><td><div></div></td></tr><tr><td style="font-weight:bold;vertical-align:top;">domain</td><td style="vertical-align:top;">:</td><td><div></div></td></tr><tr><td style="font-weight:bold;vertical-align:top;">expires</td><td style="vertical-align:top;">:</td><td><div></div></td></tr><tr><td style="font-weight:bold;vertical-align:top;">httponly</td><td style="vertical-align:top;">:</td><td><div></div></td></tr><tr><td style="font-weight:bold;vertical-align:top;">max-age</td><td style="vertical-align:top;">:</td><td><div></div></td></tr><tr><td style="font-weight:bold;vertical-align:top;">path</td><td style="vertical-align:top;">:</td><td><div></div></td></tr><tr><td style="font-weight:bold;vertical-align:top;">secure</td><td style="vertical-align:top;">:</td><td><div></div></td></tr><tr><td style="font-weight:bold;vertical-align:top;">version</td><td style="vertical-align:top;">:</td><td><div></div></td></tr></table></div></td></tr></table></div></td></tr><tr><td style="font-weight:bold;vertical-align:top;">env</td><td style="vertical-align:top;">:</td><td><div><table><tr><td style="font-weight:bold;vertical-align:top;">CONTEXT_DOCUMENT_ROOT</td><td style="vertical-align:top;">:</td><td><div>/var/www/html</div></td></tr><tr><td style="font-weight:bold;vertical-align:top;">CONTEXT_PREFIX</td><td style="vertical-align:top;">:</td><td><div></div></td></tr><tr><td style="font-weight:bold;vertical-align:top;">DOCUMENT_ROOT</td><td style="vertical-align:top;">:</td><td><div>/var/www/html</div></td></tr><tr><td style="font-weight:bold;vertical-align:top;">GATEWAY_INTERFACE</td><td style="vertical-align:top;">:</td><td><div>CGI/1.1</div></td></tr><tr><td style="font-weight:bold;vertical-align:top;">HTTP_ACCEPT</td><td style="vertical-align:top;">:</td><td><div>text/html,application/xhtml+xml,application/xml;q=0.9,image/webp,*/*;q=0.8</div></td></tr><tr><td style="font-weight:bold;vertical-align:top;">HTTP_ACCEPT_ENCODING</td><td style="vertical-align:top;">:</td><td><div>gzip, deflate, sdch, br</div></td></tr><tr><td style="font-weight:bold;vertical-align:top;">HTTP_ACCEPT_LANGUAGE</td><td style="vertical-align:top;">:</td><td><div>fr-FR,fr;q=0.8,en-US;q=0.6,en;q=0.4</div></td></tr><tr><td style="font-weight:bold;vertical-align:top;">HTTP_CONNECTION</td><td style="vertical-align:top;">:</td><td><div>keep-alive</div></td></tr><tr><td style="font-weight:bold;vertical-align:top;">HTTP_COOKIE</td><td style="vertical-align:top;">:</td><td><div>session_id_obsas=83.203.54.41-e3bd374d-bf18-4487-829f-411f49158515; session_id_welcome=83.203.54.41-2f1de321-540d-4537-a597-598ac7e081ff; session_id_admin=83.203.176.32-704e3204-d78d-4cb1-9d2b-a7ee77277089; session_id_obsas_dev=83.203.54.41-fc7640bd-5607-4d0d-830a-27d2371bbd50</div></td></tr><tr><td style="font-weight:bold;vertical-align:top;">HTTP_HOST</td><td style="vertical-align:top;">:</td><td><div>admin.obsas.orvdev.fr</div></td></tr><tr><td style="font-weight:bold;vertical-align:top;">HTTP_UPGRADE_INSECURE_REQUESTS</td><td style="vertical-align:top;">:</td><td><div>1</div></td></tr><tr><td style="font-weight:bold;vertical-align:top;">HTTP_USER_AGENT</td><td style="vertical-align:top;">:</td><td><div>Mozilla/5.0 (X11; Linux x86_64) AppleWebKit/537.36 (KHTML, like Gecko) Chrome/55.0.2883.75 Safari/537.36</div></td></tr><tr><td style="font-weight:bold;vertical-align:top;">PATH_INFO</td><td style="vertical-align:top;">:</td><td><div>/obsas_dev/analyse/vueaxe</div></td></tr><tr><td style="font-weight:bold;vertical-align:top;">PATH_TRANSLATED</td><td style="vertical-align:top;">:</td><td><div>/home/www-data/web2py/wsgihandler.py/obsas_dev/analyse/vueaxe</div></td></tr><tr><td style="font-weight:bold;vertical-align:top;">QUERY_STRING</td><td style="vertical-align:top;">:</td><td><div>desc=1&amp;axe=groupes&amp;filtres=%7B%7D&amp;suffrages=tous&amp;tri=participation</div></td></tr><tr><td style="font-weight:bold;vertical-align:top;">REMOTE_ADDR</td><td style="vertical-align:top;">:</td><td><div>83.203.43.40</div></td></tr><tr><td style="font-weight:bold;vertical-align:top;">REMOTE_PORT</td><td style="vertical-align:top;">:</td><td><div>34450</div></td></tr><tr><td style="font-weight:bold;vertical-align:top;">REQUEST_METHOD</td><td style="vertical-align:top;">:</td><td><div>GET</div></td></tr><tr><td style="font-weight:bold;vertical-align:top;">REQUEST_SCHEME</td><td style="vertical-align:top;">:</td><td><div>https</div></td></tr><tr><td style="font-weight:bold;vertical-align:top;">REQUEST_URI</td><td style="vertical-align:top;">:</td><td><div>/obsas_dev/analyse/vueaxe?desc=1&amp;axe=groupes&amp;filtres=%7B%7D&amp;suffrages=tous&amp;tri=participation</div></td></tr><tr><td style="font-weight:bold;vertical-align:top;">SCRIPT_FILENAME</td><td style="vertical-align:top;">:</td><td><div>/home/www-data/web2py/wsgihandler.py</div></td></tr><tr><td style="font-weight:bold;vertical-align:top;">SCRIPT_NAME</td><td style="vertical-align:top;">:</td><td><div></div></td></tr><tr><td style="font-weight:bold;vertical-align:top;">SERVER_ADDR</td><td style="vertical-align:top;">:</td><td><div>151.80.57.169</div></td></tr><tr><td style="font-weight:bold;vertical-align:top;">SERVER_ADMIN</td><td style="vertical-align:top;">:</td><td><div>[no address given]</div></td></tr><tr><td style="font-weight:bold;vertical-align:top;">SERVER_NAME</td><td style="vertical-align:top;">:</td><td><div>admin.obsas.orvdev.fr</div></td></tr><tr><td style="font-weight:bold;vertical-align:top;">SERVER_PORT</td><td style="vertical-align:top;">:</td><td><div>443</div></td></tr><tr><td style="font-weight:bold;vertical-align:top;">SERVER_PROTOCOL</td><td style="vertical-align:top;">:</td><td><div>HTTP/1.1</div></td></tr><tr><td style="font-weight:bold;vertical-align:top;">SERVER_SIGNATURE</td><td style="vertical-align:top;">:</td><td><div>&lt;address&gt;Apache/2.4.18 (Ubuntu) Server at admin.obsas.orvdev.fr Port 443&lt;/address&gt;\n</div></td></tr><tr><td style="font-weight:bold;vertical-align:top;">SERVER_SOFTWARE</td><td style="vertical-align:top;">:</td><td><div>Apache/2.4.18 (Ubuntu)</div></td></tr><tr><td style="font-weight:bold;vertical-align:top;">SSL_TLS_SNI</td><td style="vertical-align:top;">:</td><td><div>admin.obsas.orvdev.fr</div></td></tr><tr><td style="font-weight:bold;vertical-align:top;">apache.version</td><td style="vertical-align:top;">:</td><td><div><table><tr><td><div>2</div></td></tr><tr><td><div>4</div></td></tr><tr><td><div>18</div></td></tr></table></div></td></tr><tr><td style="font-weight:bold;vertical-align:top;">apache_version</td><td style="vertical-align:top;">:</td><td><div><table><tr><td><div>2</div></td></tr><tr><td><div>4</div></td></tr><tr><td><div>18</div></td></tr></table></div></td></tr><tr><td style="font-weight:bold;vertical-align:top;">app_folders</td><td style="vertical-align:top;">:</td><td><div>set([&#x27;/home/www-data/web2py/applications/obsas_dev/&#x27;, &#x27;/home/www-data/web2py/applications/welcome/&#x27;, &#x27;/home/www-data/web2py/applications/admin/&#x27;])</div></td></tr><tr><td style="font-weight:bold;vertical-align:top;">applications_parent</td><td style="vertical-align:top;">:</td><td><div>/home/www-data/web2py</div></td></tr><tr><td style="font-weight:bold;vertical-align:top;">context_document_root</td><td style="vertical-align:top;">:</td><td><div>/var/www/html</div></td></tr><tr><td style="font-weight:bold;vertical-align:top;">context_prefix</td><td style="vertical-align:top;">:</td><td><div></div></td></tr><tr><td style="font-weight:bold;vertical-align:top;">db_sessions</td><td style="vertical-align:top;">:</td><td><div>set([])</div></td></tr><tr><td style="font-weight:bold;vertical-align:top;">debugging</td><td style="vertical-align:top;">:</td><td><div>True</div></td></tr><tr><td style="font-weight:bold;vertical-align:top;">document_root</td><td style="vertical-align:top;">:</td><td><div>/var/www/html</div></td></tr><tr><td style="font-weight:bold;vertical-align:top;">gateway_interface</td><td style="vertical-align:top;">:</td><td><div>CGI/1.1</div></td></tr><tr><td style="font-weight:bold;vertical-align:top;">gluon_parent</td><td style="vertical-align:top;">:</td><td><div>/home/www-data/web2py</div></td></tr><tr><td style="font-weight:bold;vertical-align:top;">http_accept</td><td style="vertical-align:top;">:</td><td><div>text/html,application/xhtml+xml,application/xml;q=0.9,image/webp,*/*;q=0.8</div></td></tr><tr><td style="font-weight:bold;vertical-align:top;">http_accept_encoding</td><td style="vertical-align:top;">:</td><td><div>gzip, deflate, sdch, br</div></td></tr><tr><td style="font-weight:bold;vertical-align:top;">http_accept_language</td><td style="vertical-align:top;">:</td><td><div>fr-FR,fr;q=0.8,en-US;q=0.6,en;q=0.4</div></td></tr><tr><td style="font-weight:bold;vertical-align:top;">http_connection</td><td style="vertical-align:top;">:</td><td><div>keep-alive</div></td></tr><tr><td style="font-weight:bold;vertical-align:top;">http_cookie</td><td style="vertical-align:top;">:</td><td><div>session_id_obsas=83.203.54.41-e3bd374d-bf18-4487-829f-411f49158515; session_id_welcome=83.203.54.41-2f1de321-540d-4537-a597-598ac7e081ff; session_id_admin=83.203.176.32-704e3204-d78d-4cb1-9d2b-a7ee77277089; session_id_obsas_dev=83.203.54.41-fc7640bd-5607-4d0d-830a-27d2371bbd50</div></td></tr><tr><td style="font-weight:bold;vertical-align:top;">http_host</td><td style="vertical-align:top;">:</td><td><div>admin.obsas.orvdev.fr</div></td></tr><tr><td style="font-weight:bold;vertical-align:top;">http_upgrade_insecure_requests</td><td style="vertical-align:top;">:</td><td><div>1</div></td></tr><tr><td style="font-weight:bold;vertical-align:top;">http_user_agent</td><td style="vertical-align:top;">:</td><td><div>Mozilla/5.0 (X11; Linux x86_64) AppleWebKit/537.36 (KHTML, like Gecko) Chrome/55.0.2883.75 Safari/537.36</div></td></tr><tr><td style="font-weight:bold;vertical-align:top;">is_jython</td><td style="vertical-align:top;">:</td><td><div>False</div></td></tr><tr><td style="font-weight:bold;vertical-align:top;">is_py2</td><td style="vertical-align:top;">:</td><td><div>True</div></td></tr><tr><td style="font-weight:bold;vertical-align:top;">is_pypy</td><td style="vertical-align:top;">:</td><td><div>False</div></td></tr><tr><td style="font-weight:bold;vertical-align:top;">is_source</td><td style="vertical-align:top;">:</td><td><div>True</div></td></tr><tr><td style="font-weight:bold;vertical-align:top;">local_hosts</td><td style="vertical-align:top;">:</td><td><div><table><tr><td><div>vps433020</div></td></tr><tr><td><div>::ffff:127.0.0.1</div></td></tr><tr><td><div>::1</div></td></tr><tr><td><div>151.80.57.169</div></td></tr><tr><td><div>vps433020.ovh.net</div></td></tr><tr><td><div>127.0.1.1</div></td></tr><tr><td><div>admin.obsas.orvdev.fr</div></td></tr><tr><td><div>127.0.0.1</div></td></tr></table></div></td></tr><tr><td style="font-weight:bold;vertical-align:top;">mod_wsgi.application_group</td><td style="vertical-align:top;">:</td><td><div></div></td></tr><tr><td style="font-weight:bold;vertical-align:top;">mod_wsgi.callable_object</td><td style="vertical-align:top;">:</td><td><div>application</div></td></tr><tr><td style="font-weight:bold;vertical-align:top;">mod_wsgi.daemon_connects</td><td style="vertical-align:top;">:</td><td><div>1</div></td></tr><tr><td style="font-weight:bold;vertical-align:top;">mod_wsgi.daemon_restarts</td><td style="vertical-align:top;">:</td><td><div>0</div></td></tr><tr><td style="font-weight:bold;vertical-align:top;">mod_wsgi.daemon_start</td><td style="vertical-align:top;">:</td><td><div>1500248242599699</div></td></tr><tr><td style="font-weight:bold;vertical-align:top;">mod_wsgi.enable_sendfile</td><td style="vertical-align:top;">:</td><td><div>0</div></td></tr><tr><td style="font-weight:bold;vertical-align:top;">mod_wsgi.handler_script</td><td style="vertical-align:top;">:</td><td><div></div></td></tr><tr><td style="font-weight:bold;vertical-align:top;">mod_wsgi.input_chunked</td><td style="vertical-align:top;">:</td><td><div>0</div></td></tr><tr><td style="font-weight:bold;vertical-align:top;">mod_wsgi.listener_host</td><td style="vertical-align:top;">:</td><td><div></div></td></tr><tr><td style="font-weight:bold;vertical-align:top;">mod_wsgi.listener_port</td><td style="vertical-align:top;">:</td><td><div>443</div></td></tr><tr><td style="font-weight:bold;vertical-align:top;">mod_wsgi.process_group</td><td style="vertical-align:top;">:</td><td><div>obsasadm</div></td></tr><tr><td style="font-weight:bold;vertical-align:top;">mod_wsgi.queue_start</td><td style="vertical-align:top;">:</td><td><div>1500248242599522</div></td></tr><tr><td style="font-weight:bold;vertical-align:top;">mod_wsgi.request_handler</td><td style="vertical-align:top;">:</td><td><div>wsgi-script</div></td></tr><tr><td style="font-weight:bold;vertical-align:top;">mod_wsgi.request_start</td><td style="vertical-align:top;">:</td><td><div>1500248242599127</div></td></tr><tr><td style="font-weight:bold;vertical-align:top;">mod_wsgi.script_reloading</td><td style="vertical-align:top;">:</td><td><div>1</div></td></tr><tr><td style="font-weight:bold;vertical-align:top;">mod_wsgi.script_start</td><td style="vertical-align:top;">:</td><td><div>1500248242599734</div></td></tr><tr><td style="font-weight:bold;vertical-align:top;">mod_wsgi.version</td><td style="vertical-align:top;">:</td><td><div><table><tr><td><div>4</div></td></tr><tr><td><div>3</div></td></tr><tr><td><div>0</div></td></tr></table></div></td></tr><tr><td style="font-weight:bold;vertical-align:top;">mod_wsgi_application_group</td><td style="vertical-align:top;">:</td><td><div></div></td></tr><tr><td style="font-weight:bold;vertical-align:top;">mod_wsgi_callable_object</td><td style="vertical-align:top;">:</td><td><div>application</div></td></tr><tr><td style="font-weight:bold;vertical-align:top;">mod_wsgi_daemon_connects</td><td style="vertical-align:top;">:</td><td><div>1</div></td></tr><tr><td style="font-weight:bold;vertical-align:top;">mod_wsgi_daemon_restarts</td><td style="vertical-align:top;">:</td><td><div>0</div></td></tr><tr><td style="font-weight:bold;vertical-align:top;">mod_wsgi_daemon_start</td><td style="vertical-align:top;">:</td><td><div>1500248242599699</div></td></tr><tr><td style="font-weight:bold;vertical-align:top;">mod_wsgi_enable_sendfile</td><td style="vertical-align:top;">:</td><td><div>0</div></td></tr><tr><td style="font-weight:bold;vertical-align:top;">mod_wsgi_handler_script</td><td style="vertical-align:top;">:</td><td><div></div></td></tr><tr><td style="font-weight:bold;vertical-align:top;">mod_wsgi_input_chunked</td><td style="vertical-align:top;">:</td><td><div>0</div></td></tr><tr><td style="font-weight:bold;vertical-align:top;">mod_wsgi_listener_host</td><td style="vertical-align:top;">:</td><td><div></div></td></tr><tr><td style="font-weight:bold;vertical-align:top;">mod_wsgi_listener_port</td><td style="vertical-align:top;">:</td><td><div>443</div></td></tr><tr><td style="font-weight:bold;vertical-align:top;">mod_wsgi_process_group</td><td style="vertical-align:top;">:</td><td><div>obsasadm</div></td></tr><tr><td style="font-weight:bold;vertical-align:top;">mod_wsgi_queue_start</td><td style="vertical-align:top;">:</td><td><div>1500248242599522</div></td></tr><tr><td style="font-weight:bold;vertical-align:top;">mod_wsgi_request_handler</td><td style="vertical-align:top;">:</td><td><div>wsgi-script</div></td></tr><tr><td style="font-weight:bold;vertical-align:top;">mod_wsgi_request_start</td><td style="vertical-align:top;">:</td><td><div>1500248242599127</div></td></tr><tr><td style="font-weight:bold;vertical-align:top;">mod_wsgi_script_reloading</td><td style="vertical-align:top;">:</td><td><div>1</div></td></tr><tr><td style="font-weight:bold;vertical-align:top;">mod_wsgi_script_start</td><td style="vertical-align:top;">:</td><td><div>1500248242599734</div></td></tr><tr><td style="font-weight:bold;vertical-align:top;">mod_wsgi_version</td><td style="vertical-align:top;">:</td><td><div><table><tr><td><div>4</div></td></tr><tr><td><div>3</div></td></tr><tr><td><div>0</div></td></tr></table></div></td></tr><tr><td style="font-weight:bold;vertical-align:top;">path_info</td><td style="vertical-align:top;">:</td><td><div>/obsas_dev/analyse/vueaxe</div></td></tr><tr><td style="font-weight:bold;vertical-align:top;">path_translated</td><td style="vertical-align:top;">:</td><td><div>/home/www-data/web2py/wsgihandler.py/obsas_dev/analyse/vueaxe</div></td></tr><tr><td style="font-weight:bold;vertical-align:top;">query_string</td><td style="vertical-align:top;">:</td><td><div>desc=1&amp;axe=groupes&amp;filtres=%7B%7D&amp;suffrages=tous&amp;tri=participation</div></td></tr><tr><td style="font-weight:bold;vertical-align:top;">remote_addr</td><td style="vertical-align:top;">:</td><td><div>83.203.43.40</div></td></tr><tr><td style="font-weight:bold;vertical-align:top;">remote_port</td><td style="vertical-align:top;">:</td><td><div>34450</div></td></tr><tr><td style="font-weight:bold;vertical-align:top;">request_method</td><td style="vertical-align:top;">:</td><td><div>GET</div></td></tr><tr><td style="font-weight:bold;vertical-align:top;">request_scheme</td><td style="vertical-align:top;">:</td><td><div>https</div></td></tr><tr><td style="font-weight:bold;vertical-align:top;">request_uri</td><td style="vertical-align:top;">:</td><td><div>/obsas_dev/analyse/vueaxe?desc=1&amp;axe=groupes&amp;filtres=%7B%7D&amp;suffrages=tous&amp;tri=participation</div></td></tr><tr><td style="font-weight:bold;vertical-align:top;">script_filename</td><td style="vertical-align:top;">:</td><td><div>/home/www-data/web2py/wsgihandler.py</div></td></tr><tr><td style="font-weight:bold;vertical-align:top;">script_name</td><td style="vertical-align:top;">:</td><td><div></div></td></tr><tr><td style="font-weight:bold;vertical-align:top;">server_addr</td><td style="vertical-align:top;">:</td><td><div>151.80.57.169</div></td></tr><tr><td style="font-weight:bold;vertical-align:top;">server_admin</td><td style="vertical-align:top;">:</td><td><div>[no address given]</div></td></tr><tr><td style="font-weight:bold;vertical-align:top;">server_name</td><td style="vertical-align:top;">:</td><td><div>admin.obsas.orvdev.fr</div></td></tr><tr><td style="font-weight:bold;vertical-align:top;">server_port</td><td style="vertical-align:top;">:</td><td><div>443</div></td></tr><tr><td style="font-weight:bold;vertical-align:top;">server_protocol</td><td style="vertical-align:top;">:</td><td><div>HTTP/1.1</div></td></tr><tr><td style="font-weight:bold;vertical-align:top;">server_signature</td><td style="vertical-align:top;">:</td><td><div>&lt;address&gt;Apache/2.4.18 (Ubuntu) Server at admin.obsas.orvdev.fr Port 443&lt;/address&gt;\n</div></td></tr><tr><td style="font-weight:bold;vertical-align:top;">server_software</td><td style="vertical-align:top;">:</td><td><div>Apache/2.4.18 (Ubuntu)</div></td></tr><tr><td style="font-weight:bold;vertical-align:top;">ssl_tls_sni</td><td style="vertical-align:top;">:</td><td><div>admin.obsas.orvdev.fr</div></td></tr><tr><td style="font-weight:bold;vertical-align:top;">web2py_original_uri</td><td style="vertical-align:top;">:</td><td><div>/obsas_dev/analyse/vueaxe?desc=1&amp;axe=groupes&amp;filtres=%7B%7D&amp;suffrages=tous&amp;tri=participation</div></td></tr><tr><td style="font-weight:bold;vertical-align:top;">web2py_path</td><td style="vertical-align:top;">:</td><td><div>/home/www-data/web2py</div></td></tr><tr><td style="font-weight:bold;vertical-align:top;">web2py_version</td><td style="vertical-align:top;">:</td><td><div>2.15.1-stable+timestamp.2017.07.10.21.25.06</div></td></tr><tr><td style="font-weight:bold;vertical-align:top;">wsgi.errors</td><td style="vertical-align:top;">:</td><td><div>&lt;mod_wsgi.Log object at 0x7ff3a8d94348&gt;</div></td></tr><tr><td style="font-weight:bold;vertical-align:top;">wsgi.file_wrapper</td><td style="vertical-align:top;">:</td><td><div>&lt;type &#x27;mod_wsgi.FileWrapper&#x27;&gt;</div></td></tr><tr><td style="font-weight:bold;vertical-align:top;">wsgi.input</td><td style="vertical-align:top;">:</td><td><div>&lt;mod_wsgi.Input object at 0x7ff3a8c90570&gt;</div></td></tr><tr><td style="font-weight:bold;vertical-align:top;">wsgi.multiprocess</td><td style="vertical-align:top;">:</td><td><div>False</div></td></tr><tr><td style="font-weight:bold;vertical-align:top;">wsgi.multithread</td><td style="vertical-align:top;">:</td><td><div>True</div></td></tr><tr><td style="font-weight:bold;vertical-align:top;">wsgi.run_once</td><td style="vertical-align:top;">:</td><td><div>False</div></td></tr><tr><td style="font-weight:bold;vertical-align:top;">wsgi.url_scheme</td><td style="vertical-align:top;">:</td><td><div>https</div></td></tr><tr><td style="font-weight:bold;vertical-align:top;">wsgi.version</td><td style="vertical-align:top;">:</td><td><div><table><tr><td><div>1</div></td></tr><tr><td><div>0</div></td></tr></table></div></td></tr><tr><td style="font-weight:bold;vertical-align:top;">wsgi_errors</td><td style="vertical-align:top;">:</td><td><div>&lt;mod_wsgi.Log object at 0x7ff3a8d94348&gt;</div></td></tr><tr><td style="font-weight:bold;vertical-align:top;">wsgi_file_wrapper</td><td style="vertical-align:top;">:</td><td><div>&lt;type &#x27;mod_wsgi.FileWrapper&#x27;&gt;</div></td></tr><tr><td style="font-weight:bold;vertical-align:top;">wsgi_input</td><td style="vertical-align:top;">:</td><td><div>&lt;mod_wsgi.Input object at 0x7ff3a8c90570&gt;</div></td></tr><tr><td style="font-weight:bold;vertical-align:top;">wsgi_multiprocess</td><td style="vertical-align:top;">:</td><td><div>False</div></td></tr><tr><td style="font-weight:bold;vertical-align:top;">wsgi_multithread</td><td style="vertical-align:top;">:</td><td><div>True</div></td></tr><tr><td style="font-weight:bold;vertical-align:top;">wsgi_run_once</td><td style="vertical-align:top;">:</td><td><div>False</div></td></tr><tr><td style="font-weight:bold;vertical-align:top;">wsgi_url_scheme</td><td style="vertical-align:top;">:</td><td><div>https</div></td></tr><tr><td style="font-weight:bold;vertical-align:top;">wsgi_version</td><td style="vertical-align:top;">:</td><td><div><table><tr><td><div>1</div></td></tr><tr><td><div>0</div></td></tr></table></div></td></tr></table></div></td></tr><tr><td style="font-weight:bold;vertical-align:top;">extension</td><td style="vertical-align:top;">:</td><td><div>html</div></td></tr><tr><td style="font-weight:bold;vertical-align:top;">folder</td><td style="vertical-align:top;">:</td><td><div>/home/www-data/web2py/applications/obsas_dev/</div></td></tr><tr><td style="font-weight:bold;vertical-align:top;">function</td><td style="vertical-align:top;">:</td><td><div>vueaxe</div></td></tr><tr><td style="font-weight:bold;vertical-align:top;">global_settings</td><td style="vertical-align:top;">:</td><td><div><table><tr><td style="font-weight:bold;vertical-align:top;">app_folders</td><td style="vertical-align:top;">:</td><td><div>set([&#x27;/home/www-data/web2py/applications/obsas_dev/&#x27;, &#x27;/home/www-data/web2py/applications/welcome/&#x27;, &#x27;/home/www-data/web2py/applications/admin/&#x27;])</div></td></tr><tr><td style="font-weight:bold;vertical-align:top;">applications_parent</td><td style="vertical-align:top;">:</td><td><div>/home/www-data/web2py</div></td></tr><tr><td style="font-weight:bold;vertical-align:top;">db_sessions</td><td style="vertical-align:top;">:</td><td><div>set([])</div></td></tr><tr><td style="font-weight:bold;vertical-align:top;">debugging</td><td style="vertical-align:top;">:</td><td><div>True</div></td></tr><tr><td style="font-weight:bold;vertical-align:top;">gluon_parent</td><td style="vertical-align:top;">:</td><td><div>/home/www-data/web2py</div></td></tr><tr><td style="font-weight:bold;vertical-align:top;">is_jython</td><td style="vertical-align:top;">:</td><td><div>False</div></td></tr><tr><td style="font-weight:bold;vertical-align:top;">is_py2</td><td style="vertical-align:top;">:</td><td><div>True</div></td></tr><tr><td style="font-weight:bold;vertical-align:top;">is_pypy</td><td style="vertical-align:top;">:</td><td><div>False</div></td></tr><tr><td style="font-weight:bold;vertical-align:top;">is_source</td><td style="vertical-align:top;">:</td><td><div>True</div></td></tr><tr><td style="font-weight:bold;vertical-align:top;">local_hosts</td><td style="vertical-align:top;">:</td><td><div><table><tr><td><div>vps433020</div></td></tr><tr><td><div>::ffff:127.0.0.1</div></td></tr><tr><td><div>::1</div></td></tr><tr><td><div>151.80.57.169</div></td></tr><tr><td><div>vps433020.ovh.net</div></td></tr><tr><td><div>127.0.1.1</div></td></tr><tr><td><div>admin.obsas.orvdev.fr</div></td></tr><tr><td><div>127.0.0.1</div></td></tr></table></div></td></tr><tr><td style="font-weight:bold;vertical-align:top;">web2py_version</td><td style="vertical-align:top;">:</td><td><div>2.15.1-stable+timestamp.2017.07.10.21.25.06</div></td></tr></table></div></td></tr><tr><td style="font-weight:bold;vertical-align:top;">is_https</td><td style="vertical-align:top;">:</td><td><div>True</div></td></tr><tr><td style="font-weight:bold;vertical-align:top;">is_local</td><td style="vertical-align:top;">:</td><td><div>False</div></td></tr><tr><td style="font-weight:bold;vertical-align:top;">is_restful</td><td style="vertical-align:top;">:</td><td><div>False</div></td></tr><tr><td style="font-weight:bold;vertical-align:top;">is_scheduler</td><td style="vertical-align:top;">:</td><td><div>False</div></td></tr><tr><td style="font-weight:bold;vertical-align:top;">is_shell</td><td style="vertical-align:top;">:</td><td><div>False</div></td></tr><tr><td style="font-weight:bold;vertical-align:top;">now</td><td style="vertical-align:top;">:</td><td><div>datetime.datetime(2017, 7, 17, 1, 37, 22, 599949)</div></td></tr><tr><td style="font-weight:bold;vertical-align:top;">url</td><td style="vertical-align:top;">:</td><td><div>/obsas_dev/analyse/vueaxe</div></td></tr><tr><td style="font-weight:bold;vertical-align:top;">utcnow</td><td style="vertical-align:top;">:</td><td><div>datetime.datetime(2017, 7, 16, 23, 37, 22, 599970)</div></td></tr><tr><td style="font-weight:bold;vertical-align:top;">wsgi</td><td style="vertical-align:top;">:</td><td><div>&lt;gluon.main.LazyWSGI object at 0x7ff3a7ce3f50&gt;</div></td></tr></table></div>'
tRp60
sS'frames'
p61
(lp62
(dp63
S'file'
p64
S'/home/www-data/web2py/gluon/restricted.py'
p65
sS'dump'
p66
(dp67
S'environment'
p68
S"{'A': <class 'gluon.html.A'>, 'ANY_OF': <class 'gluon.validators.ANY_OF'>, 'ASSIGNJS': <function ASSIGNJS>, 'AppConfig': <function AppConfig>, 'Auth': <class 'gluon.tools.Auth'>, 'B': <class 'gluon.html.B'>, 'BEAUTIFY': <class 'gluon.html.BEAUTIFY'>, 'BODY': <class 'gluon.html.BODY'>, 'BR': <class 'gluon.html.BR'>, 'BUTTON': <class 'gluon.html.BUTTON'>, ...}"
p69
sS'ccode'
p70
S'<code object <module> at 0x7ff3a6a003b0, file "/...ations/obsas_dev/controllers/analyse.py", line 3>'
p71
ssS'lnum'
p72
I219
sS'lines'
p73
(dp74
I214
S'    if environment is None:'
p75
sI215
S'        environment = {}'
p76
sI216
S"    environment['__file__'] = layer"
p77
sI217
S"    environment['__name__'] = '__restricted__'"
p78
sI218
S'    try:'
p79
sI219
S'        exec(ccode, environment)'
p80
sI220
S'    except HTTP:'
p81
sI221
S'        raise'
p82
sI222
S'    except RestrictedError:'
p83
sI223
S'        # do not encapsulate (obfuscate) the original RestrictedError'
p84
ssS'call'
p85
S'(ccode=<code object <module> at 0x7ff3a6a003b0, file "/...ations/obsas_dev/controllers/analyse.py", line 3>, environment={\'A\': <class \'gluon.html.A\'>, \'ANY_OF\': <class \'gluon.validators.ANY_OF\'>, \'ASSIGNJS\': <function ASSIGNJS>, \'AppConfig\': <function AppConfig>, \'Auth\': <class \'gluon.tools.Auth\'>, \'B\': <class \'gluon.html.B\'>, \'BEAUTIFY\': <class \'gluon.html.BEAUTIFY\'>, \'BODY\': <class \'gluon.html.BODY\'>, \'BR\': <class \'gluon.html.BR\'>, \'BUTTON\': <class \'gluon.html.BUTTON\'>, ...}, layer=\'/home/www-data/web2py/applications/obsas_dev/controllers/analyse.py\')'
p86
sS'func'
p87
S'restricted'
p88
sa(dp89
g64
S'/home/www-data/web2py/applications/obsas_dev/controllers/analyse.py'
p90
sg66
(dp91
sg72
I140
sg73
(dp92
I129
S"                suffrages_choix=[('exprime','Exprim\xc3\xa9s'),('tous','Tous'),('fiemcpt','FI/EM comptabilit\xc3\xa9')],"
p93
sI130
S"                tris_choix=[ (s,sortfcts[s]['libelle']) for s in sortfcts_order+axes[a].get('tris',[])],"
p94
sI131
S'                tri=tri,'
p95
sI132
S'                filtres = json.dumps(filtres),'
p96
sI133
S'                desc=desc,'
p97
sI134
S'                suffrages=suffrages,'
p98
sI135
S"                elements = axe['elements'],"
p99
sI136
S"                titre = axe['titre'],"
p100
sI137
S'                **votedata'
p101
sI138
S'                )'
p102
ssg85
S'()'
p103
sg87
S'<module>'
p104
sa(dp105
g64
S'/home/www-data/web2py/gluon/globals.py'
p106
sg66
(dp107
S'self'
p108
S'undefined'
p109
sS'f'
S'<function vueaxe>'
p110
ssg72
I409
sg73
(dp111
I404
S"        self.flash = ''            # used by the default view layout"
p112
sI405
S'        self.meta = Storage()      # used by web2py_ajax.html'
p113
sI406
S'        self.menu = []             # used by the default view layout'
p114
sI407
S'        self.files = []            # used by web2py_ajax.html'
p115
sI408
S'        self._vars = None'
p116
sI409
S'        self._caller = lambda f: f()'
p117
sI410
S'        self._view_environment = None'
p118
sI411
S'        self._custom_commit = None'
p119
sI412
S'        self._custom_rollback = None'
p120
sI413
S"        self.generic_patterns = ['*']"
p121
ssg85
S'(f=<function vueaxe>)'
p122
sg87
S'<lambda>'
p123
sa(dp124
g64
S'/home/www-data/web2py/applications/obsas_dev/controllers/analyse.py'
p125
sg66
(dp126
S'hash'
p127
S"'956e2b698977d49899126aa1a5dbcdf3'"
p128
sS'time_expire'
p129
g109
sS'global cache'
p130
S'<gluon.cache.Cache object>'
p131
sS'getVoteData'
p132
S'<function getVoteData>'
p133
sS'cache.ram'
p134
S'<gluon.cache.CacheInRam object>'
p135
sS'votedata'
p136
g109
ssg72
I121
sg73
(dp137
I116
S'            #<a class="vcircle {{position}}" title="{{nom}}" href="acteurs/{{uid}}.html" ></a>'
p138
sI117
S''
sI118
S''
sI119
S'        return dict(items=items,nbscrutins=nbscrutins)'
p139
sI120
S''
sI121
S'    votedata = cache.ram(hash,getVoteData,time_expire=60)'
p140
sI122
S''
sI123
S'    contexte = dict(tri=tri,axe=idaxe,suffrages=suffrages,desc=desc)'
p141
sI124
S''
sI125
S"    votedata['items'].sort(key=lambda x:sortfcts[tri]['fct'](contexte,x),reverse=(desc=='1'))"
p142
ssg85
S'()'
p143
sg87
S'vueaxe'
p144
sa(dp145
g64
S'/home/www-data/web2py/gluon/cache.py'
p146
sg66
(dp147
S'value'
p148
g109
sS'f'
S'<function getVoteData>'
p149
ssg72
I247
sg73
(dp150
I242
S'            return None'
p151
sI243
S'        if item and (dt is None or item[0] > now - dt):'
p152
sI244
S'            return item[1]'
p153
sI245
S'        elif item and (item[0] < now - dt) and destroyer:'
p154
sI246
S'            destroyer(item[1])'
p155
sI247
S'        value = f()'
p156
sI248
S''
sI249
S'        self.locker.acquire()'
p157
sI250
S'        self.storage[key] = (now, value)'
p158
sI251
S"        self.stats[self.app]['misses'] += 1"
p159
ssg85
S"(self=<gluon.cache.CacheInRam object>, key='956e2b698977d49899126aa1a5dbcdf3', f=<function getVoteData>, time_expire=60, destroyer=None)"
p160
sg87
S'__call__'
p161
sa(dp162
g64
S'/home/www-data/web2py/applications/obsas_dev/controllers/analyse.py'
p163
sg66
(dp164
S'pos_icons'
p165
S"{'absent': 'plane', 'abstention': 'meh-o', 'contre': 'thumbs-down', 'nonVotant': 'ban', 'pour': 'thumbs-up', 'voteem': '', 'votefi': ''}"
p166
sS'nb'
p167
S"{'absent': 295, 'abstention': 1, 'contre': 108, 'nonVotant': 0, 'pour': 429}"
p168
sS'pos_libelles'
p169
S"{'absent': 'absents', 'abstention': 'abstention', 'contre': 'votes contre', 'nonVotant': 'non votants (justifi\\xc3\\xa9s)', 'pour': 'votes pour', 'voteem': 'EM-Compatibilit\\xc3\\xa9', 'votefi': 'FI-Compatibilit\\xc3\\xa9'}"
p170
sS'pos'
p171
S"'voteem'"
p172
sS'item'
p173
S"{u'_id': ObjectId('5967a8dbee6a34a372d693d4'), u'actif': True, u'codeType': u'GP', 'deputes': 17, u'key': u'PO730958', u'label': u'La France insoumise', u'legislature': u'15', u'libelle': u'La France insoumise', u'libelleAbrege': u'FI', u'libelleAbrev': u'FI', ...}"
p174
sS'builtinround'
p175
S'<built-in function round>'
p176
sS'builtinfloat'
p177
S"<type 'float'>"
p178
sS'sim'
p179
S"{'voteem': 1, 'votefi': 536}"
p180
sS'nbscrutins'
p181
S'49'
p182
ssg72
I91
sg73
(dp183
I86
S"            total = total_exprime + nb['absent'] + nb['nonVotant']"
p184
sI87
S"            item['votants'] = round(float(total_exprime)/nbscrutins,1)"
p185
sI88
S"            item['participation'] = round(100*float(total_exprime) / (total_exprime + nb['absent']),1) if total_exprime+nb['absent']>0 else '-'"
p186
sI89
S"            item['stats'] = {'exprime':{},'tous': {},'fiemcpt':{}}"
p187
sI90
S"            for pos in ['voteem','votefi']:"
p188
sI91
S"                item['stats']['fiemcpt'][pos]={'n':round(float(nb[pos])/nbscrutins,1),'ntot':nb[pos],"
p189
sI92
S"                                               'position':pos,"
p190
sI93
S"                                               'libelle':pos_libelles[pos],"
p191
sI94
S"                                               'pct':round(100*float(sim[pos])/nbscrutins,1),"
p192
sI95
S"                                               'class':'pct','icon':pos_icons[pos]}"
p193
ssg85
S'()'
p194
sg87
S'getVoteData'
p195
sasS'pyver'
p196
S'Python 2.7.12: /home/www-data/web2py/applications/obsas_dev/.pyenv/bin/python (prefix: /home/www-data/web2py/applications/obsas_dev/.pyenv)'
p197
sS'session'
p198
g59
(S's]\x8c\x01\x00<div><table><tr><td style="font-weight:bold;vertical-align:top;">items</td><td style="vertical-align:top;">:</td><td><div><table><tr><td><div><table><tr><td style="font-weight:bold;vertical-align:top;">cercles</td><td style="vertical-align:top;">:</td><td><div><table></table></div></td></tr><tr><td style="font-weight:bold;vertical-align:top;">key</td><td style="vertical-align:top;">:</td><td><div>PO730964</div></td></tr><tr><td style="font-weight:bold;vertical-align:top;">label</td><td style="vertical-align:top;">:</td><td><div>La R\xc3\xa9publique en Marche</div></td></tr><tr><td style="font-weight:bold;vertical-align:top;">nb</td><td style="vertical-align:top;">:</td><td><div><table><tr><td style="font-weight:bold;vertical-align:top;">absent</td><td style="vertical-align:top;">:</td><td><div>6912</div></td></tr><tr><td style="font-weight:bold;vertical-align:top;">abstention</td><td style="vertical-align:top;">:</td><td><div>15</div></td></tr><tr><td style="font-weight:bold;vertical-align:top;">contre</td><td style="vertical-align:top;">:</td><td><div>3787</div></td></tr><tr><td style="font-weight:bold;vertical-align:top;">nonVotant</td><td style="vertical-align:top;">:</td><td><div>323</div></td></tr><tr><td style="font-weight:bold;vertical-align:top;">pour</td><td style="vertical-align:top;">:</td><td><div>895</div></td></tr></table></div></td></tr><tr><td style="font-weight:bold;vertical-align:top;">participation</td><td style="vertical-align:top;">:</td><td><div>40.0</div></td></tr><tr><td style="font-weight:bold;vertical-align:top;">stats</td><td style="vertical-align:top;">:</td><td><div><table><tr><td><div><table><tr><td style="font-weight:bold;vertical-align:top;">class</td><td style="vertical-align:top;">:</td><td><div>pct</div></td></tr><tr><td style="font-weight:bold;vertical-align:top;">icon</td><td style="vertical-align:top;">:</td><td><div>thumbs-up</div></td></tr><tr><td style="font-weight:bold;vertical-align:top;">libelle</td><td style="vertical-align:top;">:</td><td><div>votes pour</div></td></tr><tr><td style="font-weight:bold;vertical-align:top;">n</td><td style="vertical-align:top;">:</td><td><div>895</div></td></tr><tr><td style="font-weight:bold;vertical-align:top;">pct</td><td style="vertical-align:top;">:</td><td><div>8.0</div></td></tr><tr><td style="font-weight:bold;vertical-align:top;">position</td><td style="vertical-align:top;">:</td><td><div>pour</div></td></tr></table></div></td></tr><tr><td><div><table><tr><td style="font-weight:bold;vertical-align:top;">class</td><td style="vertical-align:top;">:</td><td><div>pct</div></td></tr><tr><td style="font-weight:bold;vertical-align:top;">icon</td><td style="vertical-align:top;">:</td><td><div>thumbs-down</div></td></tr><tr><td style="font-weight:bold;vertical-align:top;">libelle</td><td style="vertical-align:top;">:</td><td><div>votes contre</div></td></tr><tr><td style="font-weight:bold;vertical-align:top;">n</td><td style="vertical-align:top;">:</td><td><div>3787</div></td></tr><tr><td style="font-weight:bold;vertical-align:top;">pct</td><td style="vertical-align:top;">:</td><td><div>32.0</div></td></tr><tr><td style="font-weight:bold;vertical-align:top;">position</td><td style="vertical-align:top;">:</td><td><div>contre</div></td></tr></table></div></td></tr><tr><td><div><table><tr><td style="font-weight:bold;vertical-align:top;">class</td><td style="vertical-align:top;">:</td><td><div>pct</div></td></tr><tr><td style="font-weight:bold;vertical-align:top;">icon</td><td style="vertical-align:top;">:</td><td><div>meh-o</div></td></tr><tr><td style="font-weight:bold;vertical-align:top;">libelle</td><td style="vertical-align:top;">:</td><td><div>abstention</div></td></tr><tr><td style="font-weight:bold;vertical-align:top;">n</td><td style="vertical-align:top;">:</td><td><div>15</div></td></tr><tr><td style="font-weight:bold;vertical-align:top;">pct</td><td style="vertical-align:top;">:</td><td><div>0.0</div></td></tr><tr><td style="font-weight:bold;vertical-align:top;">position</td><td style="vertical-align:top;">:</td><td><div>abstention</div></td></tr></table></div></td></tr><tr><td><div><table><tr><td style="font-weight:bold;vertical-align:top;">class</td><td style="vertical-align:top;">:</td><td><div>pct</div></td></tr><tr><td style="font-weight:bold;vertical-align:top;">icon</td><td style="vertical-align:top;">:</td><td><div>plane</div></td></tr><tr><td style="font-weight:bold;vertical-align:top;">libelle</td><td style="vertical-align:top;">:</td><td><div>absents</div></td></tr><tr><td style="font-weight:bold;vertical-align:top;">n</td><td style="vertical-align:top;">:</td><td><div>6912</div></td></tr><tr><td style="font-weight:bold;vertical-align:top;">pct</td><td style="vertical-align:top;">:</td><td><div>58.0</div></td></tr><tr><td style="font-weight:bold;vertical-align:top;">position</td><td style="vertical-align:top;">:</td><td><div>absent</div></td></tr></table></div></td></tr><tr><td><div><table><tr><td style="font-weight:bold;vertical-align:top;">class</td><td style="vertical-align:top;">:</td><td><div>pct</div></td></tr><tr><td style="font-weight:bold;vertical-align:top;">icon</td><td style="vertical-align:top;">:</td><td><div>ban</div></td></tr><tr><td style="font-weight:bold;vertical-align:top;">libelle</td><td style="vertical-align:top;">:</td><td><div>non votants (justifi\xc3\xa9s)</div></td></tr><tr><td style="font-weight:bold;vertical-align:top;">n</td><td style="vertical-align:top;">:</td><td><div>323</div></td></tr><tr><td style="font-weight:bold;vertical-align:top;">pct</td><td style="vertical-align:top;">:</td><td><div>3.0</div></td></tr><tr><td style="font-weight:bold;vertical-align:top;">position</td><td style="vertical-align:top;">:</td><td><div>nonVotant</div></td></tr></table></div></td></tr></table></div></td></tr><tr><td style="font-weight:bold;vertical-align:top;">stats_exprime</td><td style="vertical-align:top;">:</td><td><div><table><tr><td><div><table><tr><td style="font-weight:bold;vertical-align:top;">big</td><td style="vertical-align:top;">:</td><td><div>False</div></td></tr><tr><td style="font-weight:bold;vertical-align:top;">icon</td><td style="vertical-align:top;">:</td><td><div>thumbs-up</div></td></tr><tr><td style="font-weight:bold;vertical-align:top;">libelle</td><td style="vertical-align:top;">:</td><td><div>votes pour</div></td></tr><tr><td style="font-weight:bold;vertical-align:top;">n</td><td style="vertical-align:top;">:</td><td><div>895</div></td></tr><tr><td style="font-weight:bold;vertical-align:top;">pct</td><td style="vertical-align:top;">:</td><td><div>19.0</div></td></tr><tr><td style="font-weight:bold;vertical-align:top;">position</td><td style="vertical-align:top;">:</td><td><div>pour</div></td></tr></table></div></td></tr><tr><td><div><table><tr><td style="font-weight:bold;vertical-align:top;">big</td><td style="vertical-align:top;">:</td><td><div>False</div></td></tr><tr><td style="font-weight:bold;vertical-align:top;">icon</td><td style="vertical-align:top;">:</td><td><div>thumbs-down</div></td></tr><tr><td style="font-weight:bold;vertical-align:top;">libelle</td><td style="vertical-align:top;">:</td><td><div>votes contre</div></td></tr><tr><td style="font-weight:bold;vertical-align:top;">n</td><td style="vertical-align:top;">:</td><td><div>3787</div></td></tr><tr><td style="font-weight:bold;vertical-align:top;">pct</td><td style="vertical-align:top;">:</td><td><div>81.0</div></td></tr><tr><td style="font-weight:bold;vertical-align:top;">position</td><td style="vertical-align:top;">:</td><td><div>contre</div></td></tr></table></div></td></tr><tr><td><div><table><tr><td style="font-weight:bold;vertical-align:top;">big</td><td style="vertical-align:top;">:</td><td><div>False</div></td></tr><tr><td style="font-weight:bold;vertical-align:top;">icon</td><td style="vertical-align:top;">:</td><td><div>meh-o</div></td></tr><tr><td style="font-weight:bold;vertical-align:top;">libelle</td><td style="vertical-align:top;">:</td><td><div>abstention</div></td></tr><tr><td style="font-weight:bold;vertical-align:top;">n</td><td style="vertical-align:top;">:</td><td><div>15</div></td></tr><tr><td style="font-weight:bold;vertical-align:top;">pct</td><td style="vertical-align:top;">:</td><td><div>0.0</div></td></tr><tr><td style="font-weight:bold;vertical-align:top;">position</td><td style="vertical-align:top;">:</td><td><div>abstention</div></td></tr></table></div></td></tr></table></div></td></tr><tr><td style="font-weight:bold;vertical-align:top;">stats_total</td><td style="vertical-align:top;">:</td><td><div><table><tr><td><div><table><tr><td style="font-weight:bold;vertical-align:top;">class</td><td style="vertical-align:top;">:</td><td><div>pct</div></td></tr><tr><td style="font-weight:bold;vertical-align:top;">icon</td><td style="vertical-align:top;">:</td><td><div>thumbs-up</div></td></tr><tr><td style="font-weight:bold;vertical-align:top;">libelle</td><td style="vertical-align:top;">:</td><td><div>votes pour</div></td></tr><tr><td style="font-weight:bold;vertical-align:top;">n</td><td style="vertical-align:top;">:</td><td><div>895</div></td></tr><tr><td style="font-weight:bold;vertical-align:top;">pct</td><td style="vertical-align:top;">:</td><td><div>8.0</div></td></tr><tr><td style="font-weight:bold;vertical-align:top;">position</td><td style="vertical-align:top;">:</td><td><div>pour</div></td></tr></table></div></td></tr><tr><td><div><table><tr><td style="font-weight:bold;vertical-align:top;">class</td><td style="vertical-align:top;">:</td><td><div>pct</div></td></tr><tr><td style="font-weight:bold;vertical-align:top;">icon</td><td style="vertical-align:top;">:</td><td><div>thumbs-down</div></td></tr><tr><td style="font-weight:bold;vertical-align:top;">libelle</td><td style="vertical-align:top;">:</td><td><div>votes contre</div></td></tr><tr><td style="font-weight:bold;vertical-align:top;">n</td><td style="vertical-align:top;">:</td><td><div>3787</div></td></tr><tr><td style="font-weight:bold;vertical-align:top;">pct</td><td style="vertical-align:top;">:</td><td><div>32.0</div></td></tr><tr><td style="font-weight:bold;vertical-align:top;">position</td><td style="vertical-align:top;">:</td><td><div>contre</div></td></tr></table></div></td></tr><tr><td><div><table><tr><td style="font-weight:bold;vertical-align:top;">class</td><td style="vertical-align:top;">:</td><td><div>pct</div></td></tr><tr><td style="font-weight:bold;vertical-align:top;">icon</td><td style="vertical-align:top;">:</td><td><div>meh-o</div></td></tr><tr><td style="font-weight:bold;vertical-align:top;">libelle</td><td style="vertical-align:top;">:</td><td><div>abstention</div></td></tr><tr><td style="font-weight:bold;vertical-align:top;">n</td><td style="vertical-align:top;">:</td><td><div>15</div></td></tr><tr><td style="font-weight:bold;vertical-align:top;">pct</td><td style="vertical-align:top;">:</td><td><div>0.0</div></td></tr><tr><td style="font-weight:bold;vertical-align:top;">position</td><td style="vertical-align:top;">:</td><td><div>abstention</div></td></tr></table></div></td></tr><tr><td><div><table><tr><td style="font-weight:bold;vertical-align:top;">class</td><td style="vertical-align:top;">:</td><td><div>pct</div></td></tr><tr><td style="font-weight:bold;vertical-align:top;">icon</td><td style="vertical-align:top;">:</td><td><div>plane</div></td></tr><tr><td style="font-weight:bold;vertical-align:top;">libelle</td><td style="vertical-align:top;">:</td><td><div>absents</div></td></tr><tr><td style="font-weight:bold;vertical-align:top;">n</td><td style="vertical-align:top;">:</td><td><div>6912</div></td></tr><tr><td style="font-weight:bold;vertical-align:top;">pct</td><td style="vertical-align:top;">:</td><td><div>58.0</div></td></tr><tr><td style="font-weight:bold;vertical-align:top;">position</td><td style="vertical-align:top;">:</td><td><div>absent</div></td></tr></table></div></td></tr><tr><td><div><table><tr><td style="font-weight:bold;vertical-align:top;">class</td><td style="vertical-align:top;">:</td><td><div>pct</div></td></tr><tr><td style="font-weight:bold;vertical-align:top;">icon</td><td style="vertical-align:top;">:</td><td><div>ban</div></td></tr><tr><td style="font-weight:bold;vertical-align:top;">libelle</td><td style="vertical-align:top;">:</td><td><div>non votants (justifi\xc3\xa9s)</div></td></tr><tr><td style="font-weight:bold;vertical-align:top;">n</td><td style="vertical-align:top;">:</td><td><div>323</div></td></tr><tr><td style="font-weight:bold;vertical-align:top;">pct</td><td style="vertical-align:top;">:</td><td><div>3.0</div></td></tr><tr><td style="font-weight:bold;vertical-align:top;">position</td><td style="vertical-align:top;">:</td><td><div>nonVotant</div></td></tr></table></div></td></tr></table></div></td></tr></table></div></td></tr><tr><td><div><table><tr><td style="font-weight:bold;vertical-align:top;">cercles</td><td style="vertical-align:top;">:</td><td><div><table></table></div></td></tr><tr><td style="font-weight:bold;vertical-align:top;">key</td><td style="vertical-align:top;">:</td><td><div>PO730970</div></td></tr><tr><td style="font-weight:bold;vertical-align:top;">label</td><td style="vertical-align:top;">:</td><td><div>Mouvement D\xc3\xa9mocrate et apparent\xc3\xa9s</div></td></tr><tr><td style="font-weight:bold;vertical-align:top;">nb</td><td style="vertical-align:top;">:</td><td><div><table><tr><td style="font-weight:bold;vertical-align:top;">absent</td><td style="vertical-align:top;">:</td><td><div>1369</div></td></tr><tr><td style="font-weight:bold;vertical-align:top;">abstention</td><td style="vertical-align:top;">:</td><td><div>2</div></td></tr><tr><td style="font-weight:bold;vertical-align:top;">contre</td><td style="vertical-align:top;">:</td><td><div>287</div></td></tr><tr><td style="font-weight:bold;vertical-align:top;">nonVotant</td><td style="vertical-align:top;">:</td><td><div>40</div></td></tr><tr><td style="font-weight:bold;vertical-align:top;">pour</td><td style="vertical-align:top;">:</td><td><div>88</div></td></tr></table></div></td></tr><tr><td style="font-weight:bold;vertical-align:top;">participation</td><td style="vertical-align:top;">:</td><td><div>22.0</div></td></tr><tr><td style="font-weight:bold;vertical-align:top;">stats</td><td style="vertical-align:top;">:</td><td><div><table><tr><td><div><table><tr><td style="font-weight:bold;vertical-align:top;">class</td><td style="vertical-align:top;">:</td><td><div>pct</div></td></tr><tr><td style="font-weight:bold;vertical-align:top;">icon</td><td style="vertical-align:top;">:</td><td><div>thumbs-up</div></td></tr><tr><td style="font-weight:bold;vertical-align:top;">libelle</td><td style="vertical-align:top;">:</td><td><div>votes pour</div></td></tr><tr><td style="font-weight:bold;vertical-align:top;">n</td><td style="vertical-align:top;">:</td><td><div>88</div></td></tr><tr><td style="font-weight:bold;vertical-align:top;">pct</td><td style="vertical-align:top;">:</td><td><div>5.0</div></td></tr><tr><td style="font-weight:bold;vertical-align:top;">position</td><td style="vertical-align:top;">:</td><td><div>pour</div></td></tr></table></div></td></tr><tr><td><div><table><tr><td style="font-weight:bold;vertical-align:top;">class</td><td style="vertical-align:top;">:</td><td><div>pct</div></td></tr><tr><td style="font-weight:bold;vertical-align:top;">icon</td><td style="vertical-align:top;">:</td><td><div>thumbs-down</div></td></tr><tr><td style="font-weight:bold;vertical-align:top;">libelle</td><td style="vertical-align:top;">:</td><td><div>votes contre</div></td></tr><tr><td style="font-weight:bold;vertical-align:top;">n</td><td style="vertical-align:top;">:</td><td><div>287</div></td></tr><tr><td style="font-weight:bold;vertical-align:top;">pct</td><td style="vertical-align:top;">:</td><td><div>16.0</div></td></tr><tr><td style="font-weight:bold;vertical-align:top;">position</td><td style="vertical-align:top;">:</td><td><div>contre</div></td></tr></table></div></td></tr><tr><td><div><table><tr><td style="font-weight:bold;vertical-align:top;">class</td><td style="vertical-align:top;">:</td><td><div>pct</div></td></tr><tr><td style="font-weight:bold;vertical-align:top;">icon</td><td style="vertical-align:top;">:</td><td><div>meh-o</div></td></tr><tr><td style="font-weight:bold;vertical-align:top;">libelle</td><td style="vertical-align:top;">:</td><td><div>abstention</div></td></tr><tr><td style="font-weight:bold;vertical-align:top;">n</td><td style="vertical-align:top;">:</td><td><div>2</div></td></tr><tr><td style="font-weight:bold;vertical-align:top;">pct</td><td style="vertical-align:top;">:</td><td><div>0.0</div></td></tr><tr><td style="font-weight:bold;vertical-align:top;">position</td><td style="vertical-align:top;">:</td><td><div>abstention</div></td></tr></table></div></td></tr><tr><td><div><table><tr><td style="font-weight:bold;vertical-align:top;">class</td><td style="vertical-align:top;">:</td><td><div>pct</div></td></tr><tr><td style="font-weight:bold;vertical-align:top;">icon</td><td style="vertical-align:top;">:</td><td><div>plane</div></td></tr><tr><td style="font-weight:bold;vertical-align:top;">libelle</td><td style="vertical-align:top;">:</td><td><div>absents</div></td></tr><tr><td style="font-weight:bold;vertical-align:top;">n</td><td style="vertical-align:top;">:</td><td><div>1369</div></td></tr><tr><td style="font-weight:bold;vertical-align:top;">pct</td><td style="vertical-align:top;">:</td><td><div>77.0</div></td></tr><tr><td style="font-weight:bold;vertical-align:top;">position</td><td style="vertical-align:top;">:</td><td><div>absent</div></td></tr></table></div></td></tr><tr><td><div><table><tr><td style="font-weight:bold;vertical-align:top;">class</td><td style="vertical-align:top;">:</td><td><div>pct</div></td></tr><tr><td style="font-weight:bold;vertical-align:top;">icon</td><td style="vertical-align:top;">:</td><td><div>ban</div></td></tr><tr><td style="font-weight:bold;vertical-align:top;">libelle</td><td style="vertical-align:top;">:</td><td><div>non votants (justifi\xc3\xa9s)</div></td></tr><tr><td style="font-weight:bold;vertical-align:top;">n</td><td style="vertical-align:top;">:</td><td><div>40</div></td></tr><tr><td style="font-weight:bold;vertical-align:top;">pct</td><td style="vertical-align:top;">:</td><td><div>2.0</div></td></tr><tr><td style="font-weight:bold;vertical-align:top;">position</td><td style="vertical-align:top;">:</td><td><div>nonVotant</div></td></tr></table></div></td></tr></table></div></td></tr><tr><td style="font-weight:bold;vertical-align:top;">stats_exprime</td><td style="vertical-align:top;">:</td><td><div><table><tr><td><div><table><tr><td style="font-weight:bold;vertical-align:top;">big</td><td style="vertical-align:top;">:</td><td><div>False</div></td></tr><tr><td style="font-weight:bold;vertical-align:top;">icon</td><td style="vertical-align:top;">:</td><td><div>thumbs-up</div></td></tr><tr><td style="font-weight:bold;vertical-align:top;">libelle</td><td style="vertical-align:top;">:</td><td><div>votes pour</div></td></tr><tr><td style="font-weight:bold;vertical-align:top;">n</td><td style="vertical-align:top;">:</td><td><div>88</div></td></tr><tr><td style="font-weight:bold;vertical-align:top;">pct</td><td style="vertical-align:top;">:</td><td><div>23.0</div></td></tr><tr><td style="font-weight:bold;vertical-align:top;">position</td><td style="vertical-align:top;">:</td><td><div>pour</div></td></tr></table></div></td></tr><tr><td><div><table><tr><td style="font-weight:bold;vertical-align:top;">big</td><td style="vertical-align:top;">:</td><td><div>False</div></td></tr><tr><td style="font-weight:bold;vertical-align:top;">icon</td><td style="vertical-align:top;">:</td><td><div>thumbs-down</div></td></tr><tr><td style="font-weight:bold;vertical-align:top;">libelle</td><td style="vertical-align:top;">:</td><td><div>votes contre</div></td></tr><tr><td style="font-weight:bold;vertical-align:top;">n</td><td style="vertical-align:top;">:</td><td><div>287</div></td></tr><tr><td style="font-weight:bold;vertical-align:top;">pct</td><td style="vertical-align:top;">:</td><td><div>76.0</div></td></tr><tr><td style="font-weight:bold;vertical-align:top;">position</td><td style="vertical-align:top;">:</td><td><div>contre</div></td></tr></table></div></td></tr><tr><td><div><table><tr><td style="font-weight:bold;vertical-align:top;">big</td><td style="vertical-align:top;">:</td><td><div>False</div></td></tr><tr><td style="font-weight:bold;vertical-align:top;">icon</td><td style="vertical-align:top;">:</td><td><div>meh-o</div></td></tr><tr><td style="font-weight:bold;vertical-align:top;">libelle</td><td style="vertical-align:top;">:</td><td><div>abstention</div></td></tr><tr><td style="font-weight:bold;vertical-align:top;">n</td><td style="vertical-align:top;">:</td><td><div>2</div></td></tr><tr><td style="font-weight:bold;vertical-align:top;">pct</td><td style="vertical-align:top;">:</td><td><div>1.0</div></td></tr><tr><td style="font-weight:bold;vertical-align:top;">position</td><td style="vertical-align:top;">:</td><td><div>abstention</div></td></tr></table></div></td></tr></table></div></td></tr><tr><td style="font-weight:bold;vertical-align:top;">stats_total</td><td style="vertical-align:top;">:</td><td><div><table><tr><td><div><table><tr><td style="font-weight:bold;vertical-align:top;">class</td><td style="vertical-align:top;">:</td><td><div>pct</div></td></tr><tr><td style="font-weight:bold;vertical-align:top;">icon</td><td style="vertical-align:top;">:</td><td><div>thumbs-up</div></td></tr><tr><td style="font-weight:bold;vertical-align:top;">libelle</td><td style="vertical-align:top;">:</td><td><div>votes pour</div></td></tr><tr><td style="font-weight:bold;vertical-align:top;">n</td><td style="vertical-align:top;">:</td><td><div>88</div></td></tr><tr><td style="font-weight:bold;vertical-align:top;">pct</td><td style="vertical-align:top;">:</td><td><div>5.0</div></td></tr><tr><td style="font-weight:bold;vertical-align:top;">position</td><td style="vertical-align:top;">:</td><td><div>pour</div></td></tr></table></div></td></tr><tr><td><div><table><tr><td style="font-weight:bold;vertical-align:top;">class</td><td style="vertical-align:top;">:</td><td><div>pct</div></td></tr><tr><td style="font-weight:bold;vertical-align:top;">icon</td><td style="vertical-align:top;">:</td><td><div>thumbs-down</div></td></tr><tr><td style="font-weight:bold;vertical-align:top;">libelle</td><td style="vertical-align:top;">:</td><td><div>votes contre</div></td></tr><tr><td style="font-weight:bold;vertical-align:top;">n</td><td style="vertical-align:top;">:</td><td><div>287</div></td></tr><tr><td style="font-weight:bold;vertical-align:top;">pct</td><td style="vertical-align:top;">:</td><td><div>16.0</div></td></tr><tr><td style="font-weight:bold;vertical-align:top;">position</td><td style="vertical-align:top;">:</td><td><div>contre</div></td></tr></table></div></td></tr><tr><td><div><table><tr><td style="font-weight:bold;vertical-align:top;">class</td><td style="vertical-align:top;">:</td><td><div>pct</div></td></tr><tr><td style="font-weight:bold;vertical-align:top;">icon</td><td style="vertical-align:top;">:</td><td><div>meh-o</div></td></tr><tr><td style="font-weight:bold;vertical-align:top;">libelle</td><td style="vertical-align:top;">:</td><td><div>abstention</div></td></tr><tr><td style="font-weight:bold;vertical-align:top;">n</td><td style="vertical-align:top;">:</td><td><div>2</div></td></tr><tr><td style="font-weight:bold;vertical-align:top;">pct</td><td style="vertical-align:top;">:</td><td><div>0.0</div></td></tr><tr><td style="font-weight:bold;vertical-align:top;">position</td><td style="vertical-align:top;">:</td><td><div>abstention</div></td></tr></table></div></td></tr><tr><td><div><table><tr><td style="font-weight:bold;vertical-align:top;">class</td><td style="vertical-align:top;">:</td><td><div>pct</div></td></tr><tr><td style="font-weight:bold;vertical-align:top;">icon</td><td style="vertical-align:top;">:</td><td><div>plane</div></td></tr><tr><td style="font-weight:bold;vertical-align:top;">libelle</td><td style="vertical-align:top;">:</td><td><div>absents</div></td></tr><tr><td style="font-weight:bold;vertical-align:top;">n</td><td style="vertical-align:top;">:</td><td><div>1369</div></td></tr><tr><td style="font-weight:bold;vertical-align:top;">pct</td><td style="vertical-align:top;">:</td><td><div>77.0</div></td></tr><tr><td style="font-weight:bold;vertical-align:top;">position</td><td style="vertical-align:top;">:</td><td><div>absent</div></td></tr></table></div></td></tr><tr><td><div><table><tr><td style="font-weight:bold;vertical-align:top;">class</td><td style="vertical-align:top;">:</td><td><div>pct</div></td></tr><tr><td style="font-weight:bold;vertical-align:top;">icon</td><td style="vertical-align:top;">:</td><td><div>ban</div></td></tr><tr><td style="font-weight:bold;vertical-align:top;">libelle</td><td style="vertical-align:top;">:</td><td><div>non votants (justifi\xc3\xa9s)</div></td></tr><tr><td style="font-weight:bold;vertical-align:top;">n</td><td style="vertical-align:top;">:</td><td><div>40</div></td></tr><tr><td style="font-weight:bold;vertical-align:top;">pct</td><td style="vertical-align:top;">:</td><td><div>2.0</div></td></tr><tr><td style="font-weight:bold;vertical-align:top;">position</td><td style="vertical-align:top;">:</td><td><div>nonVotant</div></td></tr></table></div></td></tr></table></div></td></tr></table></div></td></tr><tr><td><div><table><tr><td style="font-weight:bold;vertical-align:top;">cercles</td><td style="vertical-align:top;">:</td><td><div><table></table></div></td></tr><tr><td style="font-weight:bold;vertical-align:top;">key</td><td style="vertical-align:top;">:</td><td><div>PO723569</div></td></tr><tr><td style="font-weight:bold;vertical-align:top;">label</td><td style="vertical-align:top;">:</td><td><div>Non inscrit</div></td></tr><tr><td style="font-weight:bold;vertical-align:top;">nb</td><td style="vertical-align:top;">:</td><td><div><table><tr><td style="font-weight:bold;vertical-align:top;">absent</td><td style="vertical-align:top;">:</td><td><div>482</div></td></tr><tr><td style="font-weight:bold;vertical-align:top;">abstention</td><td style="vertical-align:top;">:</td><td><div>53</div></td></tr><tr><td style="font-weight:bold;vertical-align:top;">contre</td><td style="vertical-align:top;">:</td><td><div>52</div></td></tr><tr><td style="font-weight:bold;vertical-align:top;">nonVotant</td><td style="vertical-align:top;">:</td><td><div>0</div></td></tr><tr><td style="font-weight:bold;vertical-align:top;">pour</td><td style="vertical-align:top;">:</td><td><div>59</div></td></tr></table></div></td></tr><tr><td style="font-weight:bold;vertical-align:top;">participation</td><td style="vertical-align:top;">:</td><td><div>25.0</div></td></tr><tr><td style="font-weight:bold;vertical-align:top;">stats</td><td style="vertical-align:top;">:</td><td><div><table><tr><td><div><table><tr><td style="font-weight:bold;vertical-align:top;">class</td><td style="vertical-align:top;">:</td><td><div>pct</div></td></tr><tr><td style="font-weight:bold;vertical-align:top;">icon</td><td style="vertical-align:top;">:</td><td><div>thumbs-up</div></td></tr><tr><td style="font-weight:bold;vertical-align:top;">libelle</td><td style="vertical-align:top;">:</td><td><div>votes pour</div></td></tr><tr><td style="font-weight:bold;vertical-align:top;">n</td><td style="vertical-align:top;">:</td><td><div>59</div></td></tr><tr><td style="font-weight:bold;vertical-align:top;">pct</td><td style="vertical-align:top;">:</td><td><div>9.0</div></td></tr><tr><td style="font-weight:bold;vertical-align:top;">position</td><td style="vertical-align:top;">:</td><td><div>pour</div></td></tr></table></div></td></tr><tr><td><div><table><tr><td style="font-weight:bold;vertical-align:top;">class</td><td style="vertical-align:top;">:</td><td><div>pct</div></td></tr><tr><td style="font-weight:bold;vertical-align:top;">icon</td><td style="vertical-align:top;">:</td><td><div>thumbs-down</div></td></tr><tr><td style="font-weight:bold;vertical-align:top;">libelle</td><td style="vertical-align:top;">:</td><td><div>votes contre</div></td></tr><tr><td style="font-weight:bold;vertical-align:top;">n</td><td style="vertical-align:top;">:</td><td><div>52</div></td></tr><tr><td style="font-weight:bold;vertical-align:top;">pct</td><td style="vertical-align:top;">:</td><td><div>8.0</div></td></tr><tr><td style="font-weight:bold;vertical-align:top;">position</td><td style="vertical-align:top;">:</td><td><div>contre</div></td></tr></table></div></td></tr><tr><td><div><table><tr><td style="font-weight:bold;vertical-align:top;">class</td><td style="vertical-align:top;">:</td><td><div>pct</div></td></tr><tr><td style="font-weight:bold;vertical-align:top;">icon</td><td style="vertical-align:top;">:</td><td><div>meh-o</div></td></tr><tr><td style="font-weight:bold;vertical-align:top;">libelle</td><td style="vertical-align:top;">:</td><td><div>abstention</div></td></tr><tr><td style="font-weight:bold;vertical-align:top;">n</td><td style="vertical-align:top;">:</td><td><div>53</div></td></tr><tr><td style="font-weight:bold;vertical-align:top;">pct</td><td style="vertical-align:top;">:</td><td><div>8.0</div></td></tr><tr><td style="font-weight:bold;vertical-align:top;">position</td><td style="vertical-align:top;">:</td><td><div>abstention</div></td></tr></table></div></td></tr><tr><td><div><table><tr><td style="font-weight:bold;vertical-align:top;">class</td><td style="vertical-align:top;">:</td><td><div>pct</div></td></tr><tr><td style="font-weight:bold;vertical-align:top;">icon</td><td style="vertical-align:top;">:</td><td><div>plane</div></td></tr><tr><td style="font-weight:bold;vertical-align:top;">libelle</td><td style="vertical-align:top;">:</td><td><div>absents</div></td></tr><tr><td style="font-weight:bold;vertical-align:top;">n</td><td style="vertical-align:top;">:</td><td><div>482</div></td></tr><tr><td style="font-weight:bold;vertical-align:top;">pct</td><td style="vertical-align:top;">:</td><td><div>75.0</div></td></tr><tr><td style="font-weight:bold;vertical-align:top;">position</td><td style="vertical-align:top;">:</td><td><div>absent</div></td></tr></table></div></td></tr><tr><td><div><table><tr><td style="font-weight:bold;vertical-align:top;">class</td><td style="vertical-align:top;">:</td><td><div>pct</div></td></tr><tr><td style="font-weight:bold;vertical-align:top;">icon</td><td style="vertical-align:top;">:</td><td><div>ban</div></td></tr><tr><td style="font-weight:bold;vertical-align:top;">libelle</td><td style="vertical-align:top;">:</td><td><div>non votants (justifi\xc3\xa9s)</div></td></tr><tr><td style="font-weight:bold;vertical-align:top;">n</td><td style="vertical-align:top;">:</td><td><div>0</div></td></tr><tr><td style="font-weight:bold;vertical-align:top;">pct</td><td style="vertical-align:top;">:</td><td><div>0.0</div></td></tr><tr><td style="font-weight:bold;vertical-align:top;">position</td><td style="vertical-align:top;">:</td><td><div>nonVotant</div></td></tr></table></div></td></tr></table></div></td></tr><tr><td style="font-weight:bold;vertical-align:top;">stats_exprime</td><td style="vertical-align:top;">:</td><td><div><table><tr><td><div><table><tr><td style="font-weight:bold;vertical-align:top;">big</td><td style="vertical-align:top;">:</td><td><div>False</div></td></tr><tr><td style="font-weight:bold;vertical-align:top;">icon</td><td style="vertical-align:top;">:</td><td><div>thumbs-up</div></td></tr><tr><td style="font-weight:bold;vertical-align:top;">libelle</td><td style="vertical-align:top;">:</td><td><div>votes pour</div></td></tr><tr><td style="font-weight:bold;vertical-align:top;">n</td><td style="vertical-align:top;">:</td><td><div>59</div></td></tr><tr><td style="font-weight:bold;vertical-align:top;">pct</td><td style="vertical-align:top;">:</td><td><div>36.0</div></td></tr><tr><td style="font-weight:bold;vertical-align:top;">position</td><td style="vertical-align:top;">:</td><td><div>pour</div></td></tr></table></div></td></tr><tr><td><div><table><tr><td style="font-weight:bold;vertical-align:top;">big</td><td style="vertical-align:top;">:</td><td><div>False</div></td></tr><tr><td style="font-weight:bold;vertical-align:top;">icon</td><td style="vertical-align:top;">:</td><td><div>thumbs-down</div></td></tr><tr><td style="font-weight:bold;vertical-align:top;">libelle</td><td style="vertical-align:top;">:</td><td><div>votes contre</div></td></tr><tr><td style="font-weight:bold;vertical-align:top;">n</td><td style="vertical-align:top;">:</td><td><div>52</div></td></tr><tr><td style="font-weight:bold;vertical-align:top;">pct</td><td style="vertical-align:top;">:</td><td><div>32.0</div></td></tr><tr><td style="font-weight:bold;vertical-align:top;">position</td><td style="vertical-align:top;">:</td><td><div>contre</div></td></tr></table></div></td></tr><tr><td><div><table><tr><td style="font-weight:bold;vertical-align:top;">big</td><td style="vertical-align:top;">:</td><td><div>False</div></td></tr><tr><td style="font-weight:bold;vertical-align:top;">icon</td><td style="vertical-align:top;">:</td><td><div>meh-o</div></td></tr><tr><td style="font-weight:bold;vertical-align:top;">libelle</td><td style="vertical-align:top;">:</td><td><div>abstention</div></td></tr><tr><td style="font-weight:bold;vertical-align:top;">n</td><td style="vertical-align:top;">:</td><td><div>53</div></td></tr><tr><td style="font-weight:bold;vertical-align:top;">pct</td><td style="vertical-align:top;">:</td><td><div>32.0</div></td></tr><tr><td style="font-weight:bold;vertical-align:top;">position</td><td style="vertical-align:top;">:</td><td><div>abstention</div></td></tr></table></div></td></tr></table></div></td></tr><tr><td style="font-weight:bold;vertical-align:top;">stats_total</td><td style="vertical-align:top;">:</td><td><div><table><tr><td><div><table><tr><td style="font-weight:bold;vertical-align:top;">class</td><td style="vertical-align:top;">:</td><td><div>pct</div></td></tr><tr><td style="font-weight:bold;vertical-align:top;">icon</td><td style="vertical-align:top;">:</td><td><div>thumbs-up</div></td></tr><tr><td style="font-weight:bold;vertical-align:top;">libelle</td><td style="vertical-align:top;">:</td><td><div>votes pour</div></td></tr><tr><td style="font-weight:bold;vertical-align:top;">n</td><td style="vertical-align:top;">:</td><td><div>59</div></td></tr><tr><td style="font-weight:bold;vertical-align:top;">pct</td><td style="vertical-align:top;">:</td><td><div>9.0</div></td></tr><tr><td style="font-weight:bold;vertical-align:top;">position</td><td style="vertical-align:top;">:</td><td><div>pour</div></td></tr></table></div></td></tr><tr><td><div><table><tr><td style="font-weight:bold;vertical-align:top;">class</td><td style="vertical-align:top;">:</td><td><div>pct</div></td></tr><tr><td style="font-weight:bold;vertical-align:top;">icon</td><td style="vertical-align:top;">:</td><td><div>thumbs-down</div></td></tr><tr><td style="font-weight:bold;vertical-align:top;">libelle</td><td style="vertical-align:top;">:</td><td><div>votes contre</div></td></tr><tr><td style="font-weight:bold;vertical-align:top;">n</td><td style="vertical-align:top;">:</td><td><div>52</div></td></tr><tr><td style="font-weight:bold;vertical-align:top;">pct</td><td style="vertical-align:top;">:</td><td><div>8.0</div></td></tr><tr><td style="font-weight:bold;vertical-align:top;">position</td><td style="vertical-align:top;">:</td><td><div>contre</div></td></tr></table></div></td></tr><tr><td><div><table><tr><td style="font-weight:bold;vertical-align:top;">class</td><td style="vertical-align:top;">:</td><td><div>pct</div></td></tr><tr><td style="font-weight:bold;vertical-align:top;">icon</td><td style="vertical-align:top;">:</td><td><div>meh-o</div></td></tr><tr><td style="font-weight:bold;vertical-align:top;">libelle</td><td style="vertical-align:top;">:</td><td><div>abstention</div></td></tr><tr><td style="font-weight:bold;vertical-align:top;">n</td><td style="vertical-align:top;">:</td><td><div>53</div></td></tr><tr><td style="font-weight:bold;vertical-align:top;">pct</td><td style="vertical-align:top;">:</td><td><div>8.0</div></td></tr><tr><td style="font-weight:bold;vertical-align:top;">position</td><td style="vertical-align:top;">:</td><td><div>abstention</div></td></tr></table></div></td></tr><tr><td><div><table><tr><td style="font-weight:bold;vertical-align:top;">class</td><td style="vertical-align:top;">:</td><td><div>pct</div></td></tr><tr><td style="font-weight:bold;vertical-align:top;">icon</td><td style="vertical-align:top;">:</td><td><div>plane</div></td></tr><tr><td style="font-weight:bold;vertical-align:top;">libelle</td><td style="vertical-align:top;">:</td><td><div>absents</div></td></tr><tr><td style="font-weight:bold;vertical-align:top;">n</td><td style="vertical-align:top;">:</td><td><div>482</div></td></tr><tr><td style="font-weight:bold;vertical-align:top;">pct</td><td style="vertical-align:top;">:</td><td><div>75.0</div></td></tr><tr><td style="font-weight:bold;vertical-align:top;">position</td><td style="vertical-align:top;">:</td><td><div>absent</div></td></tr></table></div></td></tr><tr><td><div><table><tr><td style="font-weight:bold;vertical-align:top;">class</td><td style="vertical-align:top;">:</td><td><div>pct</div></td></tr><tr><td style="font-weight:bold;vertical-align:top;">icon</td><td style="vertical-align:top;">:</td><td><div>ban</div></td></tr><tr><td style="font-weight:bold;vertical-align:top;">libelle</td><td style="vertical-align:top;">:</td><td><div>non votants (justifi\xc3\xa9s)</div></td></tr><tr><td style="font-weight:bold;vertical-align:top;">n</td><td style="vertical-align:top;">:</td><td><div>0</div></td></tr><tr><td style="font-weight:bold;vertical-align:top;">pct</td><td style="vertical-align:top;">:</td><td><div>0.0</div></td></tr><tr><td style="font-weight:bold;vertical-align:top;">position</td><td style="vertical-align:top;">:</td><td><div>nonVotant</div></td></tr></table></div></td></tr></table></div></td></tr></table></div></td></tr><tr><td><div><table><tr><td style="font-weight:bold;vertical-align:top;">cercles</td><td style="vertical-align:top;">:</td><td><div><table></table></div></td></tr><tr><td style="font-weight:bold;vertical-align:top;">key</td><td style="vertical-align:top;">:</td><td><div>PO730934</div></td></tr><tr><td style="font-weight:bold;vertical-align:top;">label</td><td style="vertical-align:top;">:</td><td><div>Les R\xc3\xa9publicains</div></td></tr><tr><td style="font-weight:bold;vertical-align:top;">nb</td><td style="vertical-align:top;">:</td><td><div><table><tr><td style="font-weight:bold;vertical-align:top;">absent</td><td style="vertical-align:top;">:</td><td><div>3266</div></td></tr><tr><td style="font-weight:bold;vertical-align:top;">abstention</td><td style="vertical-align:top;">:</td><td><div>92</div></td></tr><tr><td style="font-weight:bold;vertical-align:top;">contre</td><td style="vertical-align:top;">:</td><td><div>353</div></td></tr><tr><td style="font-weight:bold;vertical-align:top;">nonVotant</td><td style="vertical-align:top;">:</td><td><div>0</div></td></tr><tr><td style="font-weight:bold;vertical-align:top;">pour</td><td style="vertical-align:top;">:</td><td><div>89</div></td></tr></table></div></td></tr><tr><td style="font-weight:bold;vertical-align:top;">participation</td><td style="vertical-align:top;">:</td><td><div>14.0</div></td></tr><tr><td style="font-weight:bold;vertical-align:top;">stats</td><td style="vertical-align:top;">:</td><td><div><table><tr><td><div><table><tr><td style="font-weight:bold;vertical-align:top;">class</td><td style="vertical-align:top;">:</td><td><div>pct</div></td></tr><tr><td style="font-weight:bold;vertical-align:top;">icon</td><td style="vertical-align:top;">:</td><td><div>thumbs-up</div></td></tr><tr><td style="font-weight:bold;vertical-align:top;">libelle</td><td style="vertical-align:top;">:</td><td><div>votes pour</div></td></tr><tr><td style="font-weight:bold;vertical-align:top;">n</td><td style="vertical-align:top;">:</td><td><div>89</div></td></tr><tr><td style="font-weight:bold;vertical-align:top;">pct</td><td style="vertical-align:top;">:</td><td><div>2.0</div></td></tr><tr><td style="font-weight:bold;vertical-align:top;">position</td><td style="vertical-align:top;">:</td><td><div>pour</div></td></tr></table></div></td></tr><tr><td><div><table><tr><td style="font-weight:bold;vertical-align:top;">class</td><td style="vertical-align:top;">:</td><td><div>pct</div></td></tr><tr><td style="font-weight:bold;vertical-align:top;">icon</td><td style="vertical-align:top;">:</td><td><div>thumbs-down</div></td></tr><tr><td style="font-weight:bold;vertical-align:top;">libelle</td><td style="vertical-align:top;">:</td><td><div>votes contre</div></td></tr><tr><td style="font-weight:bold;vertical-align:top;">n</td><td style="vertical-align:top;">:</td><td><div>353</div></td></tr><tr><td style="font-weight:bold;vertical-align:top;">pct</td><td style="vertical-align:top;">:</td><td><div>9.0</div></td></tr><tr><td style="font-weight:bold;vertical-align:top;">position</td><td style="vertical-align:top;">:</td><td><div>contre</div></td></tr></table></div></td></tr><tr><td><div><table><tr><td style="font-weight:bold;vertical-align:top;">class</td><td style="vertical-align:top;">:</td><td><div>pct</div></td></tr><tr><td style="font-weight:bold;vertical-align:top;">icon</td><td style="vertical-align:top;">:</td><td><div>meh-o</div></td></tr><tr><td style="font-weight:bold;vertical-align:top;">libelle</td><td style="vertical-align:top;">:</td><td><div>abstention</div></td></tr><tr><td style="font-weight:bold;vertical-align:top;">n</td><td style="vertical-align:top;">:</td><td><div>92</div></td></tr><tr><td style="font-weight:bold;vertical-align:top;">pct</td><td style="vertical-align:top;">:</td><td><div>2.0</div></td></tr><tr><td style="font-weight:bold;vertical-align:top;">position</td><td style="vertical-align:top;">:</td><td><div>abstention</div></td></tr></table></div></td></tr><tr><td><div><table><tr><td style="font-weight:bold;vertical-align:top;">class</td><td style="vertical-align:top;">:</td><td><div>pct</div></td></tr><tr><td style="font-weight:bold;vertical-align:top;">icon</td><td style="vertical-align:top;">:</td><td><div>plane</div></td></tr><tr><td style="font-weight:bold;vertical-align:top;">libelle</td><td style="vertical-align:top;">:</td><td><div>absents</div></td></tr><tr><td style="font-weight:bold;vertical-align:top;">n</td><td style="vertical-align:top;">:</td><td><div>3266</div></td></tr><tr><td style="font-weight:bold;vertical-align:top;">pct</td><td style="vertical-align:top;">:</td><td><div>86.0</div></td></tr><tr><td style="font-weight:bold;vertical-align:top;">position</td><td style="vertical-align:top;">:</td><td><div>absent</div></td></tr></table></div></td></tr><tr><td><div><table><tr><td style="font-weight:bold;vertical-align:top;">class</td><td style="vertical-align:top;">:</td><td><div>pct</div></td></tr><tr><td style="font-weight:bold;vertical-align:top;">icon</td><td style="vertical-align:top;">:</td><td><div>ban</div></td></tr><tr><td style="font-weight:bold;vertical-align:top;">libelle</td><td style="vertical-align:top;">:</td><td><div>non votants (justifi\xc3\xa9s)</div></td></tr><tr><td style="font-weight:bold;vertical-align:top;">n</td><td style="vertical-align:top;">:</td><td><div>0</div></td></tr><tr><td style="font-weight:bold;vertical-align:top;">pct</td><td style="vertical-align:top;">:</td><td><div>0.0</div></td></tr><tr><td style="font-weight:bold;vertical-align:top;">position</td><td style="vertical-align:top;">:</td><td><div>nonVotant</div></td></tr></table></div></td></tr></table></div></td></tr><tr><td style="font-weight:bold;vertical-align:top;">stats_exprime</td><td style="vertical-align:top;">:</td><td><div><table><tr><td><div><table><tr><td style="font-weight:bold;vertical-align:top;">big</td><td style="vertical-align:top;">:</td><td><div>False</div></td></tr><tr><td style="font-weight:bold;vertical-align:top;">icon</td><td style="vertical-align:top;">:</td><td><div>thumbs-up</div></td></tr><tr><td style="font-weight:bold;vertical-align:top;">libelle</td><td style="vertical-align:top;">:</td><td><div>votes pour</div></td></tr><tr><td style="font-weight:bold;vertical-align:top;">n</td><td style="vertical-align:top;">:</td><td><div>89</div></td></tr><tr><td style="font-weight:bold;vertical-align:top;">pct</td><td style="vertical-align:top;">:</td><td><div>17.0</div></td></tr><tr><td style="font-weight:bold;vertical-align:top;">position</td><td style="vertical-align:top;">:</td><td><div>pour</div></td></tr></table></div></td></tr><tr><td><div><table><tr><td style="font-weight:bold;vertical-align:top;">big</td><td style="vertical-align:top;">:</td><td><div>False</div></td></tr><tr><td style="font-weight:bold;vertical-align:top;">icon</td><td style="vertical-align:top;">:</td><td><div>thumbs-down</div></td></tr><tr><td style="font-weight:bold;vertical-align:top;">libelle</td><td style="vertical-align:top;">:</td><td><div>votes contre</div></td></tr><tr><td style="font-weight:bold;vertical-align:top;">n</td><td style="vertical-align:top;">:</td><td><div>353</div></td></tr><tr><td style="font-weight:bold;vertical-align:top;">pct</td><td style="vertical-align:top;">:</td><td><div>66.0</div></td></tr><tr><td style="font-weight:bold;vertical-align:top;">position</td><td style="vertical-align:top;">:</td><td><div>contre</div></td></tr></table></div></td></tr><tr><td><div><table><tr><td style="font-weight:bold;vertical-align:top;">big</td><td style="vertical-align:top;">:</td><td><div>False</div></td></tr><tr><td style="font-weight:bold;vertical-align:top;">icon</td><td style="vertical-align:top;">:</td><td><div>meh-o</div></td></tr><tr><td style="font-weight:bold;vertical-align:top;">libelle</td><td style="vertical-align:top;">:</td><td><div>abstention</div></td></tr><tr><td style="font-weight:bold;vertical-align:top;">n</td><td style="vertical-align:top;">:</td><td><div>92</div></td></tr><tr><td style="font-weight:bold;vertical-align:top;">pct</td><td style="vertical-align:top;">:</td><td><div>17.0</div></td></tr><tr><td style="font-weight:bold;vertical-align:top;">position</td><td style="vertical-align:top;">:</td><td><div>abstention</div></td></tr></table></div></td></tr></table></div></td></tr><tr><td style="font-weight:bold;vertical-align:top;">stats_total</td><td style="vertical-align:top;">:</td><td><div><table><tr><td><div><table><tr><td style="font-weight:bold;vertical-align:top;">class</td><td style="vertical-align:top;">:</td><td><div>pct</div></td></tr><tr><td style="font-weight:bold;vertical-align:top;">icon</td><td style="vertical-align:top;">:</td><td><div>thumbs-up</div></td></tr><tr><td style="font-weight:bold;vertical-align:top;">libelle</td><td style="vertical-align:top;">:</td><td><div>votes pour</div></td></tr><tr><td style="font-weight:bold;vertical-align:top;">n</td><td style="vertical-align:top;">:</td><td><div>89</div></td></tr><tr><td style="font-weight:bold;vertical-align:top;">pct</td><td style="vertical-align:top;">:</td><td><div>2.0</div></td></tr><tr><td style="font-weight:bold;vertical-align:top;">position</td><td style="vertical-align:top;">:</td><td><div>pour</div></td></tr></table></div></td></tr><tr><td><div><table><tr><td style="font-weight:bold;vertical-align:top;">class</td><td style="vertical-align:top;">:</td><td><div>pct</div></td></tr><tr><td style="font-weight:bold;vertical-align:top;">icon</td><td style="vertical-align:top;">:</td><td><div>thumbs-down</div></td></tr><tr><td style="font-weight:bold;vertical-align:top;">libelle</td><td style="vertical-align:top;">:</td><td><div>votes contre</div></td></tr><tr><td style="font-weight:bold;vertical-align:top;">n</td><td style="vertical-align:top;">:</td><td><div>353</div></td></tr><tr><td style="font-weight:bold;vertical-align:top;">pct</td><td style="vertical-align:top;">:</td><td><div>9.0</div></td></tr><tr><td style="font-weight:bold;vertical-align:top;">position</td><td style="vertical-align:top;">:</td><td><div>contre</div></td></tr></table></div></td></tr><tr><td><div><table><tr><td style="font-weight:bold;vertical-align:top;">class</td><td style="vertical-align:top;">:</td><td><div>pct</div></td></tr><tr><td style="font-weight:bold;vertical-align:top;">icon</td><td style="vertical-align:top;">:</td><td><div>meh-o</div></td></tr><tr><td style="font-weight:bold;vertical-align:top;">libelle</td><td style="vertical-align:top;">:</td><td><div>abstention</div></td></tr><tr><td style="font-weight:bold;vertical-align:top;">n</td><td style="vertical-align:top;">:</td><td><div>92</div></td></tr><tr><td style="font-weight:bold;vertical-align:top;">pct</td><td style="vertical-align:top;">:</td><td><div>2.0</div></td></tr><tr><td style="font-weight:bold;vertical-align:top;">position</td><td style="vertical-align:top;">:</td><td><div>abstention</div></td></tr></table></div></td></tr><tr><td><div><table><tr><td style="font-weight:bold;vertical-align:top;">class</td><td style="vertical-align:top;">:</td><td><div>pct</div></td></tr><tr><td style="font-weight:bold;vertical-align:top;">icon</td><td style="vertical-align:top;">:</td><td><div>plane</div></td></tr><tr><td style="font-weight:bold;vertical-align:top;">libelle</td><td style="vertical-align:top;">:</td><td><div>absents</div></td></tr><tr><td style="font-weight:bold;vertical-align:top;">n</td><td style="vertical-align:top;">:</td><td><div>3266</div></td></tr><tr><td style="font-weight:bold;vertical-align:top;">pct</td><td style="vertical-align:top;">:</td><td><div>86.0</div></td></tr><tr><td style="font-weight:bold;vertical-align:top;">position</td><td style="vertical-align:top;">:</td><td><div>absent</div></td></tr></table></div></td></tr><tr><td><div><table><tr><td style="font-weight:bold;vertical-align:top;">class</td><td style="vertical-align:top;">:</td><td><div>pct</div></td></tr><tr><td style="font-weight:bold;vertical-align:top;">icon</td><td style="vertical-align:top;">:</td><td><div>ban</div></td></tr><tr><td style="font-weight:bold;vertical-align:top;">libelle</td><td style="vertical-align:top;">:</td><td><div>non votants (justifi\xc3\xa9s)</div></td></tr><tr><td style="font-weight:bold;vertical-align:top;">n</td><td style="vertical-align:top;">:</td><td><div>0</div></td></tr><tr><td style="font-weight:bold;vertical-align:top;">pct</td><td style="vertical-align:top;">:</td><td><div>0.0</div></td></tr><tr><td style="font-weight:bold;vertical-align:top;">position</td><td style="vertical-align:top;">:</td><td><div>nonVotant</div></td></tr></table></div></td></tr></table></div></td></tr></table></div></td></tr><tr><td><div><table><tr><td style="font-weight:bold;vertical-align:top;">cercles</td><td style="vertical-align:top;">:</td><td><div><table></table></div></td></tr><tr><td style="font-weight:bold;vertical-align:top;">key</td><td style="vertical-align:top;">:</td><td><div>PO730940</div></td></tr><tr><td style="font-weight:bold;vertical-align:top;">label</td><td style="vertical-align:top;">:</td><td><div>Gauche d\xc3\xa9mocrate et r\xc3\xa9publicaine</div></td></tr><tr><td style="font-weight:bold;vertical-align:top;">nb</td><td style="vertical-align:top;">:</td><td><div><table><tr><td style="font-weight:bold;vertical-align:top;">absent</td><td style="vertical-align:top;">:</td><td><div>336</div></td></tr><tr><td style="font-weight:bold;vertical-align:top;">abstention</td><td style="vertical-align:top;">:</td><td><div>5</div></td></tr><tr><td style="font-weight:bold;vertical-align:top;">contre</td><td style="vertical-align:top;">:</td><td><div>43</div></td></tr><tr><td style="font-weight:bold;vertical-align:top;">nonVotant</td><td style="vertical-align:top;">:</td><td><div>0</div></td></tr><tr><td style="font-weight:bold;vertical-align:top;">pour</td><td style="vertical-align:top;">:</td><td><div>224</div></td></tr></table></div></td></tr><tr><td style="font-weight:bold;vertical-align:top;">participation</td><td style="vertical-align:top;">:</td><td><div>45.0</div></td></tr><tr><td style="font-weight:bold;vertical-align:top;">stats</td><td style="vertical-align:top;">:</td><td><div><table><tr><td><div><table><tr><td style="font-weight:bold;vertical-align:top;">class</td><td style="vertical-align:top;">:</td><td><div>pct</div></td></tr><tr><td style="font-weight:bold;vertical-align:top;">icon</td><td style="vertical-align:top;">:</td><td><div>thumbs-up</div></td></tr><tr><td style="font-weight:bold;vertical-align:top;">libelle</td><td style="vertical-align:top;">:</td><td><div>votes pour</div></td></tr><tr><td style="font-weight:bold;vertical-align:top;">n</td><td style="vertical-align:top;">:</td><td><div>224</div></td></tr><tr><td style="font-weight:bold;vertical-align:top;">pct</td><td style="vertical-align:top;">:</td><td><div>37.0</div></td></tr><tr><td style="font-weight:bold;vertical-align:top;">position</td><td style="vertical-align:top;">:</td><td><div>pour</div></td></tr></table></div></td></tr><tr><td><div><table><tr><td style="font-weight:bold;vertical-align:top;">class</td><td style="vertical-align:top;">:</td><td><div>pct</div></td></tr><tr><td style="font-weight:bold;vertical-align:top;">icon</td><td style="vertical-align:top;">:</td><td><div>thumbs-down</div></td></tr><tr><td style="font-weight:bold;vertical-align:top;">libelle</td><td style="vertical-align:top;">:</td><td><div>votes contre</div></td></tr><tr><td style="font-weight:bold;vertical-align:top;">n</td><td style="vertical-align:top;">:</td><td><div>43</div></td></tr><tr><td style="font-weight:bold;vertical-align:top;">pct</td><td style="vertical-align:top;">:</td><td><div>7.0</div></td></tr><tr><td style="font-weight:bold;vertical-align:top;">position</td><td style="vertical-align:top;">:</td><td><div>contre</div></td></tr></table></div></td></tr><tr><td><div><table><tr><td style="font-weight:bold;vertical-align:top;">class</td><td style="vertical-align:top;">:</td><td><div>pct</div></td></tr><tr><td style="font-weight:bold;vertical-align:top;">icon</td><td style="vertical-align:top;">:</td><td><div>meh-o</div></td></tr><tr><td style="font-weight:bold;vertical-align:top;">libelle</td><td style="vertical-align:top;">:</td><td><div>abstention</div></td></tr><tr><td style="font-weight:bold;vertical-align:top;">n</td><td style="vertical-align:top;">:</td><td><div>5</div></td></tr><tr><td style="font-weight:bold;vertical-align:top;">pct</td><td style="vertical-align:top;">:</td><td><div>1.0</div></td></tr><tr><td style="font-weight:bold;vertical-align:top;">position</td><td style="vertical-align:top;">:</td><td><div>abstention</div></td></tr></table></div></td></tr><tr><td><div><table><tr><td style="font-weight:bold;vertical-align:top;">class</td><td style="vertical-align:top;">:</td><td><div>pct</div></td></tr><tr><td style="font-weight:bold;vertical-align:top;">icon</td><td style="vertical-align:top;">:</td><td><div>plane</div></td></tr><tr><td style="font-weight:bold;vertical-align:top;">libelle</td><td style="vertical-align:top;">:</td><td><div>absents</div></td></tr><tr><td style="font-weight:bold;vertical-align:top;">n</td><td style="vertical-align:top;">:</td><td><div>336</div></td></tr><tr><td style="font-weight:bold;vertical-align:top;">pct</td><td style="vertical-align:top;">:</td><td><div>55.0</div></td></tr><tr><td style="font-weight:bold;vertical-align:top;">position</td><td style="vertical-align:top;">:</td><td><div>absent</div></td></tr></table></div></td></tr><tr><td><div><table><tr><td style="font-weight:bold;vertical-align:top;">class</td><td style="vertical-align:top;">:</td><td><div>pct</div></td></tr><tr><td style="font-weight:bold;vertical-align:top;">icon</td><td style="vertical-align:top;">:</td><td><div>ban</div></td></tr><tr><td style="font-weight:bold;vertical-align:top;">libelle</td><td style="vertical-align:top;">:</td><td><div>non votants (justifi\xc3\xa9s)</div></td></tr><tr><td style="font-weight:bold;vertical-align:top;">n</td><td style="vertical-align:top;">:</td><td><div>0</div></td></tr><tr><td style="font-weight:bold;vertical-align:top;">pct</td><td style="vertical-align:top;">:</td><td><div>0.0</div></td></tr><tr><td style="font-weight:bold;vertical-align:top;">position</td><td style="vertical-align:top;">:</td><td><div>nonVotant</div></td></tr></table></div></td></tr></table></div></td></tr><tr><td style="font-weight:bold;vertical-align:top;">stats_exprime</td><td style="vertical-align:top;">:</td><td><div><table><tr><td><div><table><tr><td style="font-weight:bold;vertical-align:top;">big</td><td style="vertical-align:top;">:</td><td><div>False</div></td></tr><tr><td style="font-weight:bold;vertical-align:top;">icon</td><td style="vertical-align:top;">:</td><td><div>thumbs-up</div></td></tr><tr><td style="font-weight:bold;vertical-align:top;">libelle</td><td style="vertical-align:top;">:</td><td><div>votes pour</div></td></tr><tr><td style="font-weight:bold;vertical-align:top;">n</td><td style="vertical-align:top;">:</td><td><div>224</div></td></tr><tr><td style="font-weight:bold;vertical-align:top;">pct</td><td style="vertical-align:top;">:</td><td><div>82.0</div></td></tr><tr><td style="font-weight:bold;vertical-align:top;">position</td><td style="vertical-align:top;">:</td><td><div>pour</div></td></tr></table></div></td></tr><tr><td><div><table><tr><td style="font-weight:bold;vertical-align:top;">big</td><td style="vertical-align:top;">:</td><td><div>False</div></td></tr><tr><td style="font-weight:bold;vertical-align:top;">icon</td><td style="vertical-align:top;">:</td><td><div>thumbs-down</div></td></tr><tr><td style="font-weight:bold;vertical-align:top;">libelle</td><td style="vertical-align:top;">:</td><td><div>votes contre</div></td></tr><tr><td style="font-weight:bold;vertical-align:top;">n</td><td style="vertical-align:top;">:</td><td><div>43</div></td></tr><tr><td style="font-weight:bold;vertical-align:top;">pct</td><td style="vertical-align:top;">:</td><td><div>16.0</div></td></tr><tr><td style="font-weight:bold;vertical-align:top;">position</td><td style="vertical-align:top;">:</td><td><div>contre</div></td></tr></table></div></td></tr><tr><td><div><table><tr><td style="font-weight:bold;vertical-align:top;">big</td><td style="vertical-align:top;">:</td><td><div>False</div></td></tr><tr><td style="font-weight:bold;vertical-align:top;">icon</td><td style="vertical-align:top;">:</td><td><div>meh-o</div></td></tr><tr><td style="font-weight:bold;vertical-align:top;">libelle</td><td style="vertical-align:top;">:</td><td><div>abstention</div></td></tr><tr><td style="font-weight:bold;vertical-align:top;">n</td><td style="vertical-align:top;">:</td><td><div>5</div></td></tr><tr><td style="font-weight:bold;vertical-align:top;">pct</td><td style="vertical-align:top;">:</td><td><div>2.0</div></td></tr><tr><td style="font-weight:bold;vertical-align:top;">position</td><td style="vertical-align:top;">:</td><td><div>abstention</div></td></tr></table></div></td></tr></table></div></td></tr><tr><td style="font-weight:bold;vertical-align:top;">stats_total</td><td style="vertical-align:top;">:</td><td><div><table><tr><td><div><table><tr><td style="font-weight:bold;vertical-align:top;">class</td><td style="vertical-align:top;">:</td><td><div>pct</div></td></tr><tr><td style="font-weight:bold;vertical-align:top;">icon</td><td style="vertical-align:top;">:</td><td><div>thumbs-up</div></td></tr><tr><td style="font-weight:bold;vertical-align:top;">libelle</td><td style="vertical-align:top;">:</td><td><div>votes pour</div></td></tr><tr><td style="font-weight:bold;vertical-align:top;">n</td><td style="vertical-align:top;">:</td><td><div>224</div></td></tr><tr><td style="font-weight:bold;vertical-align:top;">pct</td><td style="vertical-align:top;">:</td><td><div>37.0</div></td></tr><tr><td style="font-weight:bold;vertical-align:top;">position</td><td style="vertical-align:top;">:</td><td><div>pour</div></td></tr></table></div></td></tr><tr><td><div><table><tr><td style="font-weight:bold;vertical-align:top;">class</td><td style="vertical-align:top;">:</td><td><div>pct</div></td></tr><tr><td style="font-weight:bold;vertical-align:top;">icon</td><td style="vertical-align:top;">:</td><td><div>thumbs-down</div></td></tr><tr><td style="font-weight:bold;vertical-align:top;">libelle</td><td style="vertical-align:top;">:</td><td><div>votes contre</div></td></tr><tr><td style="font-weight:bold;vertical-align:top;">n</td><td style="vertical-align:top;">:</td><td><div>43</div></td></tr><tr><td style="font-weight:bold;vertical-align:top;">pct</td><td style="vertical-align:top;">:</td><td><div>7.0</div></td></tr><tr><td style="font-weight:bold;vertical-align:top;">position</td><td style="vertical-align:top;">:</td><td><div>contre</div></td></tr></table></div></td></tr><tr><td><div><table><tr><td style="font-weight:bold;vertical-align:top;">class</td><td style="vertical-align:top;">:</td><td><div>pct</div></td></tr><tr><td style="font-weight:bold;vertical-align:top;">icon</td><td style="vertical-align:top;">:</td><td><div>meh-o</div></td></tr><tr><td style="font-weight:bold;vertical-align:top;">libelle</td><td style="vertical-align:top;">:</td><td><div>abstention</div></td></tr><tr><td style="font-weight:bold;vertical-align:top;">n</td><td style="vertical-align:top;">:</td><td><div>5</div></td></tr><tr><td style="font-weight:bold;vertical-align:top;">pct</td><td style="vertical-align:top;">:</td><td><div>1.0</div></td></tr><tr><td style="font-weight:bold;vertical-align:top;">position</td><td style="vertical-align:top;">:</td><td><div>abstention</div></td></tr></table></div></td></tr><tr><td><div><table><tr><td style="font-weight:bold;vertical-align:top;">class</td><td style="vertical-align:top;">:</td><td><div>pct</div></td></tr><tr><td style="font-weight:bold;vertical-align:top;">icon</td><td style="vertical-align:top;">:</td><td><div>plane</div></td></tr><tr><td style="font-weight:bold;vertical-align:top;">libelle</td><td style="vertical-align:top;">:</td><td><div>absents</div></td></tr><tr><td style="font-weight:bold;vertical-align:top;">n</td><td style="vertical-align:top;">:</td><td><div>336</div></td></tr><tr><td style="font-weight:bold;vertical-align:top;">pct</td><td style="vertical-align:top;">:</td><td><div>55.0</div></td></tr><tr><td style="font-weight:bold;vertical-align:top;">position</td><td style="vertical-align:top;">:</td><td><div>absent</div></td></tr></table></div></td></tr><tr><td><div><table><tr><td style="font-weight:bold;vertical-align:top;">class</td><td style="vertical-align:top;">:</td><td><div>pct</div></td></tr><tr><td style="font-weight:bold;vertical-align:top;">icon</td><td style="vertical-align:top;">:</td><td><div>ban</div></td></tr><tr><td style="font-weight:bold;vertical-align:top;">libelle</td><td style="vertical-align:top;">:</td><td><div>non votants (justifi\xc3\xa9s)</div></td></tr><tr><td style="font-weight:bold;vertical-align:top;">n</td><td style="vertical-align:top;">:</td><td><div>0</div></td></tr><tr><td style="font-weight:bold;vertical-align:top;">pct</td><td style="vertical-align:top;">:</td><td><div>0.0</div></td></tr><tr><td style="font-weight:bold;vertical-align:top;">position</td><td style="vertical-align:top;">:</td><td><div>nonVotant</div></td></tr></table></div></td></tr></table></div></td></tr></table></div></td></tr><tr><td><div><table><tr><td style="font-weight:bold;vertical-align:top;">cercles</td><td style="vertical-align:top;">:</td><td><div><table></table></div></td></tr><tr><td style="font-weight:bold;vertical-align:top;">key</td><td style="vertical-align:top;">:</td><td><div>PO730946</div></td></tr><tr><td style="font-weight:bold;vertical-align:top;">label</td><td style="vertical-align:top;">:</td><td><div>Nouvelle Gauche</div></td></tr><tr><td style="font-weight:bold;vertical-align:top;">nb</td><td style="vertical-align:top;">:</td><td><div><table><tr><td style="font-weight:bold;vertical-align:top;">absent</td><td style="vertical-align:top;">:</td><td><div>992</div></td></tr><tr><td style="font-weight:bold;vertical-align:top;">abstention</td><td style="vertical-align:top;">:</td><td><div>30</div></td></tr><tr><td style="font-weight:bold;vertical-align:top;">contre</td><td style="vertical-align:top;">:</td><td><div>27</div></td></tr><tr><td style="font-weight:bold;vertical-align:top;">nonVotant</td><td style="vertical-align:top;">:</td><td><div>0</div></td></tr><tr><td style="font-weight:bold;vertical-align:top;">pour</td><td style="vertical-align:top;">:</td><td><div>129</div></td></tr></table></div></td></tr><tr><td style="font-weight:bold;vertical-align:top;">participation</td><td style="vertical-align:top;">:</td><td><div>16.0</div></td></tr><tr><td style="font-weight:bold;vertical-align:top;">stats</td><td style="vertical-align:top;">:</td><td><div><table><tr><td><div><table><tr><td style="font-weight:bold;vertical-align:top;">class</td><td style="vertical-align:top;">:</td><td><div>pct</div></td></tr><tr><td style="font-weight:bold;vertical-align:top;">icon</td><td style="vertical-align:top;">:</td><td><div>thumbs-up</div></td></tr><tr><td style="font-weight:bold;vertical-align:top;">libelle</td><td style="vertical-align:top;">:</td><td><div>votes pour</div></td></tr><tr><td style="font-weight:bold;vertical-align:top;">n</td><td style="vertical-align:top;">:</td><td><div>129</div></td></tr><tr><td style="font-weight:bold;vertical-align:top;">pct</td><td style="vertical-align:top;">:</td><td><div>11.0</div></td></tr><tr><td style="font-weight:bold;vertical-align:top;">position</td><td style="vertical-align:top;">:</td><td><div>pour</div></td></tr></table></div></td></tr><tr><td><div><table><tr><td style="font-weight:bold;vertical-align:top;">class</td><td style="vertical-align:top;">:</td><td><div>pct</div></td></tr><tr><td style="font-weight:bold;vertical-align:top;">icon</td><td style="vertical-align:top;">:</td><td><div>thumbs-down</div></td></tr><tr><td style="font-weight:bold;vertical-align:top;">libelle</td><td style="vertical-align:top;">:</td><td><div>votes contre</div></td></tr><tr><td style="font-weight:bold;vertical-align:top;">n</td><td style="vertical-align:top;">:</td><td><div>27</div></td></tr><tr><td style="font-weight:bold;vertical-align:top;">pct</td><td style="vertical-align:top;">:</td><td><div>2.0</div></td></tr><tr><td style="font-weight:bold;vertical-align:top;">position</td><td style="vertical-align:top;">:</td><td><div>contre</div></td></tr></table></div></td></tr><tr><td><div><table><tr><td style="font-weight:bold;vertical-align:top;">class</td><td style="vertical-align:top;">:</td><td><div>pct</div></td></tr><tr><td style="font-weight:bold;vertical-align:top;">icon</td><td style="vertical-align:top;">:</td><td><div>meh-o</div></td></tr><tr><td style="font-weight:bold;vertical-align:top;">libelle</td><td style="vertical-align:top;">:</td><td><div>abstention</div></td></tr><tr><td style="font-weight:bold;vertical-align:top;">n</td><td style="vertical-align:top;">:</td><td><div>30</div></td></tr><tr><td style="font-weight:bold;vertical-align:top;">pct</td><td style="vertical-align:top;">:</td><td><div>3.0</div></td></tr><tr><td style="font-weight:bold;vertical-align:top;">position</td><td style="vertical-align:top;">:</td><td><div>abstention</div></td></tr></table></div></td></tr><tr><td><div><table><tr><td style="font-weight:bold;vertical-align:top;">class</td><td style="vertical-align:top;">:</td><td><div>pct</div></td></tr><tr><td style="font-weight:bold;vertical-align:top;">icon</td><td style="vertical-align:top;">:</td><td><div>plane</div></td></tr><tr><td style="font-weight:bold;vertical-align:top;">libelle</td><td style="vertical-align:top;">:</td><td><div>absents</div></td></tr><tr><td style="font-weight:bold;vertical-align:top;">n</td><td style="vertical-align:top;">:</td><td><div>992</div></td></tr><tr><td style="font-weight:bold;vertical-align:top;">pct</td><td style="vertical-align:top;">:</td><td><div>84.0</div></td></tr><tr><td style="font-weight:bold;vertical-align:top;">position</td><td style="vertical-align:top;">:</td><td><div>absent</div></td></tr></table></div></td></tr><tr><td><div><table><tr><td style="font-weight:bold;vertical-align:top;">class</td><td style="vertical-align:top;">:</td><td><div>pct</div></td></tr><tr><td style="font-weight:bold;vertical-align:top;">icon</td><td style="vertical-align:top;">:</td><td><div>ban</div></td></tr><tr><td style="font-weight:bold;vertical-align:top;">libelle</td><td style="vertical-align:top;">:</td><td><div>non votants (justifi\xc3\xa9s)</div></td></tr><tr><td style="font-weight:bold;vertical-align:top;">n</td><td style="vertical-align:top;">:</td><td><div>0</div></td></tr><tr><td style="font-weight:bold;vertical-align:top;">pct</td><td style="vertical-align:top;">:</td><td><div>0.0</div></td></tr><tr><td style="font-weight:bold;vertical-align:top;">position</td><td style="vertical-align:top;">:</td><td><div>nonVotant</div></td></tr></table></div></td></tr></table></div></td></tr><tr><td style="font-weight:bold;vertical-align:top;">stats_exprime</td><td style="vertical-align:top;">:</td><td><div><table><tr><td><div><table><tr><td style="font-weight:bold;vertical-align:top;">big</td><td style="vertical-align:top;">:</td><td><div>False</div></td></tr><tr><td style="font-weight:bold;vertical-align:top;">icon</td><td style="vertical-align:top;">:</td><td><div>thumbs-up</div></td></tr><tr><td style="font-weight:bold;vertical-align:top;">libelle</td><td style="vertical-align:top;">:</td><td><div>votes pour</div></td></tr><tr><td style="font-weight:bold;vertical-align:top;">n</td><td style="vertical-align:top;">:</td><td><div>129</div></td></tr><tr><td style="font-weight:bold;vertical-align:top;">pct</td><td style="vertical-align:top;">:</td><td><div>69.0</div></td></tr><tr><td style="font-weight:bold;vertical-align:top;">position</td><td style="vertical-align:top;">:</td><td><div>pour</div></td></tr></table></div></td></tr><tr><td><div><table><tr><td style="font-weight:bold;vertical-align:top;">big</td><td style="vertical-align:top;">:</td><td><div>False</div></td></tr><tr><td style="font-weight:bold;vertical-align:top;">icon</td><td style="vertical-align:top;">:</td><td><div>thumbs-down</div></td></tr><tr><td style="font-weight:bold;vertical-align:top;">libelle</td><td style="vertical-align:top;">:</td><td><div>votes contre</div></td></tr><tr><td style="font-weight:bold;vertical-align:top;">n</td><td style="vertical-align:top;">:</td><td><div>27</div></td></tr><tr><td style="font-weight:bold;vertical-align:top;">pct</td><td style="vertical-align:top;">:</td><td><div>15.0</div></td></tr><tr><td style="font-weight:bold;vertical-align:top;">position</td><td style="vertical-align:top;">:</td><td><div>contre</div></td></tr></table></div></td></tr><tr><td><div><table><tr><td style="font-weight:bold;vertical-align:top;">big</td><td style="vertical-align:top;">:</td><td><div>False</div></td></tr><tr><td style="font-weight:bold;vertical-align:top;">icon</td><td style="vertical-align:top;">:</td><td><div>meh-o</div></td></tr><tr><td style="font-weight:bold;vertical-align:top;">libelle</td><td style="vertical-align:top;">:</td><td><div>abstention</div></td></tr><tr><td style="font-weight:bold;vertical-align:top;">n</td><td style="vertical-align:top;">:</td><td><div>30</div></td></tr><tr><td style="font-weight:bold;vertical-align:top;">pct</td><td style="vertical-align:top;">:</td><td><div>16.0</div></td></tr><tr><td style="font-weight:bold;vertical-align:top;">position</td><td style="vertical-align:top;">:</td><td><div>abstention</div></td></tr></table></div></td></tr></table></div></td></tr><tr><td style="font-weight:bold;vertical-align:top;">stats_total</td><td style="vertical-align:top;">:</td><td><div><table><tr><td><div><table><tr><td style="font-weight:bold;vertical-align:top;">class</td><td style="vertical-align:top;">:</td><td><div>pct</div></td></tr><tr><td style="font-weight:bold;vertical-align:top;">icon</td><td style="vertical-align:top;">:</td><td><div>thumbs-up</div></td></tr><tr><td style="font-weight:bold;vertical-align:top;">libelle</td><td style="vertical-align:top;">:</td><td><div>votes pour</div></td></tr><tr><td style="font-weight:bold;vertical-align:top;">n</td><td style="vertical-align:top;">:</td><td><div>129</div></td></tr><tr><td style="font-weight:bold;vertical-align:top;">pct</td><td style="vertical-align:top;">:</td><td><div>11.0</div></td></tr><tr><td style="font-weight:bold;vertical-align:top;">position</td><td style="vertical-align:top;">:</td><td><div>pour</div></td></tr></table></div></td></tr><tr><td><div><table><tr><td style="font-weight:bold;vertical-align:top;">class</td><td style="vertical-align:top;">:</td><td><div>pct</div></td></tr><tr><td style="font-weight:bold;vertical-align:top;">icon</td><td style="vertical-align:top;">:</td><td><div>thumbs-down</div></td></tr><tr><td style="font-weight:bold;vertical-align:top;">libelle</td><td style="vertical-align:top;">:</td><td><div>votes contre</div></td></tr><tr><td style="font-weight:bold;vertical-align:top;">n</td><td style="vertical-align:top;">:</td><td><div>27</div></td></tr><tr><td style="font-weight:bold;vertical-align:top;">pct</td><td style="vertical-align:top;">:</td><td><div>2.0</div></td></tr><tr><td style="font-weight:bold;vertical-align:top;">position</td><td style="vertical-align:top;">:</td><td><div>contre</div></td></tr></table></div></td></tr><tr><td><div><table><tr><td style="font-weight:bold;vertical-align:top;">class</td><td style="vertical-align:top;">:</td><td><div>pct</div></td></tr><tr><td style="font-weight:bold;vertical-align:top;">icon</td><td style="vertical-align:top;">:</td><td><div>meh-o</div></td></tr><tr><td style="font-weight:bold;vertical-align:top;">libelle</td><td style="vertical-align:top;">:</td><td><div>abstention</div></td></tr><tr><td style="font-weight:bold;vertical-align:top;">n</td><td style="vertical-align:top;">:</td><td><div>30</div></td></tr><tr><td style="font-weight:bold;vertical-align:top;">pct</td><td style="vertical-align:top;">:</td><td><div>3.0</div></td></tr><tr><td style="font-weight:bold;vertical-align:top;">position</td><td style="vertical-align:top;">:</td><td><div>abstention</div></td></tr></table></div></td></tr><tr><td><div><table><tr><td style="font-weight:bold;vertical-align:top;">class</td><td style="vertical-align:top;">:</td><td><div>pct</div></td></tr><tr><td style="font-weight:bold;vertical-align:top;">icon</td><td style="vertical-align:top;">:</td><td><div>plane</div></td></tr><tr><td style="font-weight:bold;vertical-align:top;">libelle</td><td style="vertical-align:top;">:</td><td><div>absents</div></td></tr><tr><td style="font-weight:bold;vertical-align:top;">n</td><td style="vertical-align:top;">:</td><td><div>992</div></td></tr><tr><td style="font-weight:bold;vertical-align:top;">pct</td><td style="vertical-align:top;">:</td><td><div>84.0</div></td></tr><tr><td style="font-weight:bold;vertical-align:top;">position</td><td style="vertical-align:top;">:</td><td><div>absent</div></td></tr></table></div></td></tr><tr><td><div><table><tr><td style="font-weight:bold;vertical-align:top;">class</td><td style="vertical-align:top;">:</td><td><div>pct</div></td></tr><tr><td style="font-weight:bold;vertical-align:top;">icon</td><td style="vertical-align:top;">:</td><td><div>ban</div></td></tr><tr><td style="font-weight:bold;vertical-align:top;">libelle</td><td style="vertical-align:top;">:</td><td><div>non votants (justifi\xc3\xa9s)</div></td></tr><tr><td style="font-weight:bold;vertical-align:top;">n</td><td style="vertical-align:top;">:</td><td><div>0</div></td></tr><tr><td style="font-weight:bold;vertical-align:top;">pct</td><td style="vertical-align:top;">:</td><td><div>0.0</div></td></tr><tr><td style="font-weight:bold;vertical-align:top;">position</td><td style="vertical-align:top;">:</td><td><div>nonVotant</div></td></tr></table></div></td></tr></table></div></td></tr></table></div></td></tr><tr><td><div><table><tr><td style="font-weight:bold;vertical-align:top;">cercles</td><td style="vertical-align:top;">:</td><td><div><table></table></div></td></tr><tr><td style="font-weight:bold;vertical-align:top;">key</td><td style="vertical-align:top;">:</td><td><div>PO730958</div></td></tr><tr><td style="font-weight:bold;vertical-align:top;">label</td><td style="vertical-align:top;">:</td><td><div>La France insoumise</div></td></tr><tr><td style="font-weight:bold;vertical-align:top;">nb</td><td style="vertical-align:top;">:</td><td><div><table><tr><td style="font-weight:bold;vertical-align:top;">absent</td><td style="vertical-align:top;">:</td><td><div>219</div></td></tr><tr><td style="font-weight:bold;vertical-align:top;">abstention</td><td style="vertical-align:top;">:</td><td><div>1</div></td></tr><tr><td style="font-weight:bold;vertical-align:top;">contre</td><td style="vertical-align:top;">:</td><td><div>73</div></td></tr><tr><td style="font-weight:bold;vertical-align:top;">nonVotant</td><td style="vertical-align:top;">:</td><td><div>0</div></td></tr><tr><td style="font-weight:bold;vertical-align:top;">pour</td><td style="vertical-align:top;">:</td><td><div>353</div></td></tr></table></div></td></tr><tr><td style="font-weight:bold;vertical-align:top;">participation</td><td style="vertical-align:top;">:</td><td><div>66.0</div></td></tr><tr><td style="font-weight:bold;vertical-align:top;">stats</td><td style="vertical-align:top;">:</td><td><div><table><tr><td><div><table><tr><td style="font-weight:bold;vertical-align:top;">class</td><td style="vertical-align:top;">:</td><td><div>pct</div></td></tr><tr><td style="font-weight:bold;vertical-align:top;">icon</td><td style="vertical-align:top;">:</td><td><div>thumbs-up</div></td></tr><tr><td style="font-weight:bold;vertical-align:top;">libelle</td><td style="vertical-align:top;">:</td><td><div>votes pour</div></td></tr><tr><td style="font-weight:bold;vertical-align:top;">n</td><td style="vertical-align:top;">:</td><td><div>353</div></td></tr><tr><td style="font-weight:bold;vertical-align:top;">pct</td><td style="vertical-align:top;">:</td><td><div>55.0</div></td></tr><tr><td style="font-weight:bold;vertical-align:top;">position</td><td style="vertical-align:top;">:</td><td><div>pour</div></td></tr></table></div></td></tr><tr><td><div><table><tr><td style="font-weight:bold;vertical-align:top;">class</td><td style="vertical-align:top;">:</td><td><div>pct</div></td></tr><tr><td style="font-weight:bold;vertical-align:top;">icon</td><td style="vertical-align:top;">:</td><td><div>thumbs-down</div></td></tr><tr><td style="font-weight:bold;vertical-align:top;">libelle</td><td style="vertical-align:top;">:</td><td><div>votes contre</div></td></tr><tr><td style="font-weight:bold;vertical-align:top;">n</td><td style="vertical-align:top;">:</td><td><div>73</div></td></tr><tr><td style="font-weight:bold;vertical-align:top;">pct</td><td style="vertical-align:top;">:</td><td><div>11.0</div></td></tr><tr><td style="font-weight:bold;vertical-align:top;">position</td><td style="vertical-align:top;">:</td><td><div>contre</div></td></tr></table></div></td></tr><tr><td><div><table><tr><td style="font-weight:bold;vertical-align:top;">class</td><td style="vertical-align:top;">:</td><td><div>pct</div></td></tr><tr><td style="font-weight:bold;vertical-align:top;">icon</td><td style="vertical-align:top;">:</td><td><div>meh-o</div></td></tr><tr><td style="font-weight:bold;vertical-align:top;">libelle</td><td style="vertical-align:top;">:</td><td><div>abstention</div></td></tr><tr><td style="font-weight:bold;vertical-align:top;">n</td><td style="vertical-align:top;">:</td><td><div>1</div></td></tr><tr><td style="font-weight:bold;vertical-align:top;">pct</td><td style="vertical-align:top;">:</td><td><div>0.0</div></td></tr><tr><td style="font-weight:bold;vertical-align:top;">position</td><td style="vertical-align:top;">:</td><td><div>abstention</div></td></tr></table></div></td></tr><tr><td><div><table><tr><td style="font-weight:bold;vertical-align:top;">class</td><td style="vertical-align:top;">:</td><td><div>pct</div></td></tr><tr><td style="font-weight:bold;vertical-align:top;">icon</td><td style="vertical-align:top;">:</td><td><div>plane</div></td></tr><tr><td style="font-weight:bold;vertical-align:top;">libelle</td><td style="vertical-align:top;">:</td><td><div>absents</div></td></tr><tr><td style="font-weight:bold;vertical-align:top;">n</td><td style="vertical-align:top;">:</td><td><div>219</div></td></tr><tr><td style="font-weight:bold;vertical-align:top;">pct</td><td style="vertical-align:top;">:</td><td><div>34.0</div></td></tr><tr><td style="font-weight:bold;vertical-align:top;">position</td><td style="vertical-align:top;">:</td><td><div>absent</div></td></tr></table></div></td></tr><tr><td><div><table><tr><td style="font-weight:bold;vertical-align:top;">class</td><td style="vertical-align:top;">:</td><td><div>pct</div></td></tr><tr><td style="font-weight:bold;vertical-align:top;">icon</td><td style="vertical-align:top;">:</td><td><div>ban</div></td></tr><tr><td style="font-weight:bold;vertical-align:top;">libelle</td><td style="vertical-align:top;">:</td><td><div>non votants (justifi\xc3\xa9s)</div></td></tr><tr><td style="font-weight:bold;vertical-align:top;">n</td><td style="vertical-align:top;">:</td><td><div>0</div></td></tr><tr><td style="font-weight:bold;vertical-align:top;">pct</td><td style="vertical-align:top;">:</td><td><div>0.0</div></td></tr><tr><td style="font-weight:bold;vertical-align:top;">position</td><td style="vertical-align:top;">:</td><td><div>nonVotant</div></td></tr></table></div></td></tr></table></div></td></tr><tr><td style="font-weight:bold;vertical-align:top;">stats_exprime</td><td style="vertical-align:top;">:</td><td><div><table><tr><td><div><table><tr><td style="font-weight:bold;vertical-align:top;">big</td><td style="vertical-align:top;">:</td><td><div>False</div></td></tr><tr><td style="font-weight:bold;vertical-align:top;">icon</td><td style="vertical-align:top;">:</td><td><div>thumbs-up</div></td></tr><tr><td style="font-weight:bold;vertical-align:top;">libelle</td><td style="vertical-align:top;">:</td><td><div>votes pour</div></td></tr><tr><td style="font-weight:bold;vertical-align:top;">n</td><td style="vertical-align:top;">:</td><td><div>353</div></td></tr><tr><td style="font-weight:bold;vertical-align:top;">pct</td><td style="vertical-align:top;">:</td><td><div>83.0</div></td></tr><tr><td style="font-weight:bold;vertical-align:top;">position</td><td style="vertical-align:top;">:</td><td><div>pour</div></td></tr></table></div></td></tr><tr><td><div><table><tr><td style="font-weight:bold;vertical-align:top;">big</td><td style="vertical-align:top;">:</td><td><div>False</div></td></tr><tr><td style="font-weight:bold;vertical-align:top;">icon</td><td style="vertical-align:top;">:</td><td><div>thumbs-down</div></td></tr><tr><td style="font-weight:bold;vertical-align:top;">libelle</td><td style="vertical-align:top;">:</td><td><div>votes contre</div></td></tr><tr><td style="font-weight:bold;vertical-align:top;">n</td><td style="vertical-align:top;">:</td><td><div>73</div></td></tr><tr><td style="font-weight:bold;vertical-align:top;">pct</td><td style="vertical-align:top;">:</td><td><div>17.0</div></td></tr><tr><td style="font-weight:bold;vertical-align:top;">position</td><td style="vertical-align:top;">:</td><td><div>contre</div></td></tr></table></div></td></tr><tr><td><div><table><tr><td style="font-weight:bold;vertical-align:top;">big</td><td style="vertical-align:top;">:</td><td><div>False</div></td></tr><tr><td style="font-weight:bold;vertical-align:top;">icon</td><td style="vertical-align:top;">:</td><td><div>meh-o</div></td></tr><tr><td style="font-weight:bold;vertical-align:top;">libelle</td><td style="vertical-align:top;">:</td><td><div>abstention</div></td></tr><tr><td style="font-weight:bold;vertical-align:top;">n</td><td style="vertical-align:top;">:</td><td><div>1</div></td></tr><tr><td style="font-weight:bold;vertical-align:top;">pct</td><td style="vertical-align:top;">:</td><td><div>0.0</div></td></tr><tr><td style="font-weight:bold;vertical-align:top;">position</td><td style="vertical-align:top;">:</td><td><div>abstention</div></td></tr></table></div></td></tr></table></div></td></tr><tr><td style="font-weight:bold;vertical-align:top;">stats_total</td><td style="vertical-align:top;">:</td><td><div><table><tr><td><div><table><tr><td style="font-weight:bold;vertical-align:top;">class</td><td style="vertical-align:top;">:</td><td><div>pct</div></td></tr><tr><td style="font-weight:bold;vertical-align:top;">icon</td><td style="vertical-align:top;">:</td><td><div>thumbs-up</div></td></tr><tr><td style="font-weight:bold;vertical-align:top;">libelle</td><td style="vertical-align:top;">:</td><td><div>votes pour</div></td></tr><tr><td style="font-weight:bold;vertical-align:top;">n</td><td style="vertical-align:top;">:</td><td><div>353</div></td></tr><tr><td style="font-weight:bold;vertical-align:top;">pct</td><td style="vertical-align:top;">:</td><td><div>55.0</div></td></tr><tr><td style="font-weight:bold;vertical-align:top;">position</td><td style="vertical-align:top;">:</td><td><div>pour</div></td></tr></table></div></td></tr><tr><td><div><table><tr><td style="font-weight:bold;vertical-align:top;">class</td><td style="vertical-align:top;">:</td><td><div>pct</div></td></tr><tr><td style="font-weight:bold;vertical-align:top;">icon</td><td style="vertical-align:top;">:</td><td><div>thumbs-down</div></td></tr><tr><td style="font-weight:bold;vertical-align:top;">libelle</td><td style="vertical-align:top;">:</td><td><div>votes contre</div></td></tr><tr><td style="font-weight:bold;vertical-align:top;">n</td><td style="vertical-align:top;">:</td><td><div>73</div></td></tr><tr><td style="font-weight:bold;vertical-align:top;">pct</td><td style="vertical-align:top;">:</td><td><div>11.0</div></td></tr><tr><td style="font-weight:bold;vertical-align:top;">position</td><td style="vertical-align:top;">:</td><td><div>contre</div></td></tr></table></div></td></tr><tr><td><div><table><tr><td style="font-weight:bold;vertical-align:top;">class</td><td style="vertical-align:top;">:</td><td><div>pct</div></td></tr><tr><td style="font-weight:bold;vertical-align:top;">icon</td><td style="vertical-align:top;">:</td><td><div>meh-o</div></td></tr><tr><td style="font-weight:bold;vertical-align:top;">libelle</td><td style="vertical-align:top;">:</td><td><div>abstention</div></td></tr><tr><td style="font-weight:bold;vertical-align:top;">n</td><td style="vertical-align:top;">:</td><td><div>1</div></td></tr><tr><td style="font-weight:bold;vertical-align:top;">pct</td><td style="vertical-align:top;">:</td><td><div>0.0</div></td></tr><tr><td style="font-weight:bold;vertical-align:top;">position</td><td style="vertical-align:top;">:</td><td><div>abstention</div></td></tr></table></div></td></tr><tr><td><div><table><tr><td style="font-weight:bold;vertical-align:top;">class</td><td style="vertical-align:top;">:</td><td><div>pct</div></td></tr><tr><td style="font-weight:bold;vertical-align:top;">icon</td><td style="vertical-align:top;">:</td><td><div>plane</div></td></tr><tr><td style="font-weight:bold;vertical-align:top;">libelle</td><td style="vertical-align:top;">:</td><td><div>absents</div></td></tr><tr><td style="font-weight:bold;vertical-align:top;">n</td><td style="vertical-align:top;">:</td><td><div>219</div></td></tr><tr><td style="font-weight:bold;vertical-align:top;">pct</td><td style="vertical-align:top;">:</td><td><div>34.0</div></td></tr><tr><td style="font-weight:bold;vertical-align:top;">position</td><td style="vertical-align:top;">:</td><td><div>absent</div></td></tr></table></div></td></tr><tr><td><div><table><tr><td style="font-weight:bold;vertical-align:top;">class</td><td style="vertical-align:top;">:</td><td><div>pct</div></td></tr><tr><td style="font-weight:bold;vertical-align:top;">icon</td><td style="vertical-align:top;">:</td><td><div>ban</div></td></tr><tr><td style="font-weight:bold;vertical-align:top;">libelle</td><td style="vertical-align:top;">:</td><td><div>non votants (justifi\xc3\xa9s)</div></td></tr><tr><td style="font-weight:bold;vertical-align:top;">n</td><td style="vertical-align:top;">:</td><td><div>0</div></td></tr><tr><td style="font-weight:bold;vertical-align:top;">pct</td><td style="vertical-align:top;">:</td><td><div>0.0</div></td></tr><tr><td style="font-weight:bold;vertical-align:top;">position</td><td style="vertical-align:top;">:</td><td><div>nonVotant</div></td></tr></table></div></td></tr></table></div></td></tr></table></div></td></tr><tr><td><div><table><tr><td style="font-weight:bold;vertical-align:top;">cercles</td><td style="vertical-align:top;">:</td><td><div><table></table></div></td></tr><tr><td style="font-weight:bold;vertical-align:top;">key</td><td style="vertical-align:top;">:</td><td><div>PO730952</div></td></tr><tr><td style="font-weight:bold;vertical-align:top;">label</td><td style="vertical-align:top;">:</td><td><div>Les Constructifs : r\xc3\xa9publicains, UDI, ind\xc3\xa9pendants</div></td></tr><tr><td style="font-weight:bold;vertical-align:top;">nb</td><td style="vertical-align:top;">:</td><td><div><table><tr><td style="font-weight:bold;vertical-align:top;">absent</td><td style="vertical-align:top;">:</td><td><div>1099</div></td></tr><tr><td style="font-weight:bold;vertical-align:top;">abstention</td><td style="vertical-align:top;">:</td><td><div>34</div></td></tr><tr><td style="font-weight:bold;vertical-align:top;">contre</td><td style="vertical-align:top;">:</td><td><div>160</div></td></tr><tr><td style="font-weight:bold;vertical-align:top;">nonVotant</td><td style="vertical-align:top;">:</td><td><div>0</div></td></tr><tr><td style="font-weight:bold;vertical-align:top;">pour</td><td style="vertical-align:top;">:</td><td><div>37</div></td></tr></table></div></td></tr><tr><td style="font-weight:bold;vertical-align:top;">participation</td><td style="vertical-align:top;">:</td><td><div>17.0</div></td></tr><tr><td style="font-weight:bold;vertical-align:top;">stats</td><td style="vertical-align:top;">:</td><td><div><table><tr><td><div><table><tr><td style="font-weight:bold;vertical-align:top;">class</td><td style="vertical-align:top;">:</td><td><div>pct</div></td></tr><tr><td style="font-weight:bold;vertical-align:top;">icon</td><td style="vertical-align:top;">:</td><td><div>thumbs-up</div></td></tr><tr><td style="font-weight:bold;vertical-align:top;">libelle</td><td style="vertical-align:top;">:</td><td><div>votes pour</div></td></tr><tr><td style="font-weight:bold;vertical-align:top;">n</td><td style="vertical-align:top;">:</td><td><div>37</div></td></tr><tr><td style="font-weight:bold;vertical-align:top;">pct</td><td style="vertical-align:top;">:</td><td><div>3.0</div></td></tr><tr><td style="font-weight:bold;vertical-align:top;">position</td><td style="vertical-align:top;">:</td><td><div>pour</div></td></tr></table></div></td></tr><tr><td><div><table><tr><td style="font-weight:bold;vertical-align:top;">class</td><td style="vertical-align:top;">:</td><td><div>pct</div></td></tr><tr><td style="font-weight:bold;vertical-align:top;">icon</td><td style="vertical-align:top;">:</td><td><div>thumbs-down</div></td></tr><tr><td style="font-weight:bold;vertical-align:top;">libelle</td><td style="vertical-align:top;">:</td><td><div>votes contre</div></td></tr><tr><td style="font-weight:bold;vertical-align:top;">n</td><td style="vertical-align:top;">:</td><td><div>160</div></td></tr><tr><td style="font-weight:bold;vertical-align:top;">pct</td><td style="vertical-align:top;">:</td><td><div>12.0</div></td></tr><tr><td style="font-weight:bold;vertical-align:top;">position</td><td style="vertical-align:top;">:</td><td><div>contre</div></td></tr></table></div></td></tr><tr><td><div><table><tr><td style="font-weight:bold;vertical-align:top;">class</td><td style="vertical-align:top;">:</td><td><div>pct</div></td></tr><tr><td style="font-weight:bold;vertical-align:top;">icon</td><td style="vertical-align:top;">:</td><td><div>meh-o</div></td></tr><tr><td style="font-weight:bold;vertical-align:top;">libelle</td><td style="vertical-align:top;">:</td><td><div>abstention</div></td></tr><tr><td style="font-weight:bold;vertical-align:top;">n</td><td style="vertical-align:top;">:</td><td><div>34</div></td></tr><tr><td style="font-weight:bold;vertical-align:top;">pct</td><td style="vertical-align:top;">:</td><td><div>3.0</div></td></tr><tr><td style="font-weight:bold;vertical-align:top;">position</td><td style="vertical-align:top;">:</td><td><div>abstention</div></td></tr></table></div></td></tr><tr><td><div><table><tr><td style="font-weight:bold;vertical-align:top;">class</td><td style="vertical-align:top;">:</td><td><div>pct</div></td></tr><tr><td style="font-weight:bold;vertical-align:top;">icon</td><td style="vertical-align:top;">:</td><td><div>plane</div></td></tr><tr><td style="font-weight:bold;vertical-align:top;">libelle</td><td style="vertical-align:top;">:</td><td><div>absents</div></td></tr><tr><td style="font-weight:bold;vertical-align:top;">n</td><td style="vertical-align:top;">:</td><td><div>1099</div></td></tr><tr><td style="font-weight:bold;vertical-align:top;">pct</td><td style="vertical-align:top;">:</td><td><div>83.0</div></td></tr><tr><td style="font-weight:bold;vertical-align:top;">position</td><td style="vertical-align:top;">:</td><td><div>absent</div></td></tr></table></div></td></tr><tr><td><div><table><tr><td style="font-weight:bold;vertical-align:top;">class</td><td style="vertical-align:top;">:</td><td><div>pct</div></td></tr><tr><td style="font-weight:bold;vertical-align:top;">icon</td><td style="vertical-align:top;">:</td><td><div>ban</div></td></tr><tr><td style="font-weight:bold;vertical-align:top;">libelle</td><td style="vertical-align:top;">:</td><td><div>non votants (justifi\xc3\xa9s)</div></td></tr><tr><td style="font-weight:bold;vertical-align:top;">n</td><td style="vertical-align:top;">:</td><td><div>0</div></td></tr><tr><td style="font-weight:bold;vertical-align:top;">pct</td><td style="vertical-align:top;">:</td><td><div>0.0</div></td></tr><tr><td style="font-weight:bold;vertical-align:top;">position</td><td style="vertical-align:top;">:</td><td><div>nonVotant</div></td></tr></table></div></td></tr></table></div></td></tr><tr><td style="font-weight:bold;vertical-align:top;">stats_exprime</td><td style="vertical-align:top;">:</td><td><div><table><tr><td><div><table><tr><td style="font-weight:bold;vertical-align:top;">big</td><td style="vertical-align:top;">:</td><td><div>False</div></td></tr><tr><td style="font-weight:bold;vertical-align:top;">icon</td><td style="vertical-align:top;">:</td><td><div>thumbs-up</div></td></tr><tr><td style="font-weight:bold;vertical-align:top;">libelle</td><td style="vertical-align:top;">:</td><td><div>votes pour</div></td></tr><tr><td style="font-weight:bold;vertical-align:top;">n</td><td style="vertical-align:top;">:</td><td><div>37</div></td></tr><tr><td style="font-weight:bold;vertical-align:top;">pct</td><td style="vertical-align:top;">:</td><td><div>16.0</div></td></tr><tr><td style="font-weight:bold;vertical-align:top;">position</td><td style="vertical-align:top;">:</td><td><div>pour</div></td></tr></table></div></td></tr><tr><td><div><table><tr><td style="font-weight:bold;vertical-align:top;">big</td><td style="vertical-align:top;">:</td><td><div>False</div></td></tr><tr><td style="font-weight:bold;vertical-align:top;">icon</td><td style="vertical-align:top;">:</td><td><div>thumbs-down</div></td></tr><tr><td style="font-weight:bold;vertical-align:top;">libelle</td><td style="vertical-align:top;">:</td><td><div>votes contre</div></td></tr><tr><td style="font-weight:bold;vertical-align:top;">n</td><td style="vertical-align:top;">:</td><td><div>160</div></td></tr><tr><td style="font-weight:bold;vertical-align:top;">pct</td><td style="vertical-align:top;">:</td><td><div>69.0</div></td></tr><tr><td style="font-weight:bold;vertical-align:top;">position</td><td style="vertical-align:top;">:</td><td><div>contre</div></td></tr></table></div></td></tr><tr><td><div><table><tr><td style="font-weight:bold;vertical-align:top;">big</td><td style="vertical-align:top;">:</td><td><div>False</div></td></tr><tr><td style="font-weight:bold;vertical-align:top;">icon</td><td style="vertical-align:top;">:</td><td><div>meh-o</div></td></tr><tr><td style="font-weight:bold;vertical-align:top;">libelle</td><td style="vertical-align:top;">:</td><td><div>abstention</div></td></tr><tr><td style="font-weight:bold;vertical-align:top;">n</td><td style="vertical-align:top;">:</td><td><div>34</div></td></tr><tr><td style="font-weight:bold;vertical-align:top;">pct</td><td style="vertical-align:top;">:</td><td><div>15.0</div></td></tr><tr><td style="font-weight:bold;vertical-align:top;">position</td><td style="vertical-align:top;">:</td><td><div>abstention</div></td></tr></table></div></td></tr></table></div></td></tr><tr><td style="font-weight:bold;vertical-align:top;">stats_total</td><td style="vertical-align:top;">:</td><td><div><table><tr><td><div><table><tr><td style="font-weight:bold;vertical-align:top;">class</td><td style="vertical-align:top;">:</td><td><div>pct</div></td></tr><tr><td style="font-weight:bold;vertical-align:top;">icon</td><td style="vertical-align:top;">:</td><td><div>thumbs-up</div></td></tr><tr><td style="font-weight:bold;vertical-align:top;">libelle</td><td style="vertical-align:top;">:</td><td><div>votes pour</div></td></tr><tr><td style="font-weight:bold;vertical-align:top;">n</td><td style="vertical-align:top;">:</td><td><div>37</div></td></tr><tr><td style="font-weight:bold;vertical-align:top;">pct</td><td style="vertical-align:top;">:</td><td><div>3.0</div></td></tr><tr><td style="font-weight:bold;vertical-align:top;">position</td><td style="vertical-align:top;">:</td><td><div>pour</div></td></tr></table></div></td></tr><tr><td><div><table><tr><td style="font-weight:bold;vertical-align:top;">class</td><td style="vertical-align:top;">:</td><td><div>pct</div></td></tr><tr><td style="font-weight:bold;vertical-align:top;">icon</td><td style="vertical-align:top;">:</td><td><div>thumbs-down</div></td></tr><tr><td style="font-weight:bold;vertical-align:top;">libelle</td><td style="vertical-align:top;">:</td><td><div>votes contre</div></td></tr><tr><td style="font-weight:bold;vertical-align:top;">n</td><td style="vertical-align:top;">:</td><td><div>160</div></td></tr><tr><td style="font-weight:bold;vertical-align:top;">pct</td><td style="vertical-align:top;">:</td><td><div>12.0</div></td></tr><tr><td style="font-weight:bold;vertical-align:top;">position</td><td style="vertical-align:top;">:</td><td><div>contre</div></td></tr></table></div></td></tr><tr><td><div><table><tr><td style="font-weight:bold;vertical-align:top;">class</td><td style="vertical-align:top;">:</td><td><div>pct</div></td></tr><tr><td style="font-weight:bold;vertical-align:top;">icon</td><td style="vertical-align:top;">:</td><td><div>meh-o</div></td></tr><tr><td style="font-weight:bold;vertical-align:top;">libelle</td><td style="vertical-align:top;">:</td><td><div>abstention</div></td></tr><tr><td style="font-weight:bold;vertical-align:top;">n</td><td style="vertical-align:top;">:</td><td><div>34</div></td></tr><tr><td style="font-weight:bold;vertical-align:top;">pct</td><td style="vertical-align:top;">:</td><td><div>3.0</div></td></tr><tr><td style="font-weight:bold;vertical-align:top;">position</td><td style="vertical-align:top;">:</td><td><div>abstention</div></td></tr></table></div></td></tr><tr><td><div><table><tr><td style="font-weight:bold;vertical-align:top;">class</td><td style="vertical-align:top;">:</td><td><div>pct</div></td></tr><tr><td style="font-weight:bold;vertical-align:top;">icon</td><td style="vertical-align:top;">:</td><td><div>plane</div></td></tr><tr><td style="font-weight:bold;vertical-align:top;">libelle</td><td style="vertical-align:top;">:</td><td><div>absents</div></td></tr><tr><td style="font-weight:bold;vertical-align:top;">n</td><td style="vertical-align:top;">:</td><td><div>1099</div></td></tr><tr><td style="font-weight:bold;vertical-align:top;">pct</td><td style="vertical-align:top;">:</td><td><div>83.0</div></td></tr><tr><td style="font-weight:bold;vertical-align:top;">position</td><td style="vertical-align:top;">:</td><td><div>absent</div></td></tr></table></div></td></tr><tr><td><div><table><tr><td style="font-weight:bold;vertical-align:top;">class</td><td style="vertical-align:top;">:</td><td><div>pct</div></td></tr><tr><td style="font-weight:bold;vertical-align:top;">icon</td><td style="vertical-align:top;">:</td><td><div>ban</div></td></tr><tr><td style="font-weight:bold;vertical-align:top;">libelle</td><td style="vertical-align:top;">:</td><td><div>non votants (justifi\xc3\xa9s)</div></td></tr><tr><td style="font-weight:bold;vertical-align:top;">n</td><td style="vertical-align:top;">:</td><td><div>0</div></td></tr><tr><td style="font-weight:bold;vertical-align:top;">pct</td><td style="vertical-align:top;">:</td><td><div>0.0</div></td></tr><tr><td style="font-weight:bold;vertical-align:top;">position</td><td style="vertical-align:top;">:</td><td><div>nonVotant</div></td></tr></table></div></td></tr></table></div></td></tr></table></div></td></tr></table></div></td></tr></table></div>'
tRp199
sS'etype'
p200
S"<type 'exceptions.KeyError'>"
p201
sS'date'
p202
S'Mon Jul 17 01:37:22 2017'
p203
sS'response'
p204
g59
(S's|?\x00\x00<div><table><tr><td style="font-weight:bold;vertical-align:top;">body</td><td style="vertical-align:top;">:</td><td><div>&lt;cStringIO.StringO object at 0x7ff3a87d0ab0&gt;</div></td></tr><tr><td style="font-weight:bold;vertical-align:top;">cookies</td><td style="vertical-align:top;">:</td><td><div><table><tr><td style="font-weight:bold;vertical-align:top;">session_id_obsas_dev</td><td style="vertical-align:top;">:</td><td><div>83.203.54.41-fc7640bd-5607-4d0d-830a-27d2371bbd50<table><tr><td style="font-weight:bold;vertical-align:top;">comment</td><td style="vertical-align:top;">:</td><td><div></div></td></tr><tr><td style="font-weight:bold;vertical-align:top;">domain</td><td style="vertical-align:top;">:</td><td><div></div></td></tr><tr><td style="font-weight:bold;vertical-align:top;">expires</td><td style="vertical-align:top;">:</td><td><div></div></td></tr><tr><td style="font-weight:bold;vertical-align:top;">httponly</td><td style="vertical-align:top;">:</td><td><div></div></td></tr><tr><td style="font-weight:bold;vertical-align:top;">max-age</td><td style="vertical-align:top;">:</td><td><div></div></td></tr><tr><td style="font-weight:bold;vertical-align:top;">path</td><td style="vertical-align:top;">:</td><td><div>/</div></td></tr><tr><td style="font-weight:bold;vertical-align:top;">secure</td><td style="vertical-align:top;">:</td><td><div></div></td></tr><tr><td style="font-weight:bold;vertical-align:top;">version</td><td style="vertical-align:top;">:</td><td><div></div></td></tr></table></div></td></tr></table></div></td></tr><tr><td style="font-weight:bold;vertical-align:top;">delimiters</td><td style="vertical-align:top;">:</td><td><div><table><tr><td><div>{{</div></td></tr><tr><td><div>}}</div></td></tr></table></div></td></tr><tr><td style="font-weight:bold;vertical-align:top;">files</td><td style="vertical-align:top;">:</td><td><div><table></table></div></td></tr><tr><td style="font-weight:bold;vertical-align:top;">flash</td><td style="vertical-align:top;">:</td><td><div></div></td></tr><tr><td style="font-weight:bold;vertical-align:top;">form_label_separator</td><td style="vertical-align:top;">:</td><td><div></div></td></tr><tr><td style="font-weight:bold;vertical-align:top;">formstyle</td><td style="vertical-align:top;">:</td><td><div>bootstrap3_inline</div></td></tr><tr><td style="font-weight:bold;vertical-align:top;">generic_patterns</td><td style="vertical-align:top;">:</td><td><div><table></table></div></td></tr><tr><td style="font-weight:bold;vertical-align:top;">google_analytics_id</td><td style="vertical-align:top;">:</td><td><div>None</div></td></tr><tr><td style="font-weight:bold;vertical-align:top;">headers</td><td style="vertical-align:top;">:</td><td><div><table><tr><td style="font-weight:bold;vertical-align:top;">X-Powered-By</td><td style="vertical-align:top;">:</td><td><div>web2py</div></td></tr></table></div></td></tr><tr><td style="font-weight:bold;vertical-align:top;">logo</td><td style="vertical-align:top;">:</td><td><div><a class="navbar-brand" href="http://www.web2py.com/" id="web2py-logo"><b>web<span>2</span>py</b>&trade;&nbsp;</a></div></td></tr><tr><td style="font-weight:bold;vertical-align:top;">menu</td><td style="vertical-align:top;">:</td><td><div><table><tr><td><div><table><tr><td><div>Accueil</div></td></tr><tr><td><div>False</div></td></tr><tr><td><div>/obsas_dev</div></td></tr><tr><td><div><table></table></div></td></tr></table></div></td></tr><tr><td><div><table><tr><td><div>Mes sites</div></td></tr><tr><td><div>False</div></td></tr><tr><td><div>/admin/site</div></td></tr></table></div></td></tr><tr><td><div><table><tr><td><div>Cette Appli</div></td></tr><tr><td><div>False</div></td></tr><tr><td><div>#</div></td></tr><tr><td><div><table><tr><td><div><table><tr><td><div>Design</div></td></tr><tr><td><div>False</div></td></tr><tr><td><div>/admin/design/obsas_dev</div></td></tr></table></div></td></tr><tr><td><div><li class="divider"></li></div></td></tr><tr><td><div><table><tr><td><div>Contr\xc3\xb4leur</div></td></tr><tr><td><div>False</div></td></tr><tr><td><div>/admin/edit/obsas_dev/controllers/analyse.py</div></td></tr></table></div></td></tr><tr><td><div><table><tr><td><div>Pr\xc3\xa9sentation</div></td></tr><tr><td><div>False</div></td></tr><tr><td><div>/admin/edit/obsas_dev/views/analyse/vueaxe.html</div></td></tr></table></div></td></tr><tr><td><div><table><tr><td><div>Mod\xc3\xa8le BD</div></td></tr><tr><td><div>False</div></td></tr><tr><td><div>/admin/edit/obsas_dev/models/db.py</div></td></tr></table></div></td></tr><tr><td><div><table><tr><td><div>Menu mod\xc3\xa8le</div></td></tr><tr><td><div>False</div></td></tr><tr><td><div>/admin/edit/obsas_dev/models/menu.py</div></td></tr></table></div></td></tr><tr><td><div><table><tr><td><div>Config.ini</div></td></tr><tr><td><div>False</div></td></tr><tr><td><div>/admin/edit/obsas_dev/private/appconfig.ini</div></td></tr></table></div></td></tr><tr><td><div><table><tr><td><div>Mise en page</div></td></tr><tr><td><div>False</div></td></tr><tr><td><div>/admin/edit/obsas_dev/views/layout.html</div></td></tr></table></div></td></tr><tr><td><div><table><tr><td><div>Feuille de style</div></td></tr><tr><td><div>False</div></td></tr><tr><td><div>/admin/edit/obsas_dev/static/css/web2py-bootstrap3.css</div></td></tr></table></div></td></tr><tr><td><div><table><tr><td><div>base de donn\xc3\xa9es</div></td></tr><tr><td><div>False</div></td></tr><tr><td><div>/obsas_dev/appadmin</div></td></tr></table></div></td></tr><tr><td><div><table><tr><td><div>Erreurs</div></td></tr><tr><td><div>False</div></td></tr><tr><td><div>/admin/errors/obsas_dev</div></td></tr></table></div></td></tr><tr><td><div><table><tr><td><div>\xc3\x80 propos</div></td></tr><tr><td><div>False</div></td></tr><tr><td><div>/admin/about/obsas_dev</div></td></tr></table></div></td></tr></table></div></td></tr></table></div></td></tr><tr><td><div><table><tr><td><div>web2py.com</div></td></tr><tr><td><div>False</div></td></tr><tr><td><div>#</div></td></tr><tr><td><div><table><tr><td><div><table><tr><td><div>T\xc3\xa9l\xc3\xa9chargement</div></td></tr><tr><td><div>False</div></td></tr><tr><td><div>http://www.web2py.com/examples/default/download</div></td></tr></table></div></td></tr><tr><td><div><table><tr><td><div>Soutien</div></td></tr><tr><td><div>False</div></td></tr><tr><td><div>http://www.web2py.com/examples/default/support</div></td></tr></table></div></td></tr><tr><td><div><table><tr><td><div>D\xc3\xa9mo</div></td></tr><tr><td><div>False</div></td></tr><tr><td><div>http://web2py.com/demo_admin</div></td></tr></table></div></td></tr><tr><td><div><table><tr><td><div>Exemples Rapides</div></td></tr><tr><td><div>False</div></td></tr><tr><td><div>http://web2py.com/examples/default/examples</div></td></tr></table></div></td></tr><tr><td><div><table><tr><td><div>FAQ</div></td></tr><tr><td><div>False</div></td></tr><tr><td><div>http://web2py.com/AlterEgo</div></td></tr></table></div></td></tr><tr><td><div><table><tr><td><div>Vid\xc3\xa9os</div></td></tr><tr><td><div>False</div></td></tr><tr><td><div>http://www.web2py.com/examples/default/videos/</div></td></tr></table></div></td></tr><tr><td><div><table><tr><td><div>Applications gratuites</div></td></tr><tr><td><div>False</div></td></tr><tr><td><div>http://web2py.com/appliances</div></td></tr></table></div></td></tr><tr><td><div><table><tr><td><div>Plugiciels</div></td></tr><tr><td><div>False</div></td></tr><tr><td><div>http://web2py.com/plugins</div></td></tr></table></div></td></tr><tr><td><div><table><tr><td><div>Recettes</div></td></tr><tr><td><div>False</div></td></tr><tr><td><div>http://web2pyslices.com/</div></td></tr></table></div></td></tr></table></div></td></tr></table></div></td></tr><tr><td><div><table><tr><td><div>Documentation</div></td></tr><tr><td><div>False</div></td></tr><tr><td><div>#</div></td></tr><tr><td><div><table><tr><td><div><table><tr><td><div>Online book</div></td></tr><tr><td><div>False</div></td></tr><tr><td><div>http://www.web2py.com/book</div></td></tr></table></div></td></tr><tr><td><div><li class="divider"></li></div></td></tr><tr><td><div><table><tr><td><div>Pr\xc3\xa9face</div></td></tr><tr><td><div>False</div></td></tr><tr><td><div>http://www.web2py.com/book/default/chapter/00</div></td></tr></table></div></td></tr><tr><td><div><table><tr><td><div>Pr\xc3\xa9sentation</div></td></tr><tr><td><div>False</div></td></tr><tr><td><div>http://www.web2py.com/book/default/chapter/01</div></td></tr></table></div></td></tr><tr><td><div><table><tr><td><div>Python</div></td></tr><tr><td><div>False</div></td></tr><tr><td><div>http://www.web2py.com/book/default/chapter/02</div></td></tr></table></div></td></tr><tr><td><div><table><tr><td><div>Pr\xc3\xa9sentation</div></td></tr><tr><td><div>False</div></td></tr><tr><td><div>http://www.web2py.com/book/default/chapter/03</div></td></tr></table></div></td></tr><tr><td><div><table><tr><td><div>Le noyau</div></td></tr><tr><td><div>False</div></td></tr><tr><td><div>http://www.web2py.com/book/default/chapter/04</div></td></tr></table></div></td></tr><tr><td><div><table><tr><td><div>Les Vues</div></td></tr><tr><td><div>False</div></td></tr><tr><td><div>http://www.web2py.com/book/default/chapter/05</div></td></tr></table></div></td></tr><tr><td><div><table><tr><td><div>base de donn\xc3\xa9es</div></td></tr><tr><td><div>False</div></td></tr><tr><td><div>http://www.web2py.com/book/default/chapter/06</div></td></tr></table></div></td></tr><tr><td><div><table><tr><td><div>Formulaires et Validateurs</div></td></tr><tr><td><div>False</div></td></tr><tr><td><div>http://www.web2py.com/book/default/chapter/07</div></td></tr></table></div></td></tr><tr><td><div><table><tr><td><div>Courriel et texto</div></td></tr><tr><td><div>False</div></td></tr><tr><td><div>http://www.web2py.com/book/default/chapter/08</div></td></tr></table></div></td></tr><tr><td><div><table><tr><td><div>Contr\xc3\xb4le d\'acc\xc3\xa8s</div></td></tr><tr><td><div>False</div></td></tr><tr><td><div>http://www.web2py.com/book/default/chapter/09</div></td></tr></table></div></td></tr><tr><td><div><table><tr><td><div>Services</div></td></tr><tr><td><div>False</div></td></tr><tr><td><div>http://www.web2py.com/book/default/chapter/10</div></td></tr></table></div></td></tr><tr><td><div><table><tr><td><div>Recettes Ajax</div></td></tr><tr><td><div>False</div></td></tr><tr><td><div>http://www.web2py.com/book/default/chapter/11</div></td></tr></table></div></td></tr><tr><td><div><table><tr><td><div>Composants et Plugiciels</div></td></tr><tr><td><div>False</div></td></tr><tr><td><div>http://www.web2py.com/book/default/chapter/12</div></td></tr></table></div></td></tr><tr><td><div><table><tr><td><div>Recettes de d\xc3\xa9ploiement</div></td></tr><tr><td><div>False</div></td></tr><tr><td><div>http://www.web2py.com/book/default/chapter/13</div></td></tr></table></div></td></tr><tr><td><div><table><tr><td><div>Autres recettes</div></td></tr><tr><td><div>False</div></td></tr><tr><td><div>http://www.web2py.com/book/default/chapter/14</div></td></tr></table></div></td></tr><tr><td><div><table><tr><td><div>Aider web2py</div></td></tr><tr><td><div>False</div></td></tr><tr><td><div>http://www.web2py.com/book/default/chapter/15</div></td></tr></table></div></td></tr><tr><td><div><table><tr><td><div>Buy web2py\'s book</div></td></tr><tr><td><div>False</div></td></tr><tr><td><div>http://stores.lulu.com/web2py</div></td></tr></table></div></td></tr></table></div></td></tr></table></div></td></tr><tr><td><div><table><tr><td><div>Communaut\xc3\xa9</div></td></tr><tr><td><div>False</div></td></tr><tr><td><div>None</div></td></tr><tr><td><div><table><tr><td><div><table><tr><td><div>Groupes</div></td></tr><tr><td><div>False</div></td></tr><tr><td><div>http://www.web2py.com/examples/default/usergroups</div></td></tr></table></div></td></tr><tr><td><div><table><tr><td><div>Twitter</div></td></tr><tr><td><div>False</div></td></tr><tr><td><div>http://twitter.com/web2py</div></td></tr></table></div></td></tr><tr><td><div><table><tr><td><div>Clavardage en direct</div></td></tr><tr><td><div>False</div></td></tr><tr><td><div>http://webchat.freenode.net/?channels=web2py</div></td></tr></table></div></td></tr></table></div></td></tr></table></div></td></tr></table></div></td></tr><tr><td style="font-weight:bold;vertical-align:top;">meta</td><td style="vertical-align:top;">:</td><td><div><table><tr><td style="font-weight:bold;vertical-align:top;">author</td><td style="vertical-align:top;">:</td><td><div>Your Name &lt;you@example.com&gt;</div></td></tr><tr><td style="font-weight:bold;vertical-align:top;">description</td><td style="vertical-align:top;">:</td><td><div>a cool new app</div></td></tr><tr><td style="font-weight:bold;vertical-align:top;">generator</td><td style="vertical-align:top;">:</td><td><div>Web2py Web Framework</div></td></tr><tr><td style="font-weight:bold;vertical-align:top;">keywords</td><td style="vertical-align:top;">:</td><td><div><table><tr><td><div>web2py</div></td></tr><tr><td><div>python</div></td></tr><tr><td><div>framework</div></td></tr></table></div></td></tr></table></div></td></tr><tr><td style="font-weight:bold;vertical-align:top;">models_to_run</td><td style="vertical-align:top;">:</td><td><div><table><tr><td><div>^\\w+\\.py$</div></td></tr><tr><td><div>^analyse/\\w+\\.py$</div></td></tr><tr><td><div>^analyse/vueaxe/\\w+\\.py$</div></td></tr></table></div></td></tr><tr><td style="font-weight:bold;vertical-align:top;">postprocessing</td><td style="vertical-align:top;">:</td><td><div><table></table></div></td></tr><tr><td style="font-weight:bold;vertical-align:top;">session_client</td><td style="vertical-align:top;">:</td><td><div>83.203.43.40</div></td></tr><tr><td style="font-weight:bold;vertical-align:top;">session_cookie_compression_level</td><td style="vertical-align:top;">:</td><td><div>None</div></td></tr><tr><td style="font-weight:bold;vertical-align:top;">session_cookie_expires</td><td style="vertical-align:top;">:</td><td><div>None</div></td></tr><tr><td style="font-weight:bold;vertical-align:top;">session_data_name</td><td style="vertical-align:top;">:</td><td><div>session_data_obsas_dev</div></td></tr><tr><td style="font-weight:bold;vertical-align:top;">session_file</td><td style="vertical-align:top;">:</td><td><div>&lt;open file &#x27;/home/www-data/web2py/applications/obsas_dev/sessions/0df/120/83.203.54.41-fc7640bd-5607-4d0d-830a-27d2371bbd50&#x27;, mode &#x27;rb+&#x27; at 0x7ff3a87cc780&gt;</div></td></tr><tr><td style="font-weight:bold;vertical-align:top;">session_filename</td><td style="vertical-align:top;">:</td><td><div>/home/www-data/web2py/applications/obsas_dev/sessions/83.203.54.41-fc7640bd-5607-4d0d-830a-27d2371bbd50</div></td></tr><tr><td style="font-weight:bold;vertical-align:top;">session_hash</td><td style="vertical-align:top;">:</td><td><div>aaa973a339b161946d0f7a768ba09bea</div></td></tr><tr><td style="font-weight:bold;vertical-align:top;">session_id</td><td style="vertical-align:top;">:</td><td><div>83.203.54.41-fc7640bd-5607-4d0d-830a-27d2371bbd50</div></td></tr><tr><td style="font-weight:bold;vertical-align:top;">session_id_name</td><td style="vertical-align:top;">:</td><td><div>session_id_obsas_dev</div></td></tr><tr><td style="font-weight:bold;vertical-align:top;">session_locked</td><td style="vertical-align:top;">:</td><td><div>True</div></td></tr><tr><td style="font-weight:bold;vertical-align:top;">session_masterapp</td><td style="vertical-align:top;">:</td><td><div>obsas_dev</div></td></tr><tr><td style="font-weight:bold;vertical-align:top;">session_new</td><td style="vertical-align:top;">:</td><td><div>False</div></td></tr><tr><td style="font-weight:bold;vertical-align:top;">session_storage_type</td><td style="vertical-align:top;">:</td><td><div>file</div></td></tr><tr><td style="font-weight:bold;vertical-align:top;">status</td><td style="vertical-align:top;">:</td><td><div>200</div></td></tr><tr><td style="font-weight:bold;vertical-align:top;">subtitle</td><td style="vertical-align:top;">:</td><td><div></div></td></tr><tr><td style="font-weight:bold;vertical-align:top;">title</td><td style="vertical-align:top;">:</td><td><div>Obsas Dev</div></td></tr><tr><td style="font-weight:bold;vertical-align:top;">view</td><td style="vertical-align:top;">:</td><td><div>analyse/vueaxe.html</div></td></tr></table></div>'
tRp205
sS'locals'
p206
(dp207
S'_sim'
p208
S"'votefi'"
p209
sS'votes'
p210
S"{u'absent': [u'PA720422', u'PA721210', u'PA721226', u'PA720286', u'PA719578', u'PA2150', u'PA721062', u'PA722142', u'PA721202', u'PA721210', u'PA721226', u'PA719676', u'PA720892', u'PA721960', u'PA588884', u'PA720286', u'PA722142', u'PA721202', u'PA721210', u'PA721226', ...], u'abstention': [u'PA588884'], u'contre': [u'PA2150', u'PA721210', u'PA720286', u'PA718868', u'PA2150', u'PA721960', u'PA719578', u'PA721062', u'PA719676', u'PA721226', u'PA718860', u'PA721202', u'PA721210', u'PA720286', u'PA720846', u'PA718868', u'PA2150', u'PA720422', u'PA719676', u'PA721226', ...], u'pour': [u'PA720430', u'PA718868', u'PA719676', u'PA720430', u'PA720846', u'PA718868', u'PA2150', u'PA719578', u'PA720422', u'PA721062', u'PA718860', u'PA720430', u'PA721202', u'PA720846', u'PA718868', u'PA719676', u'PA722142', u'PA718860', u'PA588884', u'PA721202', ...]}"
p211
sS'pos_libelles'
p212
S"{'absent': 'absents', 'abstention': 'abstention', 'contre': 'votes contre', 'nonVotant': 'non votants (justifi\\xc3\\xa9s)', 'pour': 'votes pour', 'voteem': 'EM-Compatibilit\\xc3\\xa9', 'votefi': 'FI-Compatibilit\\xc3\\xa9'}"
p213
sS'idaxe'
p214
S"'groupes'"
p215
sS'scrutins'
p216
S'{u\'15_1\': {u\'_id\': ObjectId(\'596bc96d8e5c9b497eb9b067\'), u\'scrutin_date\': u\'04/07/2017\', u\'scrutin_desc\': u"la d\\xe9claration de politique g\\xe9n\\xe9rale ...icle 49, alin\\xe9a premier, de la Constitution).", u\'scrutin_dossier\': u\'S-LEGANR5L15DLD\\xe9claration_politique_g\\xe9n\\xe9rale\', u\'scrutin_dossierLibelle\': u\'D\\xe9claration de politique g\\xe9n\\xe9rale du Gouvernement\', u\'scrutin_fulldesc\': u"Scrutin n\\xb0 1 du 04/07/2017 : la d\\xe9clarat...icle 49, alin\\xe9a premier, de la Constitution).", u\'scrutin_id\': u\'15_1\', u\'scrutin_num\': 1, u\'scrutin_ok\': True, u\'scrutin_type\': u\'AUT\', ...}, u\'15_10\': {u\'_id\': ObjectId(\'596bc96d8e5c9b497eb9b074\'), u\'scrutin_date\': u\'11/07/2017\', u\'scrutin_desc\': u"l\'amendement n\\xb0 446 de M. Vallaud \\xe0 l\'ar...cement du dialogue social (premi\\xe8re lecture).", u\'scrutin_dossier\': u\'S-LEGANR5L15DLhabilitation_ordonnances_dialogue_social\', u\'scrutin_dossierLibelle\': u\'Travail : mesures pour le renforcement du dialogue social\', u\'scrutin_fulldesc\': u"Scrutin n\\xb0 10 du 11/07/2017 : l\'amendement ...cement du dialogue social (premi\\xe8re lecture).", u\'scrutin_id\': u\'15_10\', u\'scrutin_num\': 10, u\'scrutin_ok\': True, u\'scrutin_type\': u\'SOR\', ...}, u\'15_11\': {u\'_id\': ObjectId(\'596bc96d8e5c9b497eb9b073\'), u\'scrutin_date\': u\'11/07/2017\', u\'scrutin_desc\': u"l\'amendement n\\xb0 118 de M. Quatennens et les...cement du dialogue social (premi\\xe8re lecture).", u\'scrutin_dossier\': u\'S-LEGANR5L15DLhabilitation_ordonnances_dialogue_social\', u\'scrutin_dossierLibelle\': u\'Travail : mesures pour le renforcement du dialogue social\', u\'scrutin_fulldesc\': u"Scrutin n\\xb0 11 du 11/07/2017 : l\'amendement ...cement du dialogue social (premi\\xe8re lecture).", u\'scrutin_id\': u\'15_11\', u\'scrutin_num\': 11, u\'scrutin_ok\': True, u\'scrutin_type\': u\'SOR\', ...}, u\'15_12\': {u\'_id\': ObjectId(\'596bc96d8e5c9b497eb9b071\'), u\'scrutin_date\': u\'11/07/2017\', u\'scrutin_desc\': u"l\'amendement n\\xb0 439 de M. Vallaud \\xe0 l\'ar...cement du dialogue social (premi\\xe8re lecture).", u\'scrutin_dossier\': u\'S-LEGANR5L15DLhabilitation_ordonnances_dialogue_social\', u\'scrutin_dossierLibelle\': u\'Travail : mesures pour le renforcement du dialogue social\', u\'scrutin_fulldesc\': u"Scrutin n\\xb0 12 du 11/07/2017 : l\'amendement ...cement du dialogue social (premi\\xe8re lecture).", u\'scrutin_id\': u\'15_12\', u\'scrutin_num\': 12, u\'scrutin_ok\': True, u\'scrutin_type\': u\'SOR\', ...}, u\'15_13\': {u\'_id\': ObjectId(\'596bc96d8e5c9b497eb9b070\'), u\'scrutin_date\': u\'11/07/2017\', u\'scrutin_desc\': u"l\'amendement n\\xb0 116 de M. Quatennens et les...cement du dialogue social (premi\\xe8re lecture).", u\'scrutin_dossier\': u\'S-LEGANR5L15DLhabilitation_ordonnances_dialogue_social\', u\'scrutin_dossierLibelle\': u\'Travail : mesures pour le renforcement du dialogue social\', u\'scrutin_fulldesc\': u"Scrutin n\\xb0 13 du 11/07/2017 : l\'amendement ...cement du dialogue social (premi\\xe8re lecture).", u\'scrutin_id\': u\'15_13\', u\'scrutin_num\': 13, u\'scrutin_ok\': True, u\'scrutin_type\': u\'SOR\', ...}, u\'15_14\': {u\'_id\': ObjectId(\'596bc96d8e5c9b497eb9b072\'), u\'scrutin_date\': u\'11/07/2017\', u\'scrutin_desc\': u"l\'article premier du projet de loi d\'habilitat...cement du dialogue social (premi\\xe8re lecture).", u\'scrutin_dossier\': u\'S-LEGANR5L15DLhabilitation_ordonnances_dialogue_social\', u\'scrutin_dossierLibelle\': u\'Travail : mesures pour le renforcement du dialogue social\', u\'scrutin_fulldesc\': u"Scrutin n\\xb0 14 du 11/07/2017 : l\'article pre...cement du dialogue social (premi\\xe8re lecture).", u\'scrutin_id\': u\'15_14\', u\'scrutin_num\': 14, u\'scrutin_ok\': True, u\'scrutin_type\': u\'SOR\', ...}, u\'15_15\': {u\'_id\': ObjectId(\'596bc96d8e5c9b497eb9b077\'), u\'scrutin_date\': u\'11/07/2017\', u\'scrutin_desc\': u"l\'amendement n\\xb0 128 de M. Prud\'homme et les...cement du dialogue social (premi\\xe8re lecture).", u\'scrutin_dossier\': u\'S-LEGANR5L15DLhabilitation_ordonnances_dialogue_social\', u\'scrutin_dossierLibelle\': u\'Travail : mesures pour le renforcement du dialogue social\', u\'scrutin_fulldesc\': u"Scrutin n\\xb0 15 du 11/07/2017 : l\'amendement ...cement du dialogue social (premi\\xe8re lecture).", u\'scrutin_id\': u\'15_15\', u\'scrutin_num\': 15, u\'scrutin_ok\': True, u\'scrutin_type\': u\'SOR\', ...}, u\'15_16\': {u\'_id\': ObjectId(\'596bc96d8e5c9b497eb9b07a\'), u\'scrutin_date\': u\'11/07/2017\', u\'scrutin_desc\': u"l\'amendement n\\xb0 463 de M. Vallaud \\xe0 l\'ar...cement du dialogue social (premi\\xe8re lecture).", u\'scrutin_dossier\': u\'S-LEGANR5L15DLhabilitation_ordonnances_dialogue_social\', u\'scrutin_dossierLibelle\': u\'Travail : mesures pour le renforcement du dialogue social\', u\'scrutin_fulldesc\': u"Scrutin n\\xb0 16 du 11/07/2017 : l\'amendement ...cement du dialogue social (premi\\xe8re lecture).", u\'scrutin_id\': u\'15_16\', u\'scrutin_num\': 16, u\'scrutin_ok\': True, u\'scrutin_type\': u\'SOR\', ...}, u\'15_17\': {u\'_id\': ObjectId(\'596bc96d8e5c9b497eb9b079\'), u\'scrutin_date\': u\'11/07/2017\', u\'scrutin_desc\': u"l\'amendement n\\xb0 448 de M. Vallaud \\xe0 l\'ar...cement du dialogue social (premi\\xe8re lecture).", u\'scrutin_dossier\': u\'S-LEGANR5L15DLhabilitation_ordonnances_dialogue_social\', u\'scrutin_dossierLibelle\': u\'Travail : mesures pour le renforcement du dialogue social\', u\'scrutin_fulldesc\': u"Scrutin n\\xb0 17 du 11/07/2017 : l\'amendement ...cement du dialogue social (premi\\xe8re lecture).", u\'scrutin_id\': u\'15_17\', u\'scrutin_num\': 17, u\'scrutin_ok\': True, u\'scrutin_type\': u\'SOR\', ...}, u\'15_18\': {u\'_id\': ObjectId(\'596bc96d8e5c9b497eb9b07c\'), u\'scrutin_date\': u\'11/07/2017\', u\'scrutin_desc\': u"l\'amendement n\\xb0 369 de M. Dharr\\xe9ville \\x...cement du dialogue social (premi\\xe8re lecture).", u\'scrutin_dossier\': u\'S-LEGANR5L15DLhabilitation_ordonnances_dialogue_social\', u\'scrutin_dossierLibelle\': u\'Travail : mesures pour le renforcement du dialogue social\', u\'scrutin_fulldesc\': u"Scrutin n\\xb0 18 du 11/07/2017 : l\'amendement ...cement du dialogue social (premi\\xe8re lecture).", u\'scrutin_id\': u\'15_18\', u\'scrutin_num\': 18, u\'scrutin_ok\': True, u\'scrutin_type\': u\'SOR\', ...}, ...}'
p217
sS'f'
g19
sS'items'
p218
S"[{u'_id': ObjectId('5967a8dbee6a34a372d693d4'), u'actif': True, u'codeType': u'GP', 'deputes': 17, u'key': u'PO730958', u'label': u'La France insoumise', u'legislature': u'15', u'libelle': u'La France insoumise', u'libelleAbrege': u'FI', u'libelleAbrev': u'FI', ...}, {u'_id': ObjectId('5967a8dbee6a34a372d693d5'), u'actif': True, u'codeType': u'GP', u'key': u'PO730952', u'label': u'Les Constructifs : r\\xe9publicains, UDI, ind\\xe9pendants', u'legislature': u'15', u'libelle': u'Les Constructifs : r\\xe9publicains, UDI, ind\\xe9pendants', u'libelleAbrege': u'LC', u'libelleAbrev': u'LC', u'libelleEdition': u'du groupe Les Constructifs : r\\xe9publicains, UDI, ind\\xe9pendants', ...}, {u'_id': ObjectId('5967a8dbee6a34a372d68f30'), u'actif': True, u'codeType': u'GP', u'key': u'PO730964', u'label': u'La R\\xe9publique en Marche', u'legislature': u'15', u'libelle': u'La R\\xe9publique en Marche', u'libelleAbrege': u'REM', u'libelleAbrev': u'REM', u'libelleEdition': u'du groupe La R\\xe9publique en Marche', ...}, {u'_id': ObjectId('5967a8dbee6a34a372d68ffb'), u'actif': True, u'codeType': u'GP', u'key': u'PO730970', u'label': u'Mouvement D\\xe9mocrate et apparent\\xe9s', u'legislature': u'15', u'libelle': u'Mouvement D\\xe9mocrate et apparent\\xe9s', u'libelleAbrege': u'MODEM', u'libelleAbrev': u'MODEM', u'libelleEdition': u'du groupe du Mouvement D\\xe9mocrate et apparent\\xe9s', ...}, {u'_id': ObjectId('5967a8dbee6a34a372d69001'), u'actif': True, u'codeType': u'GP', u'key': u'PO723569', u'label': u'Non inscrit', u'legislature': u'15', u'libelle': u'Non inscrit', u'libelleAbrege': u'NI', u'libelleAbrev': u'NI', u'libelleEdition': u'des d\\xe9put\\xe9s non inscrits', ...}, {u'_id': ObjectId('5967a8dbee6a34a372d692f9'), u'actif': True, u'codeType': u'GP', u'key': u'PO730934', u'label': u'Les R\\xe9publicains', u'legislature': u'15', u'libelle': u'Les R\\xe9publicains', u'libelleAbrege': u'LR', u'libelleAbrev': u'LR', u'libelleEdition': u'du groupe Les R\\xe9publicains', ...}, {u'_id': ObjectId('5967a8dbee6a34a372d69316'), u'actif': True, u'codeType': u'GP', u'key': u'PO730940', u'label': u'Gauche d\\xe9mocrate et r\\xe9publicaine', u'legislature': u'15', u'libelle': u'Gauche d\\xe9mocrate et r\\xe9publicaine', u'libelleAbrege': u'GDR', u'libelleAbrev': u'GDR', u'libelleEdition': u'du groupe Gauche d\\xe9mocrate et r\\xe9publicaine', ...}, {u'_id': ObjectId('5967a8dbee6a34a372d69318'), u'actif': True, u'codeType': u'GP', u'key': u'PO730946', u'label': u'Nouvelle Gauche', u'legislature': u'15', u'libelle': u'Nouvelle Gauche', u'libelleAbrege': u'NG', u'libelleAbrev': u'NG', u'libelleEdition': u'du groupe Nouvelle Gauche', ...}]"
p219
sS'nb'
p220
S"{'absent': 295, 'abstention': 1, 'contre': 108, 'nonVotant': 0, 'pour': 429}"
p221
sS'req'
p222
S"{'$and': [{'groupe': u'PO730958'}]}"
p223
sS'pos'
p224
S"'voteem'"
p225
sS'itemreq'
p226
S"{'groupe': u'PO730958'}"
p227
sS'item'
p228
S"{u'_id': ObjectId('5967a8dbee6a34a372d693d4'), u'actif': True, u'codeType': u'GP', 'deputes': 17, u'key': u'PO730958', u'label': u'La France insoumise', u'legislature': u'15', u'libelle': u'La France insoumise', u'libelleAbrege': u'FI', u'libelleAbrev': u'FI', ...}"
p229
sS'axefilter'
p230
g19
sS'total_exprime'
p231
S'538'
p232
sS'filters'
p233
S"{'ages': {}, 'assemblee': {}, 'commissions': {}, 'csp': {}, 'departements': {}, 'depute': {}, 'groupes': {}, 'regions': {}, 'scrutin': {}, 'sexe': {}, ...}"
p234
sS'axe'
p235
S"{'elements': 'G', 'hidechart': False, 'libelle': 'Groupes', 'source': {'filtre': {'actif': True, 'codeType': 'GP'}, 'key': 'uid', 'label': 'libelle', 'nom': 'organes'}, 'titre': 'Votes par Groupe parlementaire', 'votes': {'field': 'groupe'}}"
p236
sS'vote'
p237
S"{u'_id': ObjectId('596bc9668e5c9b497eb977b0'), u'age': 27, u'classeage': u'20-30 ans', u'commissions': [u'PO59051'], u'csp': u'Employ\\xe9s', u'departement': u'Nord', u'groupe': u'PO730958', u'groupeabrev': u'FI', u'nom': u'M. Ugo Bernalicis', u'organes': [u'AN', u'CION_LOIS', u'FI'], ...}"
p238
sS'pos_icons'
p239
S"{'absent': 'plane', 'abstention': 'meh-o', 'contre': 'thumbs-down', 'nonVotant': 'ban', 'pour': 'thumbs-up', 'voteem': '', 'votefi': ''}"
p240
sS'total'
p241
S'833'
p242
sS'sim'
p243
S"{'voteem': 1, 'votefi': 536}"
p244
sS'nbscrutins'
p245
S'49'
p246
sssS'traceback'
p247
S'Traceback (most recent call last):\n  File "/home/www-data/web2py/gluon/restricted.py", line 219, in restricted\n    exec(ccode, environment)\n  File "/home/www-data/web2py/applications/obsas_dev/controllers/analyse.py", line 140, in <module>\n  File "/home/www-data/web2py/gluon/globals.py", line 409, in <lambda>\n    self._caller = lambda f: f()\n  File "/home/www-data/web2py/applications/obsas_dev/controllers/analyse.py", line 121, in vueaxe\n    votedata = cache.ram(hash,getVoteData,time_expire=60)\n  File "/home/www-data/web2py/gluon/cache.py", line 247, in __call__\n    value = f()\n  File "/home/www-data/web2py/applications/obsas_dev/controllers/analyse.py", line 91, in getVoteData\n    item[\'stats\'][\'fiemcpt\'][pos]={\'n\':round(float(nb[pos])/nbscrutins,1),\'ntot\':nb[pos],\nKeyError: \'voteem\'\n'
p248
s.