(dp1
S'output'
p2
S"<type 'exceptions.ValueError'> too many values to unpack"
p3
sS'layer'
p4
S'/home/www-data/web2py/applications/obsas_dev/controllers/maintenance.py'
p5
sS'code'
p6
S'<code object <module> at 0x7f6e2a943930, file "/home/www-data/web2py/applications/obsas_dev/controllers/maintenance.py", line 4>'
p7
sS'snapshot'
p8
(dp9
S'exception'
p10
(dp11
S'__getslice__'
p12
S"<method-wrapper '__getslice__' of exceptions.ValueError object>"
p13
sS'__str__'
p14
S"<method-wrapper '__str__' of exceptions.ValueError object>"
p15
sS'__reduce__'
p16
S'<built-in method __reduce__ of exceptions.ValueError object>'
p17
sS'__dict__'
p18
S'{}'
p19
sS'message'
p20
S"'too many values to unpack'"
p21
sS'__sizeof__'
p22
S'<built-in method __sizeof__ of exceptions.ValueError object>'
p23
sS'__init__'
p24
S"<method-wrapper '__init__' of exceptions.ValueError object>"
p25
sS'__setattr__'
p26
S"<method-wrapper '__setattr__' of exceptions.ValueError object>"
p27
sS'__reduce_ex__'
p28
S'<built-in method __reduce_ex__ of exceptions.ValueError object>'
p29
sS'__new__'
p30
S'<built-in method __new__ of type object>'
p31
sS'__format__'
p32
S'<built-in method __format__ of exceptions.ValueError object>'
p33
sS'__class__'
p34
S"<type 'exceptions.ValueError'>"
p35
sS'__doc__'
p36
S"'Inappropriate argument value (of correct type).'"
p37
sS'__getitem__'
p38
S"<method-wrapper '__getitem__' of exceptions.ValueError object>"
p39
sS'__setstate__'
p40
S'<built-in method __setstate__ of exceptions.ValueError object>'
p41
sS'__getattribute__'
p42
S"<method-wrapper '__getattribute__' of exceptions.ValueError object>"
p43
sS'args'
p44
S"('too many values to unpack',)"
p45
sS'__subclasshook__'
p46
S'<built-in method __subclasshook__ of type object>'
p47
sS'__unicode__'
p48
S'<built-in method __unicode__ of exceptions.ValueError object>'
p49
sS'__delattr__'
p50
S"<method-wrapper '__delattr__' of exceptions.ValueError object>"
p51
sS'__repr__'
p52
S"<method-wrapper '__repr__' of exceptions.ValueError object>"
p53
sS'__hash__'
p54
S"<method-wrapper '__hash__' of exceptions.ValueError object>"
p55
ssS'evalue'
p56
S'too many values to unpack'
p57
sS'request'
p58
cgluon.html
XML_unpickle
p59
(S's q\x00\x00<div><table><tr><td style="font-weight:bold;vertical-align:top;">ajax</td><td style="vertical-align:top;">:</td><td><div>False</div></td></tr><tr><td style="font-weight:bold;vertical-align:top;">application</td><td style="vertical-align:top;">:</td><td><div>obsas_dev</div></td></tr><tr><td style="font-weight:bold;vertical-align:top;">args</td><td style="vertical-align:top;">:</td><td><div><table></table></div></td></tr><tr><td style="font-weight:bold;vertical-align:top;">cid</td><td style="vertical-align:top;">:</td><td><div>None</div></td></tr><tr><td style="font-weight:bold;vertical-align:top;">client</td><td style="vertical-align:top;">:</td><td><div>83.203.51.117</div></td></tr><tr><td style="font-weight:bold;vertical-align:top;">controller</td><td style="vertical-align:top;">:</td><td><div>maintenance</div></td></tr><tr><td style="font-weight:bold;vertical-align:top;">cookies</td><td style="vertical-align:top;">:</td><td><div><table><tr><td style="font-weight:bold;vertical-align:top;">session_id_admin</td><td style="vertical-align:top;">:</td><td><div>83.203.51.117-ec5ab064-18ca-475d-9ae1-940e39bb68d9<table><tr><td style="font-weight:bold;vertical-align:top;">comment</td><td style="vertical-align:top;">:</td><td><div></div></td></tr><tr><td style="font-weight:bold;vertical-align:top;">domain</td><td style="vertical-align:top;">:</td><td><div></div></td></tr><tr><td style="font-weight:bold;vertical-align:top;">expires</td><td style="vertical-align:top;">:</td><td><div></div></td></tr><tr><td style="font-weight:bold;vertical-align:top;">httponly</td><td style="vertical-align:top;">:</td><td><div></div></td></tr><tr><td style="font-weight:bold;vertical-align:top;">max-age</td><td style="vertical-align:top;">:</td><td><div></div></td></tr><tr><td style="font-weight:bold;vertical-align:top;">path</td><td style="vertical-align:top;">:</td><td><div></div></td></tr><tr><td style="font-weight:bold;vertical-align:top;">secure</td><td style="vertical-align:top;">:</td><td><div></div></td></tr><tr><td style="font-weight:bold;vertical-align:top;">version</td><td style="vertical-align:top;">:</td><td><div></div></td></tr></table></div></td></tr><tr><td style="font-weight:bold;vertical-align:top;">session_id_obsas_dev</td><td style="vertical-align:top;">:</td><td><div>83.203.51.117-922c16b5-daa2-4fed-9a71-e377d16cfeb3<table><tr><td style="font-weight:bold;vertical-align:top;">comment</td><td style="vertical-align:top;">:</td><td><div></div></td></tr><tr><td style="font-weight:bold;vertical-align:top;">domain</td><td style="vertical-align:top;">:</td><td><div></div></td></tr><tr><td style="font-weight:bold;vertical-align:top;">expires</td><td style="vertical-align:top;">:</td><td><div></div></td></tr><tr><td style="font-weight:bold;vertical-align:top;">httponly</td><td style="vertical-align:top;">:</td><td><div></div></td></tr><tr><td style="font-weight:bold;vertical-align:top;">max-age</td><td style="vertical-align:top;">:</td><td><div></div></td></tr><tr><td style="font-weight:bold;vertical-align:top;">path</td><td style="vertical-align:top;">:</td><td><div></div></td></tr><tr><td style="font-weight:bold;vertical-align:top;">secure</td><td style="vertical-align:top;">:</td><td><div></div></td></tr><tr><td style="font-weight:bold;vertical-align:top;">version</td><td style="vertical-align:top;">:</td><td><div></div></td></tr></table></div></td></tr></table></div></td></tr><tr><td style="font-weight:bold;vertical-align:top;">env</td><td style="vertical-align:top;">:</td><td><div><table><tr><td style="font-weight:bold;vertical-align:top;">CONTEXT_DOCUMENT_ROOT</td><td style="vertical-align:top;">:</td><td><div>/var/www/html</div></td></tr><tr><td style="font-weight:bold;vertical-align:top;">CONTEXT_PREFIX</td><td style="vertical-align:top;">:</td><td><div></div></td></tr><tr><td style="font-weight:bold;vertical-align:top;">DOCUMENT_ROOT</td><td style="vertical-align:top;">:</td><td><div>/var/www/html</div></td></tr><tr><td style="font-weight:bold;vertical-align:top;">GATEWAY_INTERFACE</td><td style="vertical-align:top;">:</td><td><div>CGI/1.1</div></td></tr><tr><td style="font-weight:bold;vertical-align:top;">HTTP_ACCEPT</td><td style="vertical-align:top;">:</td><td><div>text/html,application/xhtml+xml,application/xml;q=0.9,image/webp,image/apng,*/*;q=0.8</div></td></tr><tr><td style="font-weight:bold;vertical-align:top;">HTTP_ACCEPT_ENCODING</td><td style="vertical-align:top;">:</td><td><div>gzip, deflate, br</div></td></tr><tr><td style="font-weight:bold;vertical-align:top;">HTTP_ACCEPT_LANGUAGE</td><td style="vertical-align:top;">:</td><td><div>fr-FR,fr;q=0.8,en-US;q=0.6,en;q=0.4</div></td></tr><tr><td style="font-weight:bold;vertical-align:top;">HTTP_CACHE_CONTROL</td><td style="vertical-align:top;">:</td><td><div>max-age=0</div></td></tr><tr><td style="font-weight:bold;vertical-align:top;">HTTP_CONNECTION</td><td style="vertical-align:top;">:</td><td><div>keep-alive</div></td></tr><tr><td style="font-weight:bold;vertical-align:top;">HTTP_COOKIE</td><td style="vertical-align:top;">:</td><td><div>session_id_admin=83.203.51.117-ec5ab064-18ca-475d-9ae1-940e39bb68d9; session_id_obsas_dev=83.203.51.117-922c16b5-daa2-4fed-9a71-e377d16cfeb3</div></td></tr><tr><td style="font-weight:bold;vertical-align:top;">HTTP_HOST</td><td style="vertical-align:top;">:</td><td><div>admin.obsas.orvdev.fr</div></td></tr><tr><td style="font-weight:bold;vertical-align:top;">HTTP_REFERER</td><td style="vertical-align:top;">:</td><td><div>https://admin.obsas.orvdev.fr/admin/edit/obsas_dev/controllers/maintenance.py?id=controllers__maintenance__py</div></td></tr><tr><td style="font-weight:bold;vertical-align:top;">HTTP_UPGRADE_INSECURE_REQUESTS</td><td style="vertical-align:top;">:</td><td><div>1</div></td></tr><tr><td style="font-weight:bold;vertical-align:top;">HTTP_USER_AGENT</td><td style="vertical-align:top;">:</td><td><div>Mozilla/5.0 (X11; Linux x86_64) AppleWebKit/537.36 (KHTML, like Gecko) Chrome/60.0.3112.101 Safari/537.36</div></td></tr><tr><td style="font-weight:bold;vertical-align:top;">PATH_INFO</td><td style="vertical-align:top;">:</td><td><div>/obsas_dev/maintenance/updateSessions</div></td></tr><tr><td style="font-weight:bold;vertical-align:top;">PATH_TRANSLATED</td><td style="vertical-align:top;">:</td><td><div>/home/www-data/web2py/wsgihandler.py/obsas_dev/maintenance/updateSessions</div></td></tr><tr><td style="font-weight:bold;vertical-align:top;">QUERY_STRING</td><td style="vertical-align:top;">:</td><td><div></div></td></tr><tr><td style="font-weight:bold;vertical-align:top;">REMOTE_ADDR</td><td style="vertical-align:top;">:</td><td><div>83.203.51.117</div></td></tr><tr><td style="font-weight:bold;vertical-align:top;">REMOTE_PORT</td><td style="vertical-align:top;">:</td><td><div>34015</div></td></tr><tr><td style="font-weight:bold;vertical-align:top;">REQUEST_METHOD</td><td style="vertical-align:top;">:</td><td><div>GET</div></td></tr><tr><td style="font-weight:bold;vertical-align:top;">REQUEST_SCHEME</td><td style="vertical-align:top;">:</td><td><div>https</div></td></tr><tr><td style="font-weight:bold;vertical-align:top;">REQUEST_URI</td><td style="vertical-align:top;">:</td><td><div>/obsas_dev/maintenance/updateSessions</div></td></tr><tr><td style="font-weight:bold;vertical-align:top;">SCRIPT_FILENAME</td><td style="vertical-align:top;">:</td><td><div>/home/www-data/web2py/wsgihandler.py</div></td></tr><tr><td style="font-weight:bold;vertical-align:top;">SCRIPT_NAME</td><td style="vertical-align:top;">:</td><td><div></div></td></tr><tr><td style="font-weight:bold;vertical-align:top;">SERVER_ADDR</td><td style="vertical-align:top;">:</td><td><div>151.80.57.169</div></td></tr><tr><td style="font-weight:bold;vertical-align:top;">SERVER_ADMIN</td><td style="vertical-align:top;">:</td><td><div>[no address given]</div></td></tr><tr><td style="font-weight:bold;vertical-align:top;">SERVER_NAME</td><td style="vertical-align:top;">:</td><td><div>admin.obsas.orvdev.fr</div></td></tr><tr><td style="font-weight:bold;vertical-align:top;">SERVER_PORT</td><td style="vertical-align:top;">:</td><td><div>443</div></td></tr><tr><td style="font-weight:bold;vertical-align:top;">SERVER_PROTOCOL</td><td style="vertical-align:top;">:</td><td><div>HTTP/1.1</div></td></tr><tr><td style="font-weight:bold;vertical-align:top;">SERVER_SIGNATURE</td><td style="vertical-align:top;">:</td><td><div>&lt;address&gt;Apache/2.4.18 (Ubuntu) Server at admin.obsas.orvdev.fr Port 443&lt;/address&gt;\n</div></td></tr><tr><td style="font-weight:bold;vertical-align:top;">SERVER_SOFTWARE</td><td style="vertical-align:top;">:</td><td><div>Apache/2.4.18 (Ubuntu)</div></td></tr><tr><td style="font-weight:bold;vertical-align:top;">SSL_TLS_SNI</td><td style="vertical-align:top;">:</td><td><div>admin.obsas.orvdev.fr</div></td></tr><tr><td style="font-weight:bold;vertical-align:top;">apache.version</td><td style="vertical-align:top;">:</td><td><div><table><tr><td><div>2</div></td></tr><tr><td><div>4</div></td></tr><tr><td><div>18</div></td></tr></table></div></td></tr><tr><td style="font-weight:bold;vertical-align:top;">apache_version</td><td style="vertical-align:top;">:</td><td><div><table><tr><td><div>2</div></td></tr><tr><td><div>4</div></td></tr><tr><td><div>18</div></td></tr></table></div></td></tr><tr><td style="font-weight:bold;vertical-align:top;">app_folders</td><td style="vertical-align:top;">:</td><td><div>set([&#x27;/home/www-data/web2py/applications/obsas_dev/&#x27;, &#x27;/home/www-data/web2py/applications/admin/&#x27;])</div></td></tr><tr><td style="font-weight:bold;vertical-align:top;">applications_parent</td><td style="vertical-align:top;">:</td><td><div>/home/www-data/web2py</div></td></tr><tr><td style="font-weight:bold;vertical-align:top;">context_document_root</td><td style="vertical-align:top;">:</td><td><div>/var/www/html</div></td></tr><tr><td style="font-weight:bold;vertical-align:top;">context_prefix</td><td style="vertical-align:top;">:</td><td><div></div></td></tr><tr><td style="font-weight:bold;vertical-align:top;">db_sessions</td><td style="vertical-align:top;">:</td><td><div>set([])</div></td></tr><tr><td style="font-weight:bold;vertical-align:top;">debugging</td><td style="vertical-align:top;">:</td><td><div>True</div></td></tr><tr><td style="font-weight:bold;vertical-align:top;">document_root</td><td style="vertical-align:top;">:</td><td><div>/var/www/html</div></td></tr><tr><td style="font-weight:bold;vertical-align:top;">gateway_interface</td><td style="vertical-align:top;">:</td><td><div>CGI/1.1</div></td></tr><tr><td style="font-weight:bold;vertical-align:top;">gluon_parent</td><td style="vertical-align:top;">:</td><td><div>/home/www-data/web2py</div></td></tr><tr><td style="font-weight:bold;vertical-align:top;">http_accept</td><td style="vertical-align:top;">:</td><td><div>text/html,application/xhtml+xml,application/xml;q=0.9,image/webp,image/apng,*/*;q=0.8</div></td></tr><tr><td style="font-weight:bold;vertical-align:top;">http_accept_encoding</td><td style="vertical-align:top;">:</td><td><div>gzip, deflate, br</div></td></tr><tr><td style="font-weight:bold;vertical-align:top;">http_accept_language</td><td style="vertical-align:top;">:</td><td><div>fr-FR,fr;q=0.8,en-US;q=0.6,en;q=0.4</div></td></tr><tr><td style="font-weight:bold;vertical-align:top;">http_cache_control</td><td style="vertical-align:top;">:</td><td><div>max-age=0</div></td></tr><tr><td style="font-weight:bold;vertical-align:top;">http_connection</td><td style="vertical-align:top;">:</td><td><div>keep-alive</div></td></tr><tr><td style="font-weight:bold;vertical-align:top;">http_cookie</td><td style="vertical-align:top;">:</td><td><div>session_id_admin=83.203.51.117-ec5ab064-18ca-475d-9ae1-940e39bb68d9; session_id_obsas_dev=83.203.51.117-922c16b5-daa2-4fed-9a71-e377d16cfeb3</div></td></tr><tr><td style="font-weight:bold;vertical-align:top;">http_host</td><td style="vertical-align:top;">:</td><td><div>admin.obsas.orvdev.fr</div></td></tr><tr><td style="font-weight:bold;vertical-align:top;">http_referer</td><td style="vertical-align:top;">:</td><td><div>https://admin.obsas.orvdev.fr/admin/edit/obsas_dev/controllers/maintenance.py?id=controllers__maintenance__py</div></td></tr><tr><td style="font-weight:bold;vertical-align:top;">http_upgrade_insecure_requests</td><td style="vertical-align:top;">:</td><td><div>1</div></td></tr><tr><td style="font-weight:bold;vertical-align:top;">http_user_agent</td><td style="vertical-align:top;">:</td><td><div>Mozilla/5.0 (X11; Linux x86_64) AppleWebKit/537.36 (KHTML, like Gecko) Chrome/60.0.3112.101 Safari/537.36</div></td></tr><tr><td style="font-weight:bold;vertical-align:top;">is_jython</td><td style="vertical-align:top;">:</td><td><div>False</div></td></tr><tr><td style="font-weight:bold;vertical-align:top;">is_py2</td><td style="vertical-align:top;">:</td><td><div>True</div></td></tr><tr><td style="font-weight:bold;vertical-align:top;">is_pypy</td><td style="vertical-align:top;">:</td><td><div>False</div></td></tr><tr><td style="font-weight:bold;vertical-align:top;">is_source</td><td style="vertical-align:top;">:</td><td><div>True</div></td></tr><tr><td style="font-weight:bold;vertical-align:top;">local_hosts</td><td style="vertical-align:top;">:</td><td><div><table><tr><td><div>vps433020</div></td></tr><tr><td><div>::ffff:127.0.0.1</div></td></tr><tr><td><div>::1</div></td></tr><tr><td><div>151.80.57.169</div></td></tr><tr><td><div>vps433020.ovh.net</div></td></tr><tr><td><div>127.0.1.1</div></td></tr><tr><td><div>127.0.0.1</div></td></tr></table></div></td></tr><tr><td style="font-weight:bold;vertical-align:top;">mod_wsgi.application_group</td><td style="vertical-align:top;">:</td><td><div></div></td></tr><tr><td style="font-weight:bold;vertical-align:top;">mod_wsgi.callable_object</td><td style="vertical-align:top;">:</td><td><div>application</div></td></tr><tr><td style="font-weight:bold;vertical-align:top;">mod_wsgi.daemon_connects</td><td style="vertical-align:top;">:</td><td><div>1</div></td></tr><tr><td style="font-weight:bold;vertical-align:top;">mod_wsgi.daemon_restarts</td><td style="vertical-align:top;">:</td><td><div>0</div></td></tr><tr><td style="font-weight:bold;vertical-align:top;">mod_wsgi.daemon_start</td><td style="vertical-align:top;">:</td><td><div>1504649709215579</div></td></tr><tr><td style="font-weight:bold;vertical-align:top;">mod_wsgi.enable_sendfile</td><td style="vertical-align:top;">:</td><td><div>0</div></td></tr><tr><td style="font-weight:bold;vertical-align:top;">mod_wsgi.handler_script</td><td style="vertical-align:top;">:</td><td><div></div></td></tr><tr><td style="font-weight:bold;vertical-align:top;">mod_wsgi.input_chunked</td><td style="vertical-align:top;">:</td><td><div>0</div></td></tr><tr><td style="font-weight:bold;vertical-align:top;">mod_wsgi.listener_host</td><td style="vertical-align:top;">:</td><td><div></div></td></tr><tr><td style="font-weight:bold;vertical-align:top;">mod_wsgi.listener_port</td><td style="vertical-align:top;">:</td><td><div>443</div></td></tr><tr><td style="font-weight:bold;vertical-align:top;">mod_wsgi.process_group</td><td style="vertical-align:top;">:</td><td><div>obsasadm</div></td></tr><tr><td style="font-weight:bold;vertical-align:top;">mod_wsgi.queue_start</td><td style="vertical-align:top;">:</td><td><div>1504649709215428</div></td></tr><tr><td style="font-weight:bold;vertical-align:top;">mod_wsgi.request_handler</td><td style="vertical-align:top;">:</td><td><div>wsgi-script</div></td></tr><tr><td style="font-weight:bold;vertical-align:top;">mod_wsgi.request_start</td><td style="vertical-align:top;">:</td><td><div>1504649709214294</div></td></tr><tr><td style="font-weight:bold;vertical-align:top;">mod_wsgi.script_reloading</td><td style="vertical-align:top;">:</td><td><div>1</div></td></tr><tr><td style="font-weight:bold;vertical-align:top;">mod_wsgi.script_start</td><td style="vertical-align:top;">:</td><td><div>1504649709215611</div></td></tr><tr><td style="font-weight:bold;vertical-align:top;">mod_wsgi.version</td><td style="vertical-align:top;">:</td><td><div><table><tr><td><div>4</div></td></tr><tr><td><div>3</div></td></tr><tr><td><div>0</div></td></tr></table></div></td></tr><tr><td style="font-weight:bold;vertical-align:top;">mod_wsgi_application_group</td><td style="vertical-align:top;">:</td><td><div></div></td></tr><tr><td style="font-weight:bold;vertical-align:top;">mod_wsgi_callable_object</td><td style="vertical-align:top;">:</td><td><div>application</div></td></tr><tr><td style="font-weight:bold;vertical-align:top;">mod_wsgi_daemon_connects</td><td style="vertical-align:top;">:</td><td><div>1</div></td></tr><tr><td style="font-weight:bold;vertical-align:top;">mod_wsgi_daemon_restarts</td><td style="vertical-align:top;">:</td><td><div>0</div></td></tr><tr><td style="font-weight:bold;vertical-align:top;">mod_wsgi_daemon_start</td><td style="vertical-align:top;">:</td><td><div>1504649709215579</div></td></tr><tr><td style="font-weight:bold;vertical-align:top;">mod_wsgi_enable_sendfile</td><td style="vertical-align:top;">:</td><td><div>0</div></td></tr><tr><td style="font-weight:bold;vertical-align:top;">mod_wsgi_handler_script</td><td style="vertical-align:top;">:</td><td><div></div></td></tr><tr><td style="font-weight:bold;vertical-align:top;">mod_wsgi_input_chunked</td><td style="vertical-align:top;">:</td><td><div>0</div></td></tr><tr><td style="font-weight:bold;vertical-align:top;">mod_wsgi_listener_host</td><td style="vertical-align:top;">:</td><td><div></div></td></tr><tr><td style="font-weight:bold;vertical-align:top;">mod_wsgi_listener_port</td><td style="vertical-align:top;">:</td><td><div>443</div></td></tr><tr><td style="font-weight:bold;vertical-align:top;">mod_wsgi_process_group</td><td style="vertical-align:top;">:</td><td><div>obsasadm</div></td></tr><tr><td style="font-weight:bold;vertical-align:top;">mod_wsgi_queue_start</td><td style="vertical-align:top;">:</td><td><div>1504649709215428</div></td></tr><tr><td style="font-weight:bold;vertical-align:top;">mod_wsgi_request_handler</td><td style="vertical-align:top;">:</td><td><div>wsgi-script</div></td></tr><tr><td style="font-weight:bold;vertical-align:top;">mod_wsgi_request_start</td><td style="vertical-align:top;">:</td><td><div>1504649709214294</div></td></tr><tr><td style="font-weight:bold;vertical-align:top;">mod_wsgi_script_reloading</td><td style="vertical-align:top;">:</td><td><div>1</div></td></tr><tr><td style="font-weight:bold;vertical-align:top;">mod_wsgi_script_start</td><td style="vertical-align:top;">:</td><td><div>1504649709215611</div></td></tr><tr><td style="font-weight:bold;vertical-align:top;">mod_wsgi_version</td><td style="vertical-align:top;">:</td><td><div><table><tr><td><div>4</div></td></tr><tr><td><div>3</div></td></tr><tr><td><div>0</div></td></tr></table></div></td></tr><tr><td style="font-weight:bold;vertical-align:top;">nokeepalive</td><td style="vertical-align:top;">:</td><td><div>ssl-unclean-shutdown</div></td></tr><tr><td style="font-weight:bold;vertical-align:top;">path_info</td><td style="vertical-align:top;">:</td><td><div>/obsas_dev/maintenance/updateSessions</div></td></tr><tr><td style="font-weight:bold;vertical-align:top;">path_translated</td><td style="vertical-align:top;">:</td><td><div>/home/www-data/web2py/wsgihandler.py/obsas_dev/maintenance/updateSessions</div></td></tr><tr><td style="font-weight:bold;vertical-align:top;">query_string</td><td style="vertical-align:top;">:</td><td><div></div></td></tr><tr><td style="font-weight:bold;vertical-align:top;">remote_addr</td><td style="vertical-align:top;">:</td><td><div>83.203.51.117</div></td></tr><tr><td style="font-weight:bold;vertical-align:top;">remote_port</td><td style="vertical-align:top;">:</td><td><div>34015</div></td></tr><tr><td style="font-weight:bold;vertical-align:top;">request_method</td><td style="vertical-align:top;">:</td><td><div>GET</div></td></tr><tr><td style="font-weight:bold;vertical-align:top;">request_scheme</td><td style="vertical-align:top;">:</td><td><div>https</div></td></tr><tr><td style="font-weight:bold;vertical-align:top;">request_uri</td><td style="vertical-align:top;">:</td><td><div>/obsas_dev/maintenance/updateSessions</div></td></tr><tr><td style="font-weight:bold;vertical-align:top;">script_filename</td><td style="vertical-align:top;">:</td><td><div>/home/www-data/web2py/wsgihandler.py</div></td></tr><tr><td style="font-weight:bold;vertical-align:top;">script_name</td><td style="vertical-align:top;">:</td><td><div></div></td></tr><tr><td style="font-weight:bold;vertical-align:top;">server_addr</td><td style="vertical-align:top;">:</td><td><div>151.80.57.169</div></td></tr><tr><td style="font-weight:bold;vertical-align:top;">server_admin</td><td style="vertical-align:top;">:</td><td><div>[no address given]</div></td></tr><tr><td style="font-weight:bold;vertical-align:top;">server_name</td><td style="vertical-align:top;">:</td><td><div>admin.obsas.orvdev.fr</div></td></tr><tr><td style="font-weight:bold;vertical-align:top;">server_port</td><td style="vertical-align:top;">:</td><td><div>443</div></td></tr><tr><td style="font-weight:bold;vertical-align:top;">server_protocol</td><td style="vertical-align:top;">:</td><td><div>HTTP/1.1</div></td></tr><tr><td style="font-weight:bold;vertical-align:top;">server_signature</td><td style="vertical-align:top;">:</td><td><div>&lt;address&gt;Apache/2.4.18 (Ubuntu) Server at admin.obsas.orvdev.fr Port 443&lt;/address&gt;\n</div></td></tr><tr><td style="font-weight:bold;vertical-align:top;">server_software</td><td style="vertical-align:top;">:</td><td><div>Apache/2.4.18 (Ubuntu)</div></td></tr><tr><td style="font-weight:bold;vertical-align:top;">ssl_tls_sni</td><td style="vertical-align:top;">:</td><td><div>admin.obsas.orvdev.fr</div></td></tr><tr><td style="font-weight:bold;vertical-align:top;">web2py_original_uri</td><td style="vertical-align:top;">:</td><td><div>/obsas_dev/maintenance/updateSessions</div></td></tr><tr><td style="font-weight:bold;vertical-align:top;">web2py_path</td><td style="vertical-align:top;">:</td><td><div>/home/www-data/web2py</div></td></tr><tr><td style="font-weight:bold;vertical-align:top;">web2py_version</td><td style="vertical-align:top;">:</td><td><div>2.15.1-stable+timestamp.2017.07.10.21.25.06</div></td></tr><tr><td style="font-weight:bold;vertical-align:top;">wsgi.errors</td><td style="vertical-align:top;">:</td><td><div>&lt;mod_wsgi.Log object at 0x7f6e0f076db0&gt;</div></td></tr><tr><td style="font-weight:bold;vertical-align:top;">wsgi.file_wrapper</td><td style="vertical-align:top;">:</td><td><div>&lt;type &#x27;mod_wsgi.FileWrapper&#x27;&gt;</div></td></tr><tr><td style="font-weight:bold;vertical-align:top;">wsgi.input</td><td style="vertical-align:top;">:</td><td><div>&lt;mod_wsgi.Input object at 0x7f6e0d330ab0&gt;</div></td></tr><tr><td style="font-weight:bold;vertical-align:top;">wsgi.multiprocess</td><td style="vertical-align:top;">:</td><td><div>False</div></td></tr><tr><td style="font-weight:bold;vertical-align:top;">wsgi.multithread</td><td style="vertical-align:top;">:</td><td><div>True</div></td></tr><tr><td style="font-weight:bold;vertical-align:top;">wsgi.run_once</td><td style="vertical-align:top;">:</td><td><div>False</div></td></tr><tr><td style="font-weight:bold;vertical-align:top;">wsgi.url_scheme</td><td style="vertical-align:top;">:</td><td><div>https</div></td></tr><tr><td style="font-weight:bold;vertical-align:top;">wsgi.version</td><td style="vertical-align:top;">:</td><td><div><table><tr><td><div>1</div></td></tr><tr><td><div>0</div></td></tr></table></div></td></tr><tr><td style="font-weight:bold;vertical-align:top;">wsgi_errors</td><td style="vertical-align:top;">:</td><td><div>&lt;mod_wsgi.Log object at 0x7f6e0f076db0&gt;</div></td></tr><tr><td style="font-weight:bold;vertical-align:top;">wsgi_file_wrapper</td><td style="vertical-align:top;">:</td><td><div>&lt;type &#x27;mod_wsgi.FileWrapper&#x27;&gt;</div></td></tr><tr><td style="font-weight:bold;vertical-align:top;">wsgi_input</td><td style="vertical-align:top;">:</td><td><div>&lt;mod_wsgi.Input object at 0x7f6e0d330ab0&gt;</div></td></tr><tr><td style="font-weight:bold;vertical-align:top;">wsgi_multiprocess</td><td style="vertical-align:top;">:</td><td><div>False</div></td></tr><tr><td style="font-weight:bold;vertical-align:top;">wsgi_multithread</td><td style="vertical-align:top;">:</td><td><div>True</div></td></tr><tr><td style="font-weight:bold;vertical-align:top;">wsgi_run_once</td><td style="vertical-align:top;">:</td><td><div>False</div></td></tr><tr><td style="font-weight:bold;vertical-align:top;">wsgi_url_scheme</td><td style="vertical-align:top;">:</td><td><div>https</div></td></tr><tr><td style="font-weight:bold;vertical-align:top;">wsgi_version</td><td style="vertical-align:top;">:</td><td><div><table><tr><td><div>1</div></td></tr><tr><td><div>0</div></td></tr></table></div></td></tr></table></div></td></tr><tr><td style="font-weight:bold;vertical-align:top;">extension</td><td style="vertical-align:top;">:</td><td><div>html</div></td></tr><tr><td style="font-weight:bold;vertical-align:top;">folder</td><td style="vertical-align:top;">:</td><td><div>/home/www-data/web2py/applications/obsas_dev/</div></td></tr><tr><td style="font-weight:bold;vertical-align:top;">function</td><td style="vertical-align:top;">:</td><td><div>updateSessions</div></td></tr><tr><td style="font-weight:bold;vertical-align:top;">global_settings</td><td style="vertical-align:top;">:</td><td><div><table><tr><td style="font-weight:bold;vertical-align:top;">app_folders</td><td style="vertical-align:top;">:</td><td><div>set([&#x27;/home/www-data/web2py/applications/obsas_dev/&#x27;, &#x27;/home/www-data/web2py/applications/admin/&#x27;])</div></td></tr><tr><td style="font-weight:bold;vertical-align:top;">applications_parent</td><td style="vertical-align:top;">:</td><td><div>/home/www-data/web2py</div></td></tr><tr><td style="font-weight:bold;vertical-align:top;">db_sessions</td><td style="vertical-align:top;">:</td><td><div>set([])</div></td></tr><tr><td style="font-weight:bold;vertical-align:top;">debugging</td><td style="vertical-align:top;">:</td><td><div>True</div></td></tr><tr><td style="font-weight:bold;vertical-align:top;">gluon_parent</td><td style="vertical-align:top;">:</td><td><div>/home/www-data/web2py</div></td></tr><tr><td style="font-weight:bold;vertical-align:top;">is_jython</td><td style="vertical-align:top;">:</td><td><div>False</div></td></tr><tr><td style="font-weight:bold;vertical-align:top;">is_py2</td><td style="vertical-align:top;">:</td><td><div>True</div></td></tr><tr><td style="font-weight:bold;vertical-align:top;">is_pypy</td><td style="vertical-align:top;">:</td><td><div>False</div></td></tr><tr><td style="font-weight:bold;vertical-align:top;">is_source</td><td style="vertical-align:top;">:</td><td><div>True</div></td></tr><tr><td style="font-weight:bold;vertical-align:top;">local_hosts</td><td style="vertical-align:top;">:</td><td><div><table><tr><td><div>vps433020</div></td></tr><tr><td><div>::ffff:127.0.0.1</div></td></tr><tr><td><div>::1</div></td></tr><tr><td><div>151.80.57.169</div></td></tr><tr><td><div>vps433020.ovh.net</div></td></tr><tr><td><div>127.0.1.1</div></td></tr><tr><td><div>127.0.0.1</div></td></tr></table></div></td></tr><tr><td style="font-weight:bold;vertical-align:top;">web2py_version</td><td style="vertical-align:top;">:</td><td><div>2.15.1-stable+timestamp.2017.07.10.21.25.06</div></td></tr></table></div></td></tr><tr><td style="font-weight:bold;vertical-align:top;">is_https</td><td style="vertical-align:top;">:</td><td><div>True</div></td></tr><tr><td style="font-weight:bold;vertical-align:top;">is_local</td><td style="vertical-align:top;">:</td><td><div>False</div></td></tr><tr><td style="font-weight:bold;vertical-align:top;">is_restful</td><td style="vertical-align:top;">:</td><td><div>False</div></td></tr><tr><td style="font-weight:bold;vertical-align:top;">is_scheduler</td><td style="vertical-align:top;">:</td><td><div>False</div></td></tr><tr><td style="font-weight:bold;vertical-align:top;">is_shell</td><td style="vertical-align:top;">:</td><td><div>False</div></td></tr><tr><td style="font-weight:bold;vertical-align:top;">now</td><td style="vertical-align:top;">:</td><td><div>datetime.datetime(2017, 9, 6, 0, 15, 9, 215895)</div></td></tr><tr><td style="font-weight:bold;vertical-align:top;">url</td><td style="vertical-align:top;">:</td><td><div>/obsas_dev/maintenance/updateSessions</div></td></tr><tr><td style="font-weight:bold;vertical-align:top;">utcnow</td><td style="vertical-align:top;">:</td><td><div>datetime.datetime(2017, 9, 5, 22, 15, 9, 215921)</div></td></tr><tr><td style="font-weight:bold;vertical-align:top;">wsgi</td><td style="vertical-align:top;">:</td><td><div>&lt;gluon.main.LazyWSGI object at 0x7f6e0edd94d0&gt;</div></td></tr></table></div>'
tRp60
sS'frames'
p61
(lp62
(dp63
S'file'
p64
S'/home/www-data/web2py/gluon/restricted.py'
p65
sS'dump'
p66
(dp67
S'environment'
p68
S"{'A': <class 'gluon.html.A'>, 'ANY_OF': <class 'gluon.validators.ANY_OF'>, 'ASSIGNJS': <function ASSIGNJS>, 'AppCache': <class __restricted__.AppCache>, 'AppConfig': <function AppConfig>, 'Auth': <class 'gluon.tools.Auth'>, 'B': <class 'gluon.html.B'>, 'BEAUTIFY': <class 'gluon.html.BEAUTIFY'>, 'BODY': <class 'gluon.html.BODY'>, 'BR': <class 'gluon.html.BR'>, ...}"
p69
sS'ccode'
p70
S'<code object <module> at 0x7f6e2a943930, file "/...ns/obsas_dev/controllers/maintenance.py", line 4>'
p71
ssS'lnum'
p72
I219
sS'lines'
p73
(dp74
I214
S'    if environment is None:'
p75
sI215
S'        environment = {}'
p76
sI216
S"    environment['__file__'] = layer"
p77
sI217
S"    environment['__name__'] = '__restricted__'"
p78
sI218
S'    try:'
p79
sI219
S'        exec(ccode, environment)'
p80
sI220
S'    except HTTP:'
p81
sI221
S'        raise'
p82
sI222
S'    except RestrictedError:'
p83
sI223
S'        # do not encapsulate (obfuscate) the original RestrictedError'
p84
ssS'call'
p85
S'(ccode=<code object <module> at 0x7f6e2a943930, file "/...ns/obsas_dev/controllers/maintenance.py", line 4>, environment={\'A\': <class \'gluon.html.A\'>, \'ANY_OF\': <class \'gluon.validators.ANY_OF\'>, \'ASSIGNJS\': <function ASSIGNJS>, \'AppCache\': <class __restricted__.AppCache>, \'AppConfig\': <function AppConfig>, \'Auth\': <class \'gluon.tools.Auth\'>, \'B\': <class \'gluon.html.B\'>, \'BEAUTIFY\': <class \'gluon.html.BEAUTIFY\'>, \'BODY\': <class \'gluon.html.BODY\'>, \'BR\': <class \'gluon.html.BR\'>, ...}, layer=\'/home/www-data/web2py/applications/obsas_dev/controllers/maintenance.py\')'
p86
sS'func'
p87
S'restricted'
p88
sa(dp89
g64
S'/home/www-data/web2py/applications/obsas_dev/controllers/maintenance.py'
p90
sg66
(dp91
sg72
I250
sg73
(dp92
I239
S'    # stockage des votes et des scrutins dans la base'
p93
sI240
S'    if votes:'
p94
sI241
S"        mdb.votes.create_index([('vote_id', pymongo.ASCENDING)], unique = True)"
p95
sI242
S'        #mdb.votes.insert_many(votes)'
p96
sI243
S'        for v in votes:'
p97
sI244
S'            mdb.votes.insert(v)'
p98
sI245
S''
sI246
S'    if scrutins:'
p99
sI247
S"        mdb.scrutins.create_index([('scrutin_id', pymongo.ASCENDING)], unique = True)"
p100
sI248
S'        mdb.scrutins.insert_many(scrutins)'
p101
ssg85
S'()'
p102
sg87
S'<module>'
p103
sa(dp104
g64
S'/home/www-data/web2py/gluon/globals.py'
p105
sg66
(dp106
S'self'
p107
S'undefined'
p108
sS'f'
S'<function updateSessions>'
p109
ssg72
I409
sg73
(dp110
I404
S"        self.flash = ''            # used by the default view layout"
p111
sI405
S'        self.meta = Storage()      # used by web2py_ajax.html'
p112
sI406
S'        self.menu = []             # used by the default view layout'
p113
sI407
S'        self.files = []            # used by web2py_ajax.html'
p114
sI408
S'        self._vars = None'
p115
sI409
S'        self._caller = lambda f: f()'
p116
sI410
S'        self._view_environment = None'
p117
sI411
S'        self._custom_commit = None'
p118
sI412
S'        self._custom_rollback = None'
p119
sI413
S"        self.generic_patterns = ['*']"
p120
ssg85
S'(f=<function updateSessions>)'
p121
sg87
S'<lambda>'
p122
sa(dp123
g64
S'/home/www-data/web2py/applications/obsas_dev/controllers/maintenance.py'
p124
sg66
(dp125
S'lex'
p126
S"u'noms'"
p127
sS'nb'
p128
g108
sS'v'
S"{u'noms': {u'accompli': 1, u'accord\\xe9': 1, u'acte': 3, u'allemagne': 1, u'al\\xe9a': 1, u'amendement': 6, u'amont': 1, u'automatique': 2, u'bien': 1, u'bonne': 2, ...}, u'verbs': {u'acc\\xe9der': 1, u'admettre': 1, u'associer': 1, u'b\\xe9n\\xe9ficier': 2, u'citer': 1, u'clarifier': 1, u'concerner': 1, u'conna\\xeetre': 1, u'consid\\xe9rer': 1, u'devoir': 3, ...}}"
p129
sS'mot'
p130
g108
ssg72
I138
sg73
(dp131
I133
S'        if not k in newmots.keys():'
p132
sI134
S'            newmots[k] = {}'
p133
sI135
S'        for lex in v.keys():'
p134
sI136
S'            if not lex in newmots[k]:'
p135
sI137
S'                newmots[k][lex] = {}'
p136
sI138
S'            for mot,nb in v[lex]:'
p137
sI139
S'                newmots[k][lex][mot] = newmots[k][lex].get(mot,0) + nb'
p138
sI140
S"        mdb.deputes.update({'depute_id':k},{'$set':{'depute_mots':newmots[k]} }, upsert=True)"
p139
sI141
S''
sI142
S'def updateScrutins():'
p140
ssg85
S'()'
p141
sg87
S'updateSessions'
p142
sasS'pyver'
p143
S'Python 2.7.12: /home/www-data/web2py/applications/obsas_dev/.pyenv/bin/python (prefix: /home/www-data/web2py/applications/obsas_dev/.pyenv)'
p144
sS'session'
p145
g59
(S's\x1a\x00\x00\x00<div><table></table></div>'
tRp146
sS'etype'
p147
S"<type 'exceptions.ValueError'>"
p148
sS'date'
p149
S'Wed Sep  6 00:16:22 2017'
p150
sS'response'
p151
g59
(S'so>\x00\x00<div><table><tr><td style="font-weight:bold;vertical-align:top;">body</td><td style="vertical-align:top;">:</td><td><div>&lt;cStringIO.StringO object at 0x7f6e296c2298&gt;</div></td></tr><tr><td style="font-weight:bold;vertical-align:top;">cookies</td><td style="vertical-align:top;">:</td><td><div><table><tr><td style="font-weight:bold;vertical-align:top;">session_id_obsas_dev</td><td style="vertical-align:top;">:</td><td><div>83.203.51.117-ac748529-1fad-46d2-a667-888ba73cc5cd<table><tr><td style="font-weight:bold;vertical-align:top;">comment</td><td style="vertical-align:top;">:</td><td><div></div></td></tr><tr><td style="font-weight:bold;vertical-align:top;">domain</td><td style="vertical-align:top;">:</td><td><div></div></td></tr><tr><td style="font-weight:bold;vertical-align:top;">expires</td><td style="vertical-align:top;">:</td><td><div></div></td></tr><tr><td style="font-weight:bold;vertical-align:top;">httponly</td><td style="vertical-align:top;">:</td><td><div></div></td></tr><tr><td style="font-weight:bold;vertical-align:top;">max-age</td><td style="vertical-align:top;">:</td><td><div></div></td></tr><tr><td style="font-weight:bold;vertical-align:top;">path</td><td style="vertical-align:top;">:</td><td><div>/</div></td></tr><tr><td style="font-weight:bold;vertical-align:top;">secure</td><td style="vertical-align:top;">:</td><td><div></div></td></tr><tr><td style="font-weight:bold;vertical-align:top;">version</td><td style="vertical-align:top;">:</td><td><div></div></td></tr></table></div></td></tr></table></div></td></tr><tr><td style="font-weight:bold;vertical-align:top;">delimiters</td><td style="vertical-align:top;">:</td><td><div><table><tr><td><div>{{</div></td></tr><tr><td><div>}}</div></td></tr></table></div></td></tr><tr><td style="font-weight:bold;vertical-align:top;">files</td><td style="vertical-align:top;">:</td><td><div><table></table></div></td></tr><tr><td style="font-weight:bold;vertical-align:top;">flash</td><td style="vertical-align:top;">:</td><td><div></div></td></tr><tr><td style="font-weight:bold;vertical-align:top;">form_label_separator</td><td style="vertical-align:top;">:</td><td><div></div></td></tr><tr><td style="font-weight:bold;vertical-align:top;">formstyle</td><td style="vertical-align:top;">:</td><td><div>bootstrap3_inline</div></td></tr><tr><td style="font-weight:bold;vertical-align:top;">generic_patterns</td><td style="vertical-align:top;">:</td><td><div><table></table></div></td></tr><tr><td style="font-weight:bold;vertical-align:top;">google_analytics_id</td><td style="vertical-align:top;">:</td><td><div>None</div></td></tr><tr><td style="font-weight:bold;vertical-align:top;">headers</td><td style="vertical-align:top;">:</td><td><div><table><tr><td style="font-weight:bold;vertical-align:top;">X-Powered-By</td><td style="vertical-align:top;">:</td><td><div>web2py</div></td></tr></table></div></td></tr><tr><td style="font-weight:bold;vertical-align:top;">logo</td><td style="vertical-align:top;">:</td><td><div><a class="navbar-brand" href="http://www.web2py.com/" id="web2py-logo"><b>web<span>2</span>py</b>&trade;&nbsp;</a></div></td></tr><tr><td style="font-weight:bold;vertical-align:top;">menu</td><td style="vertical-align:top;">:</td><td><div><table><tr><td><div><table><tr><td><div>Accueil</div></td></tr><tr><td><div>False</div></td></tr><tr><td><div>/obsas_dev</div></td></tr><tr><td><div><table></table></div></td></tr></table></div></td></tr><tr><td><div><table><tr><td><div>Mes sites</div></td></tr><tr><td><div>False</div></td></tr><tr><td><div>/admin/site</div></td></tr></table></div></td></tr><tr><td><div><table><tr><td><div>Cette Appli</div></td></tr><tr><td><div>False</div></td></tr><tr><td><div>#</div></td></tr><tr><td><div><table><tr><td><div><table><tr><td><div>Design</div></td></tr><tr><td><div>False</div></td></tr><tr><td><div>/admin/design/obsas_dev</div></td></tr></table></div></td></tr><tr><td><div><li class="divider"></li></div></td></tr><tr><td><div><table><tr><td><div>Contr\xc3\xb4leur</div></td></tr><tr><td><div>False</div></td></tr><tr><td><div>/admin/edit/obsas_dev/controllers/maintenance.py</div></td></tr></table></div></td></tr><tr><td><div><table><tr><td><div>Pr\xc3\xa9sentation</div></td></tr><tr><td><div>False</div></td></tr><tr><td><div>/admin/edit/obsas_dev/views/maintenance/updateSessions.html</div></td></tr></table></div></td></tr><tr><td><div><table><tr><td><div>Mod\xc3\xa8le BD</div></td></tr><tr><td><div>False</div></td></tr><tr><td><div>/admin/edit/obsas_dev/models/db.py</div></td></tr></table></div></td></tr><tr><td><div><table><tr><td><div>Menu mod\xc3\xa8le</div></td></tr><tr><td><div>False</div></td></tr><tr><td><div>/admin/edit/obsas_dev/models/menu.py</div></td></tr></table></div></td></tr><tr><td><div><table><tr><td><div>Config.ini</div></td></tr><tr><td><div>False</div></td></tr><tr><td><div>/admin/edit/obsas_dev/private/appconfig.ini</div></td></tr></table></div></td></tr><tr><td><div><table><tr><td><div>Mise en page</div></td></tr><tr><td><div>False</div></td></tr><tr><td><div>/admin/edit/obsas_dev/views/layout.html</div></td></tr></table></div></td></tr><tr><td><div><table><tr><td><div>Feuille de style</div></td></tr><tr><td><div>False</div></td></tr><tr><td><div>/admin/edit/obsas_dev/static/css/web2py-bootstrap3.css</div></td></tr></table></div></td></tr><tr><td><div><table><tr><td><div>base de donn\xc3\xa9es</div></td></tr><tr><td><div>False</div></td></tr><tr><td><div>/obsas_dev/appadmin</div></td></tr></table></div></td></tr><tr><td><div><table><tr><td><div>Erreurs</div></td></tr><tr><td><div>False</div></td></tr><tr><td><div>/admin/errors/obsas_dev</div></td></tr></table></div></td></tr><tr><td><div><table><tr><td><div>\xc3\x80 propos</div></td></tr><tr><td><div>False</div></td></tr><tr><td><div>/admin/about/obsas_dev</div></td></tr></table></div></td></tr></table></div></td></tr></table></div></td></tr><tr><td><div><table><tr><td><div>web2py.com</div></td></tr><tr><td><div>False</div></td></tr><tr><td><div>#</div></td></tr><tr><td><div><table><tr><td><div><table><tr><td><div>T\xc3\xa9l\xc3\xa9chargement</div></td></tr><tr><td><div>False</div></td></tr><tr><td><div>http://www.web2py.com/examples/default/download</div></td></tr></table></div></td></tr><tr><td><div><table><tr><td><div>Soutien</div></td></tr><tr><td><div>False</div></td></tr><tr><td><div>http://www.web2py.com/examples/default/support</div></td></tr></table></div></td></tr><tr><td><div><table><tr><td><div>D\xc3\xa9mo</div></td></tr><tr><td><div>False</div></td></tr><tr><td><div>http://web2py.com/demo_admin</div></td></tr></table></div></td></tr><tr><td><div><table><tr><td><div>Exemples Rapides</div></td></tr><tr><td><div>False</div></td></tr><tr><td><div>http://web2py.com/examples/default/examples</div></td></tr></table></div></td></tr><tr><td><div><table><tr><td><div>FAQ</div></td></tr><tr><td><div>False</div></td></tr><tr><td><div>http://web2py.com/AlterEgo</div></td></tr></table></div></td></tr><tr><td><div><table><tr><td><div>Vid\xc3\xa9os</div></td></tr><tr><td><div>False</div></td></tr><tr><td><div>http://www.web2py.com/examples/default/videos/</div></td></tr></table></div></td></tr><tr><td><div><table><tr><td><div>Applications gratuites</div></td></tr><tr><td><div>False</div></td></tr><tr><td><div>http://web2py.com/appliances</div></td></tr></table></div></td></tr><tr><td><div><table><tr><td><div>Plugiciels</div></td></tr><tr><td><div>False</div></td></tr><tr><td><div>http://web2py.com/plugins</div></td></tr></table></div></td></tr><tr><td><div><table><tr><td><div>Recettes</div></td></tr><tr><td><div>False</div></td></tr><tr><td><div>http://web2pyslices.com/</div></td></tr></table></div></td></tr></table></div></td></tr></table></div></td></tr><tr><td><div><table><tr><td><div>Documentation</div></td></tr><tr><td><div>False</div></td></tr><tr><td><div>#</div></td></tr><tr><td><div><table><tr><td><div><table><tr><td><div>Online book</div></td></tr><tr><td><div>False</div></td></tr><tr><td><div>http://www.web2py.com/book</div></td></tr></table></div></td></tr><tr><td><div><li class="divider"></li></div></td></tr><tr><td><div><table><tr><td><div>Pr\xc3\xa9face</div></td></tr><tr><td><div>False</div></td></tr><tr><td><div>http://www.web2py.com/book/default/chapter/00</div></td></tr></table></div></td></tr><tr><td><div><table><tr><td><div>Pr\xc3\xa9sentation</div></td></tr><tr><td><div>False</div></td></tr><tr><td><div>http://www.web2py.com/book/default/chapter/01</div></td></tr></table></div></td></tr><tr><td><div><table><tr><td><div>Python</div></td></tr><tr><td><div>False</div></td></tr><tr><td><div>http://www.web2py.com/book/default/chapter/02</div></td></tr></table></div></td></tr><tr><td><div><table><tr><td><div>Pr\xc3\xa9sentation</div></td></tr><tr><td><div>False</div></td></tr><tr><td><div>http://www.web2py.com/book/default/chapter/03</div></td></tr></table></div></td></tr><tr><td><div><table><tr><td><div>Le noyau</div></td></tr><tr><td><div>False</div></td></tr><tr><td><div>http://www.web2py.com/book/default/chapter/04</div></td></tr></table></div></td></tr><tr><td><div><table><tr><td><div>Les Vues</div></td></tr><tr><td><div>False</div></td></tr><tr><td><div>http://www.web2py.com/book/default/chapter/05</div></td></tr></table></div></td></tr><tr><td><div><table><tr><td><div>base de donn\xc3\xa9es</div></td></tr><tr><td><div>False</div></td></tr><tr><td><div>http://www.web2py.com/book/default/chapter/06</div></td></tr></table></div></td></tr><tr><td><div><table><tr><td><div>Formulaires et Validateurs</div></td></tr><tr><td><div>False</div></td></tr><tr><td><div>http://www.web2py.com/book/default/chapter/07</div></td></tr></table></div></td></tr><tr><td><div><table><tr><td><div>Courriel et texto</div></td></tr><tr><td><div>False</div></td></tr><tr><td><div>http://www.web2py.com/book/default/chapter/08</div></td></tr></table></div></td></tr><tr><td><div><table><tr><td><div>Contr\xc3\xb4le d\'acc\xc3\xa8s</div></td></tr><tr><td><div>False</div></td></tr><tr><td><div>http://www.web2py.com/book/default/chapter/09</div></td></tr></table></div></td></tr><tr><td><div><table><tr><td><div>Services</div></td></tr><tr><td><div>False</div></td></tr><tr><td><div>http://www.web2py.com/book/default/chapter/10</div></td></tr></table></div></td></tr><tr><td><div><table><tr><td><div>Recettes Ajax</div></td></tr><tr><td><div>False</div></td></tr><tr><td><div>http://www.web2py.com/book/default/chapter/11</div></td></tr></table></div></td></tr><tr><td><div><table><tr><td><div>Composants et Plugiciels</div></td></tr><tr><td><div>False</div></td></tr><tr><td><div>http://www.web2py.com/book/default/chapter/12</div></td></tr></table></div></td></tr><tr><td><div><table><tr><td><div>Recettes de d\xc3\xa9ploiement</div></td></tr><tr><td><div>False</div></td></tr><tr><td><div>http://www.web2py.com/book/default/chapter/13</div></td></tr></table></div></td></tr><tr><td><div><table><tr><td><div>Autres recettes</div></td></tr><tr><td><div>False</div></td></tr><tr><td><div>http://www.web2py.com/book/default/chapter/14</div></td></tr></table></div></td></tr><tr><td><div><table><tr><td><div>Aider web2py</div></td></tr><tr><td><div>False</div></td></tr><tr><td><div>http://www.web2py.com/book/default/chapter/15</div></td></tr></table></div></td></tr><tr><td><div><table><tr><td><div>Buy web2py\'s book</div></td></tr><tr><td><div>False</div></td></tr><tr><td><div>http://stores.lulu.com/web2py</div></td></tr></table></div></td></tr></table></div></td></tr></table></div></td></tr><tr><td><div><table><tr><td><div>Communaut\xc3\xa9</div></td></tr><tr><td><div>False</div></td></tr><tr><td><div>None</div></td></tr><tr><td><div><table><tr><td><div><table><tr><td><div>Groupes</div></td></tr><tr><td><div>False</div></td></tr><tr><td><div>http://www.web2py.com/examples/default/usergroups</div></td></tr></table></div></td></tr><tr><td><div><table><tr><td><div>Twitter</div></td></tr><tr><td><div>False</div></td></tr><tr><td><div>http://twitter.com/web2py</div></td></tr></table></div></td></tr><tr><td><div><table><tr><td><div>Clavardage en direct</div></td></tr><tr><td><div>False</div></td></tr><tr><td><div>http://webchat.freenode.net/?channels=web2py</div></td></tr></table></div></td></tr></table></div></td></tr></table></div></td></tr></table></div></td></tr><tr><td style="font-weight:bold;vertical-align:top;">meta</td><td style="vertical-align:top;">:</td><td><div><table><tr><td style="font-weight:bold;vertical-align:top;">author</td><td style="vertical-align:top;">:</td><td><div>Your Name &lt;you@example.com&gt;</div></td></tr><tr><td style="font-weight:bold;vertical-align:top;">description</td><td style="vertical-align:top;">:</td><td><div>a cool new app</div></td></tr><tr><td style="font-weight:bold;vertical-align:top;">generator</td><td style="vertical-align:top;">:</td><td><div>Web2py Web Framework</div></td></tr><tr><td style="font-weight:bold;vertical-align:top;">keywords</td><td style="vertical-align:top;">:</td><td><div><table><tr><td><div>web2py</div></td></tr><tr><td><div>python</div></td></tr><tr><td><div>framework</div></td></tr></table></div></td></tr></table></div></td></tr><tr><td style="font-weight:bold;vertical-align:top;">models_to_run</td><td style="vertical-align:top;">:</td><td><div><table><tr><td><div>^\\w+\\.py$</div></td></tr><tr><td><div>^maintenance/\\w+\\.py$</div></td></tr><tr><td><div>^maintenance/updateSessions/\\w+\\.py$</div></td></tr></table></div></td></tr><tr><td style="font-weight:bold;vertical-align:top;">postprocessing</td><td style="vertical-align:top;">:</td><td><div><table></table></div></td></tr><tr><td style="font-weight:bold;vertical-align:top;">session_client</td><td style="vertical-align:top;">:</td><td><div>83.203.51.117</div></td></tr><tr><td style="font-weight:bold;vertical-align:top;">session_cookie_compression_level</td><td style="vertical-align:top;">:</td><td><div>None</div></td></tr><tr><td style="font-weight:bold;vertical-align:top;">session_cookie_expires</td><td style="vertical-align:top;">:</td><td><div>None</div></td></tr><tr><td style="font-weight:bold;vertical-align:top;">session_data_name</td><td style="vertical-align:top;">:</td><td><div>session_data_obsas_dev</div></td></tr><tr><td style="font-weight:bold;vertical-align:top;">session_file</td><td style="vertical-align:top;">:</td><td><div>None</div></td></tr><tr><td style="font-weight:bold;vertical-align:top;">session_filename</td><td style="vertical-align:top;">:</td><td><div>/home/www-data/web2py/applications/obsas_dev/sessions/83.203.51.117-ac748529-1fad-46d2-a667-888ba73cc5cd</div></td></tr><tr><td style="font-weight:bold;vertical-align:top;">session_hash</td><td style="vertical-align:top;">:</td><td><div>c0762cbf4baf7f9af97c051e7fcb8083</div></td></tr><tr><td style="font-weight:bold;vertical-align:top;">session_id</td><td style="vertical-align:top;">:</td><td><div>83.203.51.117-ac748529-1fad-46d2-a667-888ba73cc5cd</div></td></tr><tr><td style="font-weight:bold;vertical-align:top;">session_id_name</td><td style="vertical-align:top;">:</td><td><div>session_id_obsas_dev</div></td></tr><tr><td style="font-weight:bold;vertical-align:top;">session_masterapp</td><td style="vertical-align:top;">:</td><td><div>obsas_dev</div></td></tr><tr><td style="font-weight:bold;vertical-align:top;">session_new</td><td style="vertical-align:top;">:</td><td><div>True</div></td></tr><tr><td style="font-weight:bold;vertical-align:top;">session_storage_type</td><td style="vertical-align:top;">:</td><td><div>file</div></td></tr><tr><td style="font-weight:bold;vertical-align:top;">status</td><td style="vertical-align:top;">:</td><td><div>200</div></td></tr><tr><td style="font-weight:bold;vertical-align:top;">subtitle</td><td style="vertical-align:top;">:</td><td><div></div></td></tr><tr><td style="font-weight:bold;vertical-align:top;">title</td><td style="vertical-align:top;">:</td><td><div>Obsas Dev</div></td></tr><tr><td style="font-weight:bold;vertical-align:top;">view</td><td style="vertical-align:top;">:</td><td><div>maintenance/updateSessions.html</div></td></tr></table></div>'
tRp152
sS'locals'
p153
(dp154
S'mots'
p155
S"{u'PA1008': {u'noms': {u'affaire': 2, u'am\\xe9ricain': 2, u'annonce': 1, u'appel\\xe9': 1, u'approche': 1, u'appropri\\xe9': 1, u'balistique': 1, u'cadre': 1, u'centrale': 1, u'chanceli\\xe8re': 1, ...}, u'verbs': {u'concerner': 1, u'constituer': 2, u'contribuer': 1, u'esp\\xe9rer': 1, u'exprimer': 1, u'jouer': 1, u'parler': 1, u'permettre': 1, u'pouvoir': 2, u'pr\\xe9ciser': 1}}, u'PA1012': {u'noms': {u'abus': 1, u'affaibli': 1, u'amendement': 1, u'atteint': 1, u'bien': 2, u'but': 1, u'cher': 1, u'chose': 1, u'coll\\xe8gue': 1, u'commission': 1, ...}, u'verbs': {u'conclure': 1, u'devoir': 1, u'dire': 2, u'd\\xe9battre': 1, u'examiner': 2, u'fixer': 1, u'laisser': 2, u'mener': 1, u'mettre': 1, u'moraliser': 1, ...}}, u'PA1029': {u'noms': {u'bien': 1, u'honte': 1, u'int\\xe9ressant': 1, u'pas': 1, u'question': 1, u'volontaire': 1}, u'verbs': {u'apaiser': 1, u'falloir': 1, u'penser': 1}}, u'PA1198': {u'noms': {u'administratif': 1, u'adverse': 1, u'amendement': 4, u'ampleur': 1, u'amput\\xe9': 1, u'an': 1, u'annul\\xe9': 2, u'anonyme': 1, u'arrangement': 1, u'article': 2, ...}, u'verbs': {u'afficher': 1, u'allouer': 1, u'am\\xe9liorer': 1, u'apporter': 1, u'assurer': 1, u'avilir': 1, u'chercher': 1, u'citer': 1, u'combattre': 1, u'concourir': 1, ...}}, u'PA1206': {u'noms': {u'abandonn\\xe9': 1, u'aberration': 1, u'absolu': 1, u'acc\\xe9l\\xe9rateur': 1, u'acte': 1, u'activit\\xe9': 3, u'adopt\\xe9': 1, u'affaire': 1, u'agent': 1, u'alain': 2, ...}, u'verbs': {u'aborder': 1, u'aboutir': 1, u'accepter': 1, u'accuser': 1, u'adopter': 1, u'alimenter': 1, u'aller': 1, u'amuser': 1, u'am\\xe9liorer': 1, u'attaquer': 1, ...}}, u'PA1276': {u'noms': {u'accru': 1, u'acte': 2, u'action': 3, u'adopt\\xe9': 1, u'affaire': 1, u'an': 2, u'applicable': 1, u'assorti': 1, u'attentat': 1, u'auteur': 1, ...}, u'verbs': {u'arraisonner': 1, u'chuter': 1, u'cibler': 1, u'compromettre': 1, u'concerner': 2, u'conserver': 1, u'd\\xe9truire': 1, u'endommager': 1, u'entrer': 3, u'exprimer': 1, ...}}, u'PA1327': {u'noms': {u'pas': 1}, u'verbs': {}}, u'PA1498': {u'noms': {u'acte': 1, u'actuel': 1, u'affaire': 2, u'amendement': 1, u'am\\xe9lior\\xe9': 1, u'an': 1, u'annonce': 2, u'apatride': 1, u'applicable': 1, u'arbitrage': 1, ...}, u'verbs': {u'accentuer': 1, u'accepter': 1, u'accorder': 1, u'affirmer': 1, u'aller': 3, u'annoncer': 1, u'appartenir': 1, u'b\\xe9n\\xe9ficier': 1, u'chercher': 1, u'comprendre': 4, ...}}, u'PA1592': {u'noms': {u'abasourdi': 1, u'activit\\xe9': 2, u'administration': 1, u'adopt\\xe9': 1, u'affect\\xe9': 1, u'aller': 1, u'amendement': 3, u'application': 1, u'argument': 2, u'arr\\xeat\\xe9': 1, ...}, u'verbs': {u'accompagner': 1, u'adapter': 1, u'agir': 1, u'alimenter': 1, u'aller': 1, u'am\\xe9liorer': 1, u'appartenir': 1, u'associer': 1, u'attaquer': 1, u'attendre': 2, ...}}, u'PA1630': {u'noms': {u'business': 1, u'majorit\\xe9': 1, u'parler': 1, u'va': 1}, u'verbs': {u'choisir': 1}}, ...}"
p156
sS'deputes'
p157
S"{u'm.adrienmorenas': u'PA721876', u'm.adrienquatennens': u'PA720422', u'm.adrientaquet': u'PA722086', u'm.alainbruneel': u'PA720546', u'm.alaindavid': u'PA1008', u'm.alainperea': u'PA718802', u'm.alainramadier': u'PA721286', u'm.alaintourret': u'PA2828', u'm.alexandrefreschi': u'PA720030', u'm.alexandreholroyd': u'PA721150', ...}"
p158
sS'scrutins'
p159
S'[{u\'_id\': ObjectId(\'59aeedd08e5c9b10fc6f577d\'), u\'scrutin_date\': u\'12/07/2017\', u\'scrutin_desc\': u"l\'article 3 du projet de loi d\'habilitation \\x...ment du dialogue social (premi\\xe8re lecture). [", u\'scrutin_dossier\': u\'S-LEGANR5L15DLhabilitation_ordonnances_dialogue_social\', u\'scrutin_dossierLibelle\': u\'Travail : mesures pour le renforcement du dialogue social\\n\', u\'scrutin_fulldesc\': u"Scrutin n\\xb0 30 du 12/07/2017 : l\'article 3 d...ment du dialogue social (premi\\xe8re lecture). [", u\'scrutin_id\': u\'15_30\', u\'scrutin_liendossier\': u\'http://www.assemblee-nationale.fr/15/dossiers/habilitation_ordonnances_dialogue_social.asp\', u\'scrutin_lienscrutin\': u\'/scrutins/detail/(legislature)/15/(num)/30\', u\'scrutin_num\': 30, ...}, {u\'_id\': ObjectId(\'59aeedd08e5c9b10fc6f577e\'), u\'scrutin_date\': u\'13/07/2017\', u\'scrutin_desc\': u"l\'amendement n\\xb0 148 de M. Lachaud et l\'amen...ment du dialogue social (premi\\xe8re lecture). [", u\'scrutin_dossier\': u\'S-LEGANR5L15DLhabilitation_ordonnances_dialogue_social\', u\'scrutin_dossierLibelle\': u\'Travail : mesures pour le renforcement du dialogue social\\n\', u\'scrutin_fulldesc\': u"Scrutin n\\xb0 37 du 13/07/2017 : l\'amendement ...ment du dialogue social (premi\\xe8re lecture). [", u\'scrutin_id\': u\'15_37\', u\'scrutin_liendossier\': u\'http://www.assemblee-nationale.fr/15/dossiers/habilitation_ordonnances_dialogue_social.asp\', u\'scrutin_lienscrutin\': u\'/scrutins/detail/(legislature)/15/(num)/37\', u\'scrutin_num\': 37, ...}, {u\'_id\': ObjectId(\'59aeedd08e5c9b10fc6f5783\'), u\'scrutin_date\': u\'13/07/2017\', u\'scrutin_desc\': u"l\'amendement n\\xb0 385 de M. Dharr\\xe9ville ap...ment du dialogue social (premi\\xe8re lecture). [", u\'scrutin_dossier\': u\'S-LEGANR5L15DLhabilitation_ordonnances_dialogue_social\', u\'scrutin_dossierLibelle\': u\'Travail : mesures pour le renforcement du dialogue social\\n\', u\'scrutin_fulldesc\': u"Scrutin n\\xb0 47 du 13/07/2017 : l\'amendement ...ment du dialogue social (premi\\xe8re lecture). [", u\'scrutin_id\': u\'15_47\', u\'scrutin_liendossier\': u\'http://www.assemblee-nationale.fr/15/dossiers/habilitation_ordonnances_dialogue_social.asp\', u\'scrutin_lienscrutin\': u\'/scrutins/detail/(legislature)/15/(num)/47\', u\'scrutin_num\': 47, ...}, {u\'_id\': ObjectId(\'59aeedd08e5c9b10fc6f576b\'), u\'scrutin_date\': u\'26/07/2017\', u\'scrutin_desc\': u"l\'amendement n\\xb0 241 de M. Gosselin et l\'ame...ce dans la vie publique (premi\\xe8re lecture). [", u\'scrutin_dossier\': u\'S-LEGANR5L15DLretablissement_confiance_action_publique\', u\'scrutin_dossierLibelle\': u"Pouvoirs publics : confiance dans l\'action publique\\n", u\'scrutin_fulldesc\': u"Scrutin n\\xb0 72 du 26/07/2017 : l\'amendement ...ce dans la vie publique (premi\\xe8re lecture). [", u\'scrutin_id\': u\'15_72\', u\'scrutin_liendossier\': u\'http://www.assemblee-nationale.fr/15/dossiers/retablissement_confiance_action_publique.asp\', u\'scrutin_lienscrutin\': u\'/scrutins/detail/(legislature)/15/(num)/72\', u\'scrutin_num\': 72, ...}, {u\'_id\': ObjectId(\'59aeedd08e5c9b10fc6f576c\'), u\'scrutin_date\': u\'26/07/2017\', u\'scrutin_desc\': u"l\'amendement n\\xb0 169 de M. Bernalicis et l\'a...ce dans la vie publique (premi\\xe8re lecture). [", u\'scrutin_dossier\': u\'S-LEGANR5L15DLretablissement_confiance_action_publique\', u\'scrutin_dossierLibelle\': u"Pouvoirs publics : confiance dans l\'action publique\\n", u\'scrutin_fulldesc\': u"Scrutin n\\xb0 71 du 26/07/2017 : l\'amendement ...ce dans la vie publique (premi\\xe8re lecture). [", u\'scrutin_id\': u\'15_71\', u\'scrutin_liendossier\': u\'http://www.assemblee-nationale.fr/15/dossiers/retablissement_confiance_action_publique.asp\', u\'scrutin_lienscrutin\': u\'/scrutins/detail/(legislature)/15/(num)/71\', u\'scrutin_num\': 71, ...}, {u\'_id\': ObjectId(\'59aeedd08e5c9b10fc6f576d\'), u\'scrutin_date\': u\'26/07/2017\', u\'scrutin_desc\': u"l\'amendement n\\xb0 166 de M. Bernalicis et l\'a...ce dans la vie publique (premi\\xe8re lecture). [", u\'scrutin_dossier\': u\'S-LEGANR5L15DLretablissement_confiance_action_publique\', u\'scrutin_dossierLibelle\': u"Pouvoirs publics : confiance dans l\'action publique\\n", u\'scrutin_fulldesc\': u"Scrutin n\\xb0 70 du 26/07/2017 : l\'amendement ...ce dans la vie publique (premi\\xe8re lecture). [", u\'scrutin_id\': u\'15_70\', u\'scrutin_liendossier\': u\'http://www.assemblee-nationale.fr/15/dossiers/retablissement_confiance_action_publique.asp\', u\'scrutin_lienscrutin\': u\'/scrutins/detail/(legislature)/15/(num)/70\', u\'scrutin_num\': 70, ...}, {u\'_id\': ObjectId(\'59aeedd08e5c9b10fc6f576e\'), u\'scrutin_date\': u\'28/07/2017\', u\'scrutin_desc\': u"l\'amendement n\\xb0 377 de M. Vigier apr\\xe8s l...ce dans la vie publique (premi\\xe8re lecture). [", u\'scrutin_dossier\': u\'S-LEGANR5L15DLretablissement_confiance_action_publique\', u\'scrutin_dossierLibelle\': u"Pouvoirs publics : confiance dans l\'action publique\\n", u\'scrutin_fulldesc\': u"Scrutin n\\xb0 102 du 28/07/2017 : l\'amendement...ce dans la vie publique (premi\\xe8re lecture). [", u\'scrutin_id\': u\'15_102\', u\'scrutin_liendossier\': u\'http://www.assemblee-nationale.fr/15/dossiers/retablissement_confiance_action_publique.asp\', u\'scrutin_lienscrutin\': u\'/scrutins/detail/(legislature)/15/(num)/102\', u\'scrutin_num\': 102, ...}, {u\'_id\': ObjectId(\'59aeedd08e5c9b10fc6f5770\'), u\'scrutin_date\': u\'28/07/2017\', u\'scrutin_desc\': u"l\'amendement n\\xb0 223 de M. Aviragnet \\xe0 l\'...ce dans la vie publique (premi\\xe8re lecture). [", u\'scrutin_dossier\': u\'S-LEGANR5L15DLretablissement_confiance_action_publique\', u\'scrutin_dossierLibelle\': u"Pouvoirs publics : confiance dans l\'action publique\\n", u\'scrutin_fulldesc\': u"Scrutin n\\xb0 100 du 28/07/2017 : l\'amendement...ce dans la vie publique (premi\\xe8re lecture). [", u\'scrutin_id\': u\'15_100\', u\'scrutin_liendossier\': u\'http://www.assemblee-nationale.fr/15/dossiers/retablissement_confiance_action_publique.asp\', u\'scrutin_lienscrutin\': u\'/scrutins/detail/(legislature)/15/(num)/100\', u\'scrutin_num\': 100, ...}, {u\'_id\': ObjectId(\'59aeedd08e5c9b10fc6f5771\'), u\'scrutin_date\': u\'28/07/2017\', u\'scrutin_desc\': u"l\'amendement n\\xb0 259 de Mme Untermaier et le...ce dans la vie publique (premi\\xe8re lecture). [", u\'scrutin_dossier\': u\'S-LEGANR5L15DLretablissement_confiance_action_publique\', u\'scrutin_dossierLibelle\': u"Pouvoirs publics : confiance dans l\'action publique\\n", u\'scrutin_fulldesc\': u"Scrutin n\\xb0 101 du 28/07/2017 : l\'amendement...ce dans la vie publique (premi\\xe8re lecture). [", u\'scrutin_id\': u\'15_101\', u\'scrutin_liendossier\': u\'http://www.assemblee-nationale.fr/15/dossiers/retablissement_confiance_action_publique.asp\', u\'scrutin_lienscrutin\': u\'/scrutins/detail/(legislature)/15/(num)/101\', u\'scrutin_num\': 101, ...}, {u\'_id\': ObjectId(\'59aeedd08e5c9b10fc6f5776\'), u\'scrutin_date\': u\'13/07/2017\', u\'scrutin_desc\': u"l\'amendement n\\xb0 234 de M. Quatennens et les...ment du dialogue social (premi\\xe8re lecture). [", u\'scrutin_dossier\': u\'S-LEGANR5L15DLhabilitation_ordonnances_dialogue_social\', u\'scrutin_dossierLibelle\': u\'Travail : mesures pour le renforcement du dialogue social\\n\', u\'scrutin_fulldesc\': u"Scrutin n\\xb0 39 du 13/07/2017 : l\'amendement ...ment du dialogue social (premi\\xe8re lecture). [", u\'scrutin_id\': u\'15_39\', u\'scrutin_liendossier\': u\'http://www.assemblee-nationale.fr/15/dossiers/habilitation_ordonnances_dialogue_social.asp\', u\'scrutin_lienscrutin\': u\'/scrutins/detail/(legislature)/15/(num)/39\', u\'scrutin_num\': 39, ...}, {u\'_id\': ObjectId(\'59aeedd08e5c9b10fc6f5778\'), u\'scrutin_date\': u\'27/07/2017\', u\'scrutin_desc\': u"l\'amendement n\\xb0 34 de M. Reitzer \\xe0 l\'art...ublique            (premi\\xe8re lecture).       ", u\'scrutin_dossier\': u\'S-LEGANR5L15DLretablissement_confiance_action_publique\', u\'scrutin_dossierLibelle\': u"Pouvoirs publics : confiance dans l\'action publique\\n", u\'scrutin_fulldesc\': u"Scrutin n\\xb0 79 du 27/07/2017 : l\'amendement ...ublique            (premi\\xe8re lecture).       ", u\'scrutin_id\': u\'15_79\', u\'scrutin_liendossier\': u\'http://www.assemblee-nationale.fr/15/dossiers/retablissement_confiance_action_publique.asp\', u\'scrutin_lienscrutin\': u\'/scrutins/detail/(legislature)/15/(num)/79\', u\'scrutin_num\': 79, ...}, {u\'_id\': ObjectId(\'59aeedd08e5c9b10fc6f5779\'), u\'scrutin_date\': u\'11/07/2017\', u\'scrutin_desc\': u"l\'article premier du projet de loi d\'habilitat...ment du dialogue social (premi\\xe8re lecture). [", u\'scrutin_dossier\': u\'S-LEGANR5L15DLhabilitation_ordonnances_dialogue_social\', u\'scrutin_dossierLibelle\': u\'Travail : mesures pour le renforcement du dialogue social\\n\', u\'scrutin_fulldesc\': u"Scrutin n\\xb0 14 du 11/07/2017 : l\'article pre...ment du dialogue social (premi\\xe8re lecture). [", u\'scrutin_id\': u\'15_14\', u\'scrutin_liendossier\': u\'http://www.assemblee-nationale.fr/15/dossiers/habilitation_ordonnances_dialogue_social.asp\', u\'scrutin_lienscrutin\': u\'/scrutins/detail/(legislature)/15/(num)/14\', u\'scrutin_num\': 14, ...}, {u\'_id\': ObjectId(\'59aeedd08e5c9b10fc6f577a\'), u\'scrutin_date\': u\'13/07/2017\', u\'scrutin_desc\': u"l\'amendement n\\xb0215 de M. Quatennens apr\\xe8...ment du dialogue social (premi\\xe8re lecture). [", u\'scrutin_dossier\': u\'S-LEGANR5L15DLhabilitation_ordonnances_dialogue_social\', u\'scrutin_dossierLibelle\': u\'Travail : mesures pour le renforcement du dialogue social\\n\', u\'scrutin_fulldesc\': u"Scrutin n\\xb0 33 du 13/07/2017 : l\'amendement ...ment du dialogue social (premi\\xe8re lecture). [", u\'scrutin_id\': u\'15_33\', u\'scrutin_liendossier\': u\'http://www.assemblee-nationale.fr/15/dossiers/habilitation_ordonnances_dialogue_social.asp\', u\'scrutin_lienscrutin\': u\'/scrutins/detail/(legislature)/15/(num)/33\', u\'scrutin_num\': 33, ...}, {u\'_id\': ObjectId(\'59aeedd08e5c9b10fc6f577b\'), u\'scrutin_date\': u\'13/07/2017\', u\'scrutin_desc\': u"l\'amendement n\\xb0327 de M. Dharr\\xe9ville apr...ment du dialogue social (premi\\xe8re lecture). [", u\'scrutin_dossier\': u\'S-LEGANR5L15DLhabilitation_ordonnances_dialogue_social\', u\'scrutin_dossierLibelle\': u\'Travail : mesures pour le renforcement du dialogue social\\n\', u\'scrutin_fulldesc\': u"Scrutin n\\xb0 32 du 13/07/2017 : l\'amendement ...ment du dialogue social (premi\\xe8re lecture). [", u\'scrutin_id\': u\'15_32\', u\'scrutin_liendossier\': u\'http://www.assemblee-nationale.fr/15/dossiers/habilitation_ordonnances_dialogue_social.asp\', u\'scrutin_lienscrutin\': u\'/scrutins/detail/(legislature)/15/(num)/32\', u\'scrutin_num\': 32, ...}, {u\'_id\': ObjectId(\'59aeedd08e5c9b10fc6f577c\'), u\'scrutin_date\': u\'12/07/2017\', u\'scrutin_desc\': u"l\'amendement n\\xb0 318 de M. Dharr\\xe9ville ap...ment du dialogue social (premi\\xe8re lecture). [", u\'scrutin_dossier\': u\'S-LEGANR5L15DLhabilitation_ordonnances_dialogue_social\', u\'scrutin_dossierLibelle\': u\'Travail : mesures pour le renforcement du dialogue social\\n\', u\'scrutin_fulldesc\': u"Scrutin n\\xb0 31 du 12/07/2017 : l\'amendement ...ment du dialogue social (premi\\xe8re lecture). [", u\'scrutin_id\': u\'15_31\', u\'scrutin_liendossier\': u\'http://www.assemblee-nationale.fr/15/dossiers/habilitation_ordonnances_dialogue_social.asp\', u\'scrutin_lienscrutin\': u\'/scrutins/detail/(legislature)/15/(num)/31\', u\'scrutin_num\': 31, ...}, {u\'_id\': ObjectId(\'59aeedd08e5c9b10fc6f577f\'), u\'scrutin_date\': u\'13/07/2017\', u\'scrutin_desc\': u"l\'amendement n\\xb0 475 de M. Vallaud apr\\xe8s ...ment du dialogue social (premi\\xe8re lecture). [", u\'scrutin_dossier\': u\'S-LEGANR5L15DLhabilitation_ordonnances_dialogue_social\', u\'scrutin_dossierLibelle\': u\'Travail : mesures pour le renforcement du dialogue social\\n\', u\'scrutin_fulldesc\': u"Scrutin n\\xb0 36 du 13/07/2017 : l\'amendement ...ment du dialogue social (premi\\xe8re lecture). [", u\'scrutin_id\': u\'15_36\', u\'scrutin_liendossier\': u\'http://www.assemblee-nationale.fr/15/dossiers/habilitation_ordonnances_dialogue_social.asp\', u\'scrutin_lienscrutin\': u\'/scrutins/detail/(legislature)/15/(num)/36\', u\'scrutin_num\': 36, ...}, {u\'_id\': ObjectId(\'59aeedd08e5c9b10fc6f5780\'), u\'scrutin_date\': u\'13/07/2017\', u\'scrutin_desc\': u"l\'amendement n\\xb0 330 de M. Dharr\\xe9ville ap...ment du dialogue social (premi\\xe8re lecture). [", u\'scrutin_dossier\': u\'S-LEGANR5L15DLhabilitation_ordonnances_dialogue_social\', u\'scrutin_dossierLibelle\': u\'Travail : mesures pour le renforcement du dialogue social\\n\', u\'scrutin_fulldesc\': u"Scrutin n\\xb0 35 du 13/07/2017 : l\'amendement ...ment du dialogue social (premi\\xe8re lecture). [", u\'scrutin_id\': u\'15_35\', u\'scrutin_liendossier\': u\'http://www.assemblee-nationale.fr/15/dossiers/habilitation_ordonnances_dialogue_social.asp\', u\'scrutin_lienscrutin\': u\'/scrutins/detail/(legislature)/15/(num)/35\', u\'scrutin_num\': 35, ...}, {u\'_id\': ObjectId(\'59aeedd08e5c9b10fc6f5781\'), u\'scrutin_date\': u\'13/07/2017\', u\'scrutin_desc\': u"l\'amendement n\\xb0335 de M. Dharr\\xe9ville apr...ment du dialogue social (premi\\xe8re lecture). [", u\'scrutin_dossier\': u\'S-LEGANR5L15DLhabilitation_ordonnances_dialogue_social\', u\'scrutin_dossierLibelle\': u\'Travail : mesures pour le renforcement du dialogue social\\n\', u\'scrutin_fulldesc\': u"Scrutin n\\xb0 34 du 13/07/2017 : l\'amendement ...ment du dialogue social (premi\\xe8re lecture). [", u\'scrutin_id\': u\'15_34\', u\'scrutin_liendossier\': u\'http://www.assemblee-nationale.fr/15/dossiers/habilitation_ordonnances_dialogue_social.asp\', u\'scrutin_lienscrutin\': u\'/scrutins/detail/(legislature)/15/(num)/34\', u\'scrutin_num\': 34, ...}, {u\'_id\': ObjectId(\'59aeedd08e5c9b10fc6f5782\'), u\'scrutin_date\': u\'26/07/2017\', u\'scrutin_desc\': u"l\'amendement n\\xb0 601 de M. Furst apr\\xe8s l\'...ce dans la vie publique (premi\\xe8re lecture). [", u\'scrutin_dossier\': u\'S-LEGANR5L15DLretablissement_confiance_action_publique\', u\'scrutin_dossierLibelle\': u"Pouvoirs publics : confiance dans l\'action publique\\n", u\'scrutin_fulldesc\': u"Scrutin n\\xb0 74 du 26/07/2017 : l\'amendement ...ce dans la vie publique (premi\\xe8re lecture). [", u\'scrutin_id\': u\'15_74\', u\'scrutin_liendossier\': u\'http://www.assemblee-nationale.fr/15/dossiers/retablissement_confiance_action_publique.asp\', u\'scrutin_lienscrutin\': u\'/scrutins/detail/(legislature)/15/(num)/74\', u\'scrutin_num\': 74, ...}, {u\'_id\': ObjectId(\'59aeedd08e5c9b10fc6f5720\'), u\'scrutin_date\': u\'12/07/2017\', u\'scrutin_desc\': u"l\'amendement n\\xb0 160 de M. Prud\'homme et les...ment du dialogue social (premi\\xe8re lecture). [", u\'scrutin_dossier\': u\'S-LEGANR5L15DLhabilitation_ordonnances_dialogue_social\', u\'scrutin_dossierLibelle\': u\'Travail : mesures pour le renforcement du dialogue social\\n\', u\'scrutin_fulldesc\': u"Scrutin n\\xb0 28 du 12/07/2017 : l\'amendement ...ment du dialogue social (premi\\xe8re lecture). [", u\'scrutin_id\': u\'15_28\', u\'scrutin_liendossier\': u\'http://www.assemblee-nationale.fr/15/dossiers/habilitation_ordonnances_dialogue_social.asp\', u\'scrutin_lienscrutin\': u\'/scrutins/detail/(legislature)/15/(num)/28\', u\'scrutin_num\': 28, ...}, ...]'
p160
sS'newmots'
p161
S"{u'PA1008': {}, u'PA1012': {}, u'PA1029': {}, u'PA1198': {}, u'PA1206': {}, u'PA1276': {}, u'PA1327': {}, u'PA1498': {}, u'PA1592': {}, u'PA1630': {}, ...}"
p162
sS'interventions'
p163
S"[{u'contenu': u'<p>Monsieur le Premier ministre, avant-hier, a...<i>bancs</i><i> du groupe\\xa0LC.</i><i>)</i></p>', u'contexte': [u'S\\xe9ance du mercredi 19 juillet 2017', u'1. Questions au Gouvernement', u'Conf\\xe9rence nationale des territoires'], u'ctx_idx': 1, u'date': u'2017-07-19', u'depute_id': u'PA1960', u'id': u'20171015.asp1', u'n': 1, u'nbmots': 70, u'nom': u'm.mauriceleroy', u'session_id': u'20171015.asp', ...}, {u'contenu': u'<p>Excellente id\\xe9e\\xa0!</p>', u'contexte': [u'S\\xe9ance du mercredi 19 juillet 2017', u'1. Questions au Gouvernement', u'Conf\\xe9rence nationale des territoires'], u'ctx_idx': 2, u'date': u'2017-07-19', u'depute_id': u'PA722202', u'id': u'20171015.asp2', u'n': 2, u'nbmots': 4, u'nom': u'm.sebastienjumel', u'session_id': u'20171015.asp', ...}, {u'contenu': u'<p>Oui, il est n\\xe9cessaire de recr\\xe9er une...c9tat et les collectivit\\xe9s territoriales.</p>', u'contexte': [u'S\\xe9ance du mercredi 19 juillet 2017', u'1. Questions au Gouvernement', u'Conf\\xe9rence nationale des territoires'], u'ctx_idx': 3, u'date': u'2017-07-19', u'depute_id': u'PA1960', u'id': u'20171015.asp3', u'n': 3, u'nbmots': 18, u'nom': u'm.mauriceleroy', u'session_id': u'20171015.asp', ...}, {u'contenu': u'<p>C\\u2019est mal barr\\xe9\\xa0!</p>', u'contexte': [u'S\\xe9ance du mercredi 19 juillet 2017', u'1. Questions au Gouvernement', u'Conf\\xe9rence nationale des territoires'], u'ctx_idx': 4, u'date': u'2017-07-19', u'depute_id': u'PA267378', u'id': u'20171015.asp4', u'n': 4, u'nbmots': 5, u'nom': u'mmegenevievelevy', u'session_id': u'20171015.asp', ...}, {u'contenu': u'<p>Mais cela passe par des efforts r\\xe9partis...nomies. <i>(M\\xeames mouvements.)</i><i></i></p>', u'contexte': [u'S\\xe9ance du mercredi 19 juillet 2017', u'1. Questions au Gouvernement', u'Conf\\xe9rence nationale des territoires'], u'ctx_idx': 5, u'date': u'2017-07-19', u'depute_id': u'PA1960', u'id': u'20171015.asp5', u'n': 5, u'nbmots': 47, u'nom': u'm.mauriceleroy', u'session_id': u'20171015.asp', ...}, {u'contenu': u'<p>C\\u2019est vrai\\xa0!</p>', u'contexte': [u'S\\xe9ance du mercredi 19 juillet 2017', u'1. Questions au Gouvernement', u'Conf\\xe9rence nationale des territoires'], u'ctx_idx': 6, u'date': u'2017-07-19', u'depute_id': u'PA1838', u'id': u'20171015.asp6', u'n': 6, u'nbmots': 4, u'nom': u'm.\\xa0jeanlassalleetmme\\xa0jeaninedubie', u'session_id': u'20171015.asp', ...}, {u'contenu': u'<p>Oui, il faut un contrat, monsieur le Premie...LC et sur plusieurs bancs du groupe LR.)</i></p>', u'contexte': [u'S\\xe9ance du mercredi 19 juillet 2017', u'1. Questions au Gouvernement', u'Conf\\xe9rence nationale des territoires'], u'ctx_idx': 7, u'date': u'2017-07-19', u'depute_id': u'PA1960', u'id': u'20171015.asp7', u'n': 7, u'nbmots': 139, u'nom': u'm.mauriceleroy', u'session_id': u'20171015.asp', ...}, {u'contenu': u'<p>Il ne sait pas ce qu\\u2019est la ruralit\\xe9\\xa0!</p>', u'contexte': [u'S\\xe9ance du mercredi 19 juillet 2017', u'1. Questions au Gouvernement', u'Conf\\xe9rence nationale des territoires'], u'ctx_idx': 1, u'date': u'2017-07-19', u'depute_id': u'PA642847', u'id': u'20171015.asp8', u'n': 8, u'nbmots': 10, u'nom': u'm.thibaultbazin', u'session_id': u'20171015.asp', ...}, {u'contenu': u'<p>Monsieur le d\\xe9put\\xe9, vous avez raison ...e suis s\\u2019en r\\xe9jouit profond\\xe9ment.</p>', u'contexte': [u'S\\xe9ance du mercredi 19 juillet 2017', u'1. Questions au Gouvernement', u'Conf\\xe9rence nationale des territoires'], u'ctx_idx': 2, u'date': u'2017-07-19', u'depute_id': u'PA906', u'id': u'20171015.asp9', u'n': 9, u'nbmots': 59, u'nom': u'm.gerardcollomb', u'session_id': u'20171015.asp', ...}, {u'contenu': u'<p>Nous aussi\\xa0! Jusque l\\xe0 dans la r\\xe9ponse, \\xe7a va\\xa0!</p>', u'contexte': [u'S\\xe9ance du mercredi 19 juillet 2017', u'1. Questions au Gouvernement', u'Conf\\xe9rence nationale des territoires'], u'ctx_idx': 3, u'date': u'2017-07-19', u'depute_id': u'PA330240', u'id': u'20171015.asp10', u'n': 10, u'nbmots': 11, u'nom': u'm.ericciotti', u'session_id': u'20171015.asp', ...}, {u'contenu': u'<p>Je me souviens que la baisse de la dotation...tante \\u2013\\xa0vous l\\u2019avez rappel\\xe9.</p>', u'contexte': [u'S\\xe9ance du mercredi 19 juillet 2017', u'1. Questions au Gouvernement', u'Conf\\xe9rence nationale des territoires'], u'ctx_idx': 4, u'date': u'2017-07-19', u'depute_id': u'PA906', u'id': u'20171015.asp11', u'n': 11, u'nbmots': 24, u'nom': u'm.gerardcollomb', u'session_id': u'20171015.asp', ...}, {u'contenu': u'<p>Vous ne r\\xe9pondez pas \\xe0 la question\\xa0!</p>', u'contexte': [u'S\\xe9ance du mercredi 19 juillet 2017', u'1. Questions au Gouvernement', u'Conf\\xe9rence nationale des territoires'], u'ctx_idx': 5, u'date': u'2017-07-19', u'depute_id': u'PA1695', u'id': u'20171015.asp12', u'n': 12, u'nbmots': 9, u'nom': u'm.christianjacob', u'session_id': u'20171015.asp', ...}, {u'contenu': u'<p>Vous avez pu constater que nous avons chois...s dotations de 20\\xa0milliards d\\u2019euros.</p>', u'contexte': [u'S\\xe9ance du mercredi 19 juillet 2017', u'1. Questions au Gouvernement', u'Conf\\xe9rence nationale des territoires'], u'ctx_idx': 6, u'date': u'2017-07-19', u'depute_id': u'PA906', u'id': u'20171015.asp13', u'n': 13, u'nbmots': 52, u'nom': u'm.gerardcollomb', u'session_id': u'20171015.asp', ...}, {u'contenu': u'<p>En l\\u2019esp\\xe8ce, il s\\u2019agit de 13\\x...dissements sur les bancs du groupe REM.)</i></p>', u'contexte': [u'S\\xe9ance du mercredi 19 juillet 2017', u'1. Questions au Gouvernement', u'Conf\\xe9rence nationale des territoires'], u'ctx_idx': 7, u'date': u'2017-07-19', u'depute_id': u'PA906', u'id': u'20171015.asp14', u'n': 14, u'nbmots': 34, u'nom': u'm.gerardcollomb', u'session_id': u'20171015.asp', ...}, {u'contenu': u'<p>C\\u2019\\xe9tait 10\\xa0milliards, avant\\xa0!</p>', u'contexte': [u'S\\xe9ance du mercredi 19 juillet 2017', u'1. Questions au Gouvernement', u'Conf\\xe9rence nationale des territoires'], u'ctx_idx': 8, u'date': u'2017-07-19', u'depute_id': u'PA333818', u'id': u'20171015.asp15', u'n': 15, u'nbmots': 5, u'nom': u'm.christianhutin', u'session_id': u'20171015.asp', ...}, {u'contenu': u'<p>Vous sugg\\xe9riez, monsieur le d\\xe9put\\xe9...><i>groupe</i><i>s REM et MODEM.</i><i>)</i></p>', u'contexte': [u'S\\xe9ance du mercredi 19 juillet 2017', u'1. Questions au Gouvernement', u'Conf\\xe9rence nationale des territoires'], u'ctx_idx': 9, u'date': u'2017-07-19', u'depute_id': u'PA906', u'id': u'20171015.asp16', u'n': 16, u'nbmots': 26, u'nom': u'm.gerardcollomb', u'session_id': u'20171015.asp', ...}, {u'contenu': u'<p>Monsieur le ministre de la coh\\xe9sion des ...onf\\xe9rence nationale des territoires\\u2026</p>', u'contexte': [u'S\\xe9ance du mercredi 19 juillet 2017', u'1. Questions au Gouvernement', u'Conf\\xe9rence nationale des territoires'], u'ctx_idx': 1, u'date': u'2017-07-19', u'depute_id': u'PA719890', u'id': u'20171015.asp17', u'n': 17, u'nbmots': 24, u'nom': u'mmedaniellebrulebois', u'session_id': u'20171015.asp', ...}, {u'contenu': u'<p>Une nouvelle question t\\xe9l\\xe9phon\\xe9e\\u2026</p>', u'contexte': [u'S\\xe9ance du mercredi 19 juillet 2017', u'1. Questions au Gouvernement', u'Conf\\xe9rence nationale des territoires'], u'ctx_idx': 2, u'date': u'2017-07-19', u'depute_id': u'PA608416', u'id': u'20171015.asp18', u'n': 18, u'nbmots': 6, u'nom': u'm.patrickhetzel', u'session_id': u'20171015.asp', ...}, {u'contenu': u'<p>\\u2026en pr\\xe9sence de M.\\xa0le Pr\\xe9side...es </i><i>bancs du groupe LR)\\xa0</i>:\\u2026</p>', u'contexte': [u'S\\xe9ance du mercredi 19 juillet 2017', u'1. Questions au Gouvernement', u'Conf\\xe9rence nationale des territoires'], u'ctx_idx': 3, u'date': u'2017-07-19', u'depute_id': u'PA719890', u'id': u'20171015.asp19', u'n': 19, u'nbmots': 60, u'nom': u'mmedaniellebrulebois', u'session_id': u'20171015.asp', ...}, {u'contenu': u'<p>Son cat\\xe9chisme\\xa0!</p>', u'contexte': [u'S\\xe9ance du mercredi 19 juillet 2017', u'1. Questions au Gouvernement', u'Conf\\xe9rence nationale des territoires'], u'ctx_idx': 4, u'date': u'2017-07-19', u'depute_id': u'PA605036', u'id': u'20171015.asp20', u'n': 20, u'nbmots': 4, u'nom': u'm.damienabad', u'session_id': u'20171015.asp', ...}, ...]"
p164
sS'k'
S"u'PA721474'"
p165
sS'sessions'
p166
S"{u'http://www.assemblee-nationale.fr/15/cri/2016-2017-extra/20171001.asp': {}, u'http://www.assemblee-nationale.fr/15/cri/2016-2017-extra/20171002.asp': {}, u'http://www.assemblee-nationale.fr/15/cri/2016-2017-extra/20171003.asp': {u'13': u'P983160', u'14': u'P983274', u'15': u'P983301', u'16': u'P983307', u'21': u'P983314', u'24': u'P983320', u'25': u'P983290'}, u'http://www.assemblee-nationale.fr/15/cri/2016-2017-extra/20171004.asp': {u'10': u'P983245', u'11': u'P983399', u'12': u'P983263', u'19': u'P983085', u'2': u'P983184', u'20': u'P983045', u'23': u'P983440', u'3': u'P983069', u'4': u'P983067', u'5': u'P983409', ...}, u'http://www.assemblee-nationale.fr/15/cri/2016-2017-extra/20171005.asp': {}, u'http://www.assemblee-nationale.fr/15/cri/2016-2017-extra/20171006.asp': {u'113': u'P984712', u'120': u'P985152', u'121': u'P985082', u'122': u'P985065', u'123': u'P984513', u'124': u'P984971', u'125': u'P984942', u'126': u'P984963', u'13': u'P984883', u'130': u'P985100', ...}, u'http://www.assemblee-nationale.fr/15/cri/2016-2017-extra/20171007.asp': {u'1': u'P985872', u'109': u'P987075', u'116': u'P986081', u'117': u'P985794', u'118': u'P985880', u'119': u'P985761', u'12': u'P987066', u'128': u'P986167', u'15': u'P986519', u'168': u'P985683', ...}, u'http://www.assemblee-nationale.fr/15/cri/2016-2017-extra/20171008.asp': {u'112': u'P987427', u'114': u'P987411', u'115': u'P987288', u'162': u'P987466', u'163': u'P987134', u'179': u'P987363', u'192': u'P986938', u'240': u'P987685', u'241': u'P987516', u'242': u'P987643', ...}, u'http://www.assemblee-nationale.fr/15/cri/2016-2017-extra/20171009.asp': {u'101': u'P989201', u'102': u'P989400', u'108': u'P989133', u'110': u'P988775', u'147': u'P988211', u'150': u'P988644', u'151': u'P988677', u'153': u'P988783', u'154': u'P989377', u'155': u'P988709', ...}, u'http://www.assemblee-nationale.fr/15/cri/2016-2017-extra/20171010.asp': {u'107': u'P988891', u'127': u'P990088', u'135': u'P990112', u'142': u'P989424', u'146': u'P990048', u'152': u'P989077', u'156': u'P989483', u'158': u'P989436', u'159': u'P989062', u'160': u'P988988', ...}, ...}"
p167
sS'cptrd'
p168
S"u'http://www.assemblee-nationale.fr/15/cri/2016-2017/20170127.asp'"
p169
sS'nid'
p170
S'None'
p171
sS'lex'
p172
S"u'noms'"
p173
sS's'
S'{u\'_id\': ObjectId(\'59aeedd08e5c9b10fc6f572f\'), u\'scrutin_date\': u\'28/07/2017\', u\'scrutin_desc\': u"l\'article 9 du projet de loi organique pour la...ce dans la vie publique (premi\\xe8re lecture). [", u\'scrutin_dossier\': u\'S-LEGANR5L15DLretablissement_confiance_action_publique\', u\'scrutin_dossierLibelle\': u"Pouvoirs publics : confiance dans l\'action publique\\n", u\'scrutin_fulldesc\': u"Scrutin n\\xb0 94 du 28/07/2017 : l\'article 9 d...ce dans la vie publique (premi\\xe8re lecture). [", u\'scrutin_id\': u\'15_94\', u\'scrutin_liendossier\': u\'http://www.assemblee-nationale.fr/15/dossiers/retablissement_confiance_action_publique.asp\', u\'scrutin_lienscrutin\': u\'/scrutins/detail/(legislature)/15/(num)/94\', u\'scrutin_num\': 94, ...}'
p174
sS'lexique_path'
p175
S"'/home/www-data/web2py/applications/obsas_dev/private/lexiques.json'"
p176
sS'v'
S"{u'noms': {u'accompli': 1, u'accord\\xe9': 1, u'acte': 3, u'allemagne': 1, u'al\\xe9a': 1, u'amendement': 6, u'amont': 1, u'automatique': 2, u'bien': 1, u'bonne': 2, ...}, u'verbs': {u'acc\\xe9der': 1, u'admettre': 1, u'associer': 1, u'b\\xe9n\\xe9ficier': 2, u'citer': 1, u'clarifier': 1, u'concerner': 1, u'conna\\xeetre': 1, u'consid\\xe9rer': 1, u'devoir': 3, ...}}"
p177
sS'itv'
p178
S"{u'contenu': u'<p>Je tiens simplement \\xe0 remercier particul...sur les bancs des groupes REM et MODEM.)</i></p>', u'contexte': [u'S\\xe9ance du mercredi 09 ao\\xfbt 2017', u'3. Confiance dans la vie politique', u'Vote sur l\\u2019ensemble', u'Suspension et reprise de la s\\xe9ance'], u'ctx_idx': 1, u'date': u'2017-08-09', u'depute_id': u'PA702191', u'id': u'20171033.asp565', u'n': 565, u'nbmots': 48, u'nom': u'mmenicolebelloubet', u'session_id': u'20171033.asp', ...}"
p179
sS'bal'
p180
S"u'P988709'"
p181
sS'balises'
p182
S"{u'101': u'P989201', u'102': u'P989400', u'108': u'P989133', u'110': u'P988775', u'147': u'P988211', u'150': u'P988644', u'151': u'P988677', u'153': u'P988783', u'154': u'P989377', u'155': u'P988709', ...}"
p183
sssS'traceback'
p184
S'Traceback (most recent call last):\n  File "/home/www-data/web2py/gluon/restricted.py", line 219, in restricted\n    exec(ccode, environment)\n  File "/home/www-data/web2py/applications/obsas_dev/controllers/maintenance.py", line 250, in <module>\n  File "/home/www-data/web2py/gluon/globals.py", line 409, in <lambda>\n    self._caller = lambda f: f()\n  File "/home/www-data/web2py/applications/obsas_dev/controllers/maintenance.py", line 138, in updateSessions\n    for mot,nb in v[lex]:\nValueError: too many values to unpack\n'
p185
s.