(dp1
S'output'
p2
S"<type 'exceptions.NameError'> name 'resultpos' is not defined"
p3
sS'layer'
p4
S'/home/www-data/web2py/applications/obsas_dev/views/analyse/vueaxe.html'
p5
sS'code'
p6
S'response.write(\'<div class="row">\\n   <div class="col s12">\\n     <h5>\', escape=False)\nresponse.write(nbscrutins)\nresponse.write(\' scrutin(s)</h5>\\n   </div>\\n</div>\\n<div class="row">\\n  <div class="col s12">\\n        <select id="axe" class="updateview">\\n         \', escape=False)\nfor a in axes_choix:\n    response.write(\'\\n            <option value="\', escape=False)\n    response.write(a[0])\n    response.write(\'" \', escape=False)\n    if axe==a[0]:\n        response.write(\'selected\', escape=False)\n        pass\n    response.write(\'>\', escape=False)\n    response.write(a[1])\n    response.write(\'</option>\\n         \', escape=False)\n    pass\nresponse.write(\'\\n         </select>\\n         <label>Votes par</label>\\n   </div>\\n </div>\\n</div>\\n<div class="row">\\n  <div class="input-field col s4 m3">\\n     <select id="suffrages" class="updateview">\\n         \', escape=False)\nfor suf in suffrages_choix:\n    response.write(\'\\n            <option value="\', escape=False)\n    response.write(suf[0])\n    response.write(\'" \', escape=False)\n    if suffrages==suf[0]:\n        response.write(\'selected\', escape=False)\n        pass\n    response.write(\'>\', escape=False)\n    response.write(suf[1])\n    response.write(\'</option>\\n         \', escape=False)\n    pass\nresponse.write(\'\\n     </select>\\n     <label>Suffrages</label>\\n  </div>\\n  <div class="input-field col s4 m3">\\n     <select id="tri" class="updateview">\\n         \', escape=False)\nfor t in tris_choix:\n    response.write(\'\\n            <option value="\', escape=False)\n    response.write(t[0])\n    response.write(\'" \', escape=False)\n    if tri==t[0]:\n        response.write(\'selected\', escape=False)\n        pass\n    response.write(\'>\', escape=False)\n    response.write(t[1])\n    response.write(\'</option>\\n         \', escape=False)\n    pass\nresponse.write(\'\\n     </select>\\n     <label>Trier par</label>\\n  </div>\\n  <div class="col s4 m6">\\n      <i id="sens" class="small material-icons right" style="cursor: pointer;">swap_vert</i>\\n  </div>\\n</div>\\n<div id="\', escape=False)\nresponse.write(axe)\nresponse.write(\'" class="row">\\n  <input class="search" placeholder="Recherche">\\n  <ul  class="col s12 list">\\n    \', escape=False)\nimport json\nresponse.write(\'\\n    \', escape=False)\nfor i,item in enumerate(items):\n    response.write(\'\\n    <li>\\n    <div class="card" style="background:#F0F0F0">\\n    <div class="card-content">\\n       <div class="row">\\n              \', escape=False)\n    if (\'G\' in elements) and (len(items)<30):\n        response.write(\'\\n          <div class="col s8 m6 offset-s2 offset-m3 l3">\\n             <canvas vals="\', escape=False)\n        response.write(json.dumps([ item[\'stats\'][suffrages].get(pos,{\'n\':0})[\'n\'] for pos in [\'pour\',\'contre\',\'abstention\',\'nonVotant\',\'absent\']]))\n        response.write(\'" class="itemchart"></canvas>\\n          </div>\\n          <div class="col s12 m12 l9">\\n              \', escape=False)\n    elif (\'P\' in elements):\n        response.write(\'\\n          <div class="col s8 m6 offset-s2 offset-m3 l3">\\n              \\n             <img src="http://www2.assemblee-nationale.fr/static/tribun/15/photos/\', escape=False)\n        response.write(item[\'key\'][2:])\n        response.write(\'.jpg" />\\n          </div>\\n          <div class="col s12 m12 l9">\\n              \', escape=False)\n    else:\n        response.write(\'\\n          <div class="col s12">\\n              \', escape=False)\n        pass\n    response.write(\'\\n              <span class="card-title" style="font-weight:500;"><span class="slibelle">\', escape=False)\n    if axe==\'scrutin\':\n        response.write(\'<span>\', escape=False)\n        response.write(resultpos)\n        response.write(\'</span>\', escape=False)\n        pass\n    response.write(item[\'label\'])\n    response.write(\'</span>\\n              \', escape=False)\n    if axe==\'depute\':\n        response.write(\'<span class="coul\', escape=False)\n        response.write(item[\'groupe_abrev\'])\n        response.write(\'-text" style="font-size:60%">(\', escape=False)\n        response.write(item[\'groupe_libelle\'])\n        response.write(\')</span><span class="ranking right">\', escape=False)\n        response.write(i+1)\n        response.write(\'</span>\\n              \', escape=False)\n    elif axe!=\'scrutin\':\n        response.write(\'<span style="font-size:60%">\', escape=False)\n        response.write(item[\'deputes\'])\n        response.write(\' d\\xc3\\xa9put\\xc3\\xa9e(s))</span>\', escape=False)\n        pass\n    response.write(\'</span>\\n              <span><span style="font-weight:300;">Votes\', escape=False)\n    if suffrages==\'exprime\':\n        response.write(\' exprim\\xc3\\xa9s (\', escape=False)\n        response.write(item[\'votants\'])\n        response.write(\')\', escape=False)\n        pass\n    response.write(\'</span>\\n              <span class=\\\'right\\\' style="font-weight:300;">Participation</span></span>\\n                <span class="card-title">\\n                \', escape=False)\n    for pos in [\'pour\',\'contre\',\'abstention\',\'nonVotant\',\'absent\']:\n        response.write(\'\\n                \', escape=False)\n        stat = item[\'stats\'][suffrages].get(pos,None)\n        response.write(\'\\n                \', escape=False)\n        if stat and stat[\'pct\']>0:\n            response.write(\'\\n                   <span title="\', escape=False)\n            response.write(stat[\'libelle\'])\n            response.write(\'" class="\', escape=False)\n            response.write(stat[\'class\'])\n            response.write(\' \', escape=False)\n            response.write(pos)\n            response.write(\'-text">\\n                       <i class="fa fa-\', escape=False)\n            response.write(stat[\'icon\'])\n            response.write(\'"></i> \', escape=False)\n            response.write(stat[\'pct\'])\n            response.write(\'%\', escape=False)\n            if nbscrutins:\n                response.write(\' <span style="font-size:60%">(\', escape=False)\n                response.write(stat[\'n\' if (axe!=\'depute\' and axe!=\'scrutin\') else \'ntot\'])\n                response.write(\')</span>\', escape=False)\n                pass\n            response.write(\'\\n                   </span>\\n                \', escape=False)\n            pass\n        response.write(\'\\n                \', escape=False)\n        pass\n    response.write(\'\\n                   <span title="Participation" class="pctBig right"> \', escape=False)\n    response.write(item[\'participation\'])\n    response.write(\'%</span>\\n               </span>\\n               <div>\\n               \', escape=False)\n    if nbscrutins==1:\n        response.write(\'\\n                 \', escape=False)\n        for cercle in item[\'cercles\']:\n            response.write(\'\\n                   <a class="vcircle \', escape=False)\n            response.write(cercle[\'position\'])\n            response.write(\'" title="\', escape=False)\n            response.write(cercle[\'nom\'])\n            response.write(\'" href="acteurs/\', escape=False)\n            response.write(cercle[\'uid\'])\n            response.write(\'.html" ></a>\\n                 \', escape=False)\n            pass\n        response.write(\'\\n               \', escape=False)\n        pass\n    response.write(\'\\n               </div>\\n            </div>\\n        </div>\\n      \\n      </div>\\n    </div\\n  </div>\\n  </li>\\n  \', escape=False)\n    pass\nresponse.write("\\n</ul>\\n</div>\\n<script>\\n    var sList = new List(\'", escape=False)\nresponse.write(axe)\nresponse.write(\'\\\',{ valueNames: [\\\'slibelle\\\']});\\n    var current_suffrages = "\', escape=False)\nresponse.write(suffrages)\nresponse.write(\'";\\n    var current_tri = "\', escape=False)\nresponse.write(tri)\nresponse.write(\'";\\n    var current_axe = "\', escape=False)\nresponse.write(axe)\nresponse.write(\'";\\n    var current_desc = \', escape=False)\nresponse.write(desc)\nresponse.write(";\\n    var current_filtres = JSON.parse(\'", escape=False)\nresponse.write(XML(filtres))\nresponse.write(\'\\\');\\n    \\n    $(".itemchart").each(function() {\\n        var ctx = $(this);\\n        var vals = ctx.attr(\\\'vals\\\');\\n        var randomScalingFactor = function() {\\n         return Math.round(Math.random() * 100);\\n        };\\n        var data = JSON.parse(vals);\\n        \\n        var myChart = new Chart(ctx, {\\n         type: \\\'doughnut\\\',\\n         data: {\\n             datasets: [{\\n                 data: data,\\n                 backgroundColor: [\\n                     "green",\\n                     "red",\\n                     "dodgerblue",\\n                     "grey",\\n                     "grey",\\n                 ],\\n                 label: \\\'Dataset 1\\\'\\n             }],\\n             labels:[\\\'Pour\\\',\\\'Contre\\\',\\\'Abstention\\\',\\\'Non votant\\\',\\\'Absent\\\']\\n\\n         },\\n         options: {\\n             responsive: true,\\n             legend: {\\n                 display: false\\n             },\\n             title: {\\n                 display: true,\\n                 text: \\\'R\\xc3\\xa9partition par position de vote\\\'\\n             },\\n             animation: {\\n                 animateScale: false,\\n                 animateRotate: false,\\n             },\\n             tooltips: {\\n                  callbacks: {\\n                    label: function(tooltipItem, data) {\\n                      var allData = data.datasets[tooltipItem.datasetIndex].data;\\n                      var tooltipLabel = data.labels[tooltipItem.index];\\n                      var tooltipData = allData[tooltipItem.index];\\n                      var total = 0;\\n                      for (var i in allData) {\\n                        total += allData[i];\\n                      }\\n                      var tooltipPercentage = Math.round((tooltipData / total) * 100);\\n                      return tooltipLabel + \\\': \\\' + tooltipData + \\\' (\\\' + tooltipPercentage + \\\'%)\\\';\\n                    }\\n                  }\\n              }\\n         }\\n       });\\n    });\\n</script>\\n\', escape=False)'
p7
sS'snapshot'
p8
(dp9
S'exception'
p10
(dp11
S'__getslice__'
p12
S"<method-wrapper '__getslice__' of exceptions.NameError object>"
p13
sS'__str__'
p14
S"<method-wrapper '__str__' of exceptions.NameError object>"
p15
sS'__reduce__'
p16
S'<built-in method __reduce__ of exceptions.NameError object>'
p17
sS'__dict__'
p18
S'{}'
p19
sS'message'
p20
S'"name \'resultpos\' is not defined"'
p21
sS'__sizeof__'
p22
S'<built-in method __sizeof__ of exceptions.NameError object>'
p23
sS'__init__'
p24
S"<method-wrapper '__init__' of exceptions.NameError object>"
p25
sS'__setattr__'
p26
S"<method-wrapper '__setattr__' of exceptions.NameError object>"
p27
sS'__reduce_ex__'
p28
S'<built-in method __reduce_ex__ of exceptions.NameError object>'
p29
sS'__new__'
p30
S'<built-in method __new__ of type object>'
p31
sS'__format__'
p32
S'<built-in method __format__ of exceptions.NameError object>'
p33
sS'__class__'
p34
S"<type 'exceptions.NameError'>"
p35
sS'__doc__'
p36
S"'Name not found globally.'"
p37
sS'__getitem__'
p38
S"<method-wrapper '__getitem__' of exceptions.NameError object>"
p39
sS'__setstate__'
p40
S'<built-in method __setstate__ of exceptions.NameError object>'
p41
sS'__getattribute__'
p42
S"<method-wrapper '__getattribute__' of exceptions.NameError object>"
p43
sS'args'
p44
S'("name \'resultpos\' is not defined",)'
p45
sS'__subclasshook__'
p46
S'<built-in method __subclasshook__ of type object>'
p47
sS'__unicode__'
p48
S'<built-in method __unicode__ of exceptions.NameError object>'
p49
sS'__delattr__'
p50
S"<method-wrapper '__delattr__' of exceptions.NameError object>"
p51
sS'__repr__'
p52
S"<method-wrapper '__repr__' of exceptions.NameError object>"
p53
sS'__hash__'
p54
S"<method-wrapper '__hash__' of exceptions.NameError object>"
p55
ssS'evalue'
p56
S"name 'resultpos' is not defined"
p57
sS'request'
p58
cgluon.html
XML_unpickle
p59
(S's\x1bz\x00\x00<div><table><tr><td style="font-weight:bold;vertical-align:top;">ajax</td><td style="vertical-align:top;">:</td><td><div>False</div></td></tr><tr><td style="font-weight:bold;vertical-align:top;">application</td><td style="vertical-align:top;">:</td><td><div>obsas_dev</div></td></tr><tr><td style="font-weight:bold;vertical-align:top;">args</td><td style="vertical-align:top;">:</td><td><div><table></table></div></td></tr><tr><td style="font-weight:bold;vertical-align:top;">cid</td><td style="vertical-align:top;">:</td><td><div>None</div></td></tr><tr><td style="font-weight:bold;vertical-align:top;">client</td><td style="vertical-align:top;">:</td><td><div>83.203.43.40</div></td></tr><tr><td style="font-weight:bold;vertical-align:top;">controller</td><td style="vertical-align:top;">:</td><td><div>analyse</div></td></tr><tr><td style="font-weight:bold;vertical-align:top;">cookies</td><td style="vertical-align:top;">:</td><td><div><table><tr><td style="font-weight:bold;vertical-align:top;">session_id_admin</td><td style="vertical-align:top;">:</td><td><div>83.203.176.32-704e3204-d78d-4cb1-9d2b-a7ee77277089<table><tr><td style="font-weight:bold;vertical-align:top;">comment</td><td style="vertical-align:top;">:</td><td><div></div></td></tr><tr><td style="font-weight:bold;vertical-align:top;">domain</td><td style="vertical-align:top;">:</td><td><div></div></td></tr><tr><td style="font-weight:bold;vertical-align:top;">expires</td><td style="vertical-align:top;">:</td><td><div></div></td></tr><tr><td style="font-weight:bold;vertical-align:top;">httponly</td><td style="vertical-align:top;">:</td><td><div></div></td></tr><tr><td style="font-weight:bold;vertical-align:top;">max-age</td><td style="vertical-align:top;">:</td><td><div></div></td></tr><tr><td style="font-weight:bold;vertical-align:top;">path</td><td style="vertical-align:top;">:</td><td><div></div></td></tr><tr><td style="font-weight:bold;vertical-align:top;">secure</td><td style="vertical-align:top;">:</td><td><div></div></td></tr><tr><td style="font-weight:bold;vertical-align:top;">version</td><td style="vertical-align:top;">:</td><td><div></div></td></tr></table></div></td></tr><tr><td style="font-weight:bold;vertical-align:top;">session_id_obsas</td><td style="vertical-align:top;">:</td><td><div>83.203.54.41-e3bd374d-bf18-4487-829f-411f49158515<table><tr><td style="font-weight:bold;vertical-align:top;">comment</td><td style="vertical-align:top;">:</td><td><div></div></td></tr><tr><td style="font-weight:bold;vertical-align:top;">domain</td><td style="vertical-align:top;">:</td><td><div></div></td></tr><tr><td style="font-weight:bold;vertical-align:top;">expires</td><td style="vertical-align:top;">:</td><td><div></div></td></tr><tr><td style="font-weight:bold;vertical-align:top;">httponly</td><td style="vertical-align:top;">:</td><td><div></div></td></tr><tr><td style="font-weight:bold;vertical-align:top;">max-age</td><td style="vertical-align:top;">:</td><td><div></div></td></tr><tr><td style="font-weight:bold;vertical-align:top;">path</td><td style="vertical-align:top;">:</td><td><div></div></td></tr><tr><td style="font-weight:bold;vertical-align:top;">secure</td><td style="vertical-align:top;">:</td><td><div></div></td></tr><tr><td style="font-weight:bold;vertical-align:top;">version</td><td style="vertical-align:top;">:</td><td><div></div></td></tr></table></div></td></tr><tr><td style="font-weight:bold;vertical-align:top;">session_id_obsas_dev</td><td style="vertical-align:top;">:</td><td><div>83.203.54.41-fc7640bd-5607-4d0d-830a-27d2371bbd50<table><tr><td style="font-weight:bold;vertical-align:top;">comment</td><td style="vertical-align:top;">:</td><td><div></div></td></tr><tr><td style="font-weight:bold;vertical-align:top;">domain</td><td style="vertical-align:top;">:</td><td><div></div></td></tr><tr><td style="font-weight:bold;vertical-align:top;">expires</td><td style="vertical-align:top;">:</td><td><div></div></td></tr><tr><td style="font-weight:bold;vertical-align:top;">httponly</td><td style="vertical-align:top;">:</td><td><div></div></td></tr><tr><td style="font-weight:bold;vertical-align:top;">max-age</td><td style="vertical-align:top;">:</td><td><div></div></td></tr><tr><td style="font-weight:bold;vertical-align:top;">path</td><td style="vertical-align:top;">:</td><td><div></div></td></tr><tr><td style="font-weight:bold;vertical-align:top;">secure</td><td style="vertical-align:top;">:</td><td><div></div></td></tr><tr><td style="font-weight:bold;vertical-align:top;">version</td><td style="vertical-align:top;">:</td><td><div></div></td></tr></table></div></td></tr><tr><td style="font-weight:bold;vertical-align:top;">session_id_welcome</td><td style="vertical-align:top;">:</td><td><div>83.203.54.41-2f1de321-540d-4537-a597-598ac7e081ff<table><tr><td style="font-weight:bold;vertical-align:top;">comment</td><td style="vertical-align:top;">:</td><td><div></div></td></tr><tr><td style="font-weight:bold;vertical-align:top;">domain</td><td style="vertical-align:top;">:</td><td><div></div></td></tr><tr><td style="font-weight:bold;vertical-align:top;">expires</td><td style="vertical-align:top;">:</td><td><div></div></td></tr><tr><td style="font-weight:bold;vertical-align:top;">httponly</td><td style="vertical-align:top;">:</td><td><div></div></td></tr><tr><td style="font-weight:bold;vertical-align:top;">max-age</td><td style="vertical-align:top;">:</td><td><div></div></td></tr><tr><td style="font-weight:bold;vertical-align:top;">path</td><td style="vertical-align:top;">:</td><td><div></div></td></tr><tr><td style="font-weight:bold;vertical-align:top;">secure</td><td style="vertical-align:top;">:</td><td><div></div></td></tr><tr><td style="font-weight:bold;vertical-align:top;">version</td><td style="vertical-align:top;">:</td><td><div></div></td></tr></table></div></td></tr></table></div></td></tr><tr><td style="font-weight:bold;vertical-align:top;">env</td><td style="vertical-align:top;">:</td><td><div><table><tr><td style="font-weight:bold;vertical-align:top;">CONTEXT_DOCUMENT_ROOT</td><td style="vertical-align:top;">:</td><td><div>/var/www/html</div></td></tr><tr><td style="font-weight:bold;vertical-align:top;">CONTEXT_PREFIX</td><td style="vertical-align:top;">:</td><td><div></div></td></tr><tr><td style="font-weight:bold;vertical-align:top;">DOCUMENT_ROOT</td><td style="vertical-align:top;">:</td><td><div>/var/www/html</div></td></tr><tr><td style="font-weight:bold;vertical-align:top;">GATEWAY_INTERFACE</td><td style="vertical-align:top;">:</td><td><div>CGI/1.1</div></td></tr><tr><td style="font-weight:bold;vertical-align:top;">HTTP_ACCEPT</td><td style="vertical-align:top;">:</td><td><div>text/html,application/xhtml+xml,application/xml;q=0.9,image/webp,*/*;q=0.8</div></td></tr><tr><td style="font-weight:bold;vertical-align:top;">HTTP_ACCEPT_ENCODING</td><td style="vertical-align:top;">:</td><td><div>gzip, deflate, sdch, br</div></td></tr><tr><td style="font-weight:bold;vertical-align:top;">HTTP_ACCEPT_LANGUAGE</td><td style="vertical-align:top;">:</td><td><div>fr-FR,fr;q=0.8,en-US;q=0.6,en;q=0.4</div></td></tr><tr><td style="font-weight:bold;vertical-align:top;">HTTP_CONNECTION</td><td style="vertical-align:top;">:</td><td><div>keep-alive</div></td></tr><tr><td style="font-weight:bold;vertical-align:top;">HTTP_COOKIE</td><td style="vertical-align:top;">:</td><td><div>session_id_obsas=83.203.54.41-e3bd374d-bf18-4487-829f-411f49158515; session_id_welcome=83.203.54.41-2f1de321-540d-4537-a597-598ac7e081ff; session_id_admin=83.203.176.32-704e3204-d78d-4cb1-9d2b-a7ee77277089; session_id_obsas_dev=83.203.54.41-fc7640bd-5607-4d0d-830a-27d2371bbd50</div></td></tr><tr><td style="font-weight:bold;vertical-align:top;">HTTP_HOST</td><td style="vertical-align:top;">:</td><td><div>admin.obsas.orvdev.fr</div></td></tr><tr><td style="font-weight:bold;vertical-align:top;">HTTP_UPGRADE_INSECURE_REQUESTS</td><td style="vertical-align:top;">:</td><td><div>1</div></td></tr><tr><td style="font-weight:bold;vertical-align:top;">HTTP_USER_AGENT</td><td style="vertical-align:top;">:</td><td><div>Mozilla/5.0 (X11; Linux x86_64) AppleWebKit/537.36 (KHTML, like Gecko) Chrome/55.0.2883.75 Safari/537.36</div></td></tr><tr><td style="font-weight:bold;vertical-align:top;">PATH_INFO</td><td style="vertical-align:top;">:</td><td><div>/obsas_dev/analyse/vueaxe</div></td></tr><tr><td style="font-weight:bold;vertical-align:top;">PATH_TRANSLATED</td><td style="vertical-align:top;">:</td><td><div>/home/www-data/web2py/wsgihandler.py/obsas_dev/analyse/vueaxe</div></td></tr><tr><td style="font-weight:bold;vertical-align:top;">QUERY_STRING</td><td style="vertical-align:top;">:</td><td><div>desc=1&amp;axe=scrutin&amp;filtres=%7B%7D&amp;suffrages=exprime&amp;tri=datescrutin</div></td></tr><tr><td style="font-weight:bold;vertical-align:top;">REMOTE_ADDR</td><td style="vertical-align:top;">:</td><td><div>83.203.43.40</div></td></tr><tr><td style="font-weight:bold;vertical-align:top;">REMOTE_PORT</td><td style="vertical-align:top;">:</td><td><div>59546</div></td></tr><tr><td style="font-weight:bold;vertical-align:top;">REQUEST_METHOD</td><td style="vertical-align:top;">:</td><td><div>GET</div></td></tr><tr><td style="font-weight:bold;vertical-align:top;">REQUEST_SCHEME</td><td style="vertical-align:top;">:</td><td><div>https</div></td></tr><tr><td style="font-weight:bold;vertical-align:top;">REQUEST_URI</td><td style="vertical-align:top;">:</td><td><div>/obsas_dev/analyse/vueaxe?desc=1&amp;axe=scrutin&amp;filtres=%7B%7D&amp;suffrages=exprime&amp;tri=datescrutin</div></td></tr><tr><td style="font-weight:bold;vertical-align:top;">SCRIPT_FILENAME</td><td style="vertical-align:top;">:</td><td><div>/home/www-data/web2py/wsgihandler.py</div></td></tr><tr><td style="font-weight:bold;vertical-align:top;">SCRIPT_NAME</td><td style="vertical-align:top;">:</td><td><div></div></td></tr><tr><td style="font-weight:bold;vertical-align:top;">SERVER_ADDR</td><td style="vertical-align:top;">:</td><td><div>151.80.57.169</div></td></tr><tr><td style="font-weight:bold;vertical-align:top;">SERVER_ADMIN</td><td style="vertical-align:top;">:</td><td><div>[no address given]</div></td></tr><tr><td style="font-weight:bold;vertical-align:top;">SERVER_NAME</td><td style="vertical-align:top;">:</td><td><div>admin.obsas.orvdev.fr</div></td></tr><tr><td style="font-weight:bold;vertical-align:top;">SERVER_PORT</td><td style="vertical-align:top;">:</td><td><div>443</div></td></tr><tr><td style="font-weight:bold;vertical-align:top;">SERVER_PROTOCOL</td><td style="vertical-align:top;">:</td><td><div>HTTP/1.1</div></td></tr><tr><td style="font-weight:bold;vertical-align:top;">SERVER_SIGNATURE</td><td style="vertical-align:top;">:</td><td><div>&lt;address&gt;Apache/2.4.18 (Ubuntu) Server at admin.obsas.orvdev.fr Port 443&lt;/address&gt;\n</div></td></tr><tr><td style="font-weight:bold;vertical-align:top;">SERVER_SOFTWARE</td><td style="vertical-align:top;">:</td><td><div>Apache/2.4.18 (Ubuntu)</div></td></tr><tr><td style="font-weight:bold;vertical-align:top;">SSL_TLS_SNI</td><td style="vertical-align:top;">:</td><td><div>admin.obsas.orvdev.fr</div></td></tr><tr><td style="font-weight:bold;vertical-align:top;">apache.version</td><td style="vertical-align:top;">:</td><td><div><table><tr><td><div>2</div></td></tr><tr><td><div>4</div></td></tr><tr><td><div>18</div></td></tr></table></div></td></tr><tr><td style="font-weight:bold;vertical-align:top;">apache_version</td><td style="vertical-align:top;">:</td><td><div><table><tr><td><div>2</div></td></tr><tr><td><div>4</div></td></tr><tr><td><div>18</div></td></tr></table></div></td></tr><tr><td style="font-weight:bold;vertical-align:top;">app_folders</td><td style="vertical-align:top;">:</td><td><div>set([&#x27;/home/www-data/web2py/applications/obsas_dev/&#x27;, &#x27;/home/www-data/web2py/applications/welcome/&#x27;, &#x27;/home/www-data/web2py/applications/admin/&#x27;])</div></td></tr><tr><td style="font-weight:bold;vertical-align:top;">applications_parent</td><td style="vertical-align:top;">:</td><td><div>/home/www-data/web2py</div></td></tr><tr><td style="font-weight:bold;vertical-align:top;">context_document_root</td><td style="vertical-align:top;">:</td><td><div>/var/www/html</div></td></tr><tr><td style="font-weight:bold;vertical-align:top;">context_prefix</td><td style="vertical-align:top;">:</td><td><div></div></td></tr><tr><td style="font-weight:bold;vertical-align:top;">db_sessions</td><td style="vertical-align:top;">:</td><td><div>set([])</div></td></tr><tr><td style="font-weight:bold;vertical-align:top;">debugging</td><td style="vertical-align:top;">:</td><td><div>True</div></td></tr><tr><td style="font-weight:bold;vertical-align:top;">document_root</td><td style="vertical-align:top;">:</td><td><div>/var/www/html</div></td></tr><tr><td style="font-weight:bold;vertical-align:top;">gateway_interface</td><td style="vertical-align:top;">:</td><td><div>CGI/1.1</div></td></tr><tr><td style="font-weight:bold;vertical-align:top;">gluon_parent</td><td style="vertical-align:top;">:</td><td><div>/home/www-data/web2py</div></td></tr><tr><td style="font-weight:bold;vertical-align:top;">http_accept</td><td style="vertical-align:top;">:</td><td><div>text/html,application/xhtml+xml,application/xml;q=0.9,image/webp,*/*;q=0.8</div></td></tr><tr><td style="font-weight:bold;vertical-align:top;">http_accept_encoding</td><td style="vertical-align:top;">:</td><td><div>gzip, deflate, sdch, br</div></td></tr><tr><td style="font-weight:bold;vertical-align:top;">http_accept_language</td><td style="vertical-align:top;">:</td><td><div>fr-FR,fr;q=0.8,en-US;q=0.6,en;q=0.4</div></td></tr><tr><td style="font-weight:bold;vertical-align:top;">http_connection</td><td style="vertical-align:top;">:</td><td><div>keep-alive</div></td></tr><tr><td style="font-weight:bold;vertical-align:top;">http_cookie</td><td style="vertical-align:top;">:</td><td><div>session_id_obsas=83.203.54.41-e3bd374d-bf18-4487-829f-411f49158515; session_id_welcome=83.203.54.41-2f1de321-540d-4537-a597-598ac7e081ff; session_id_admin=83.203.176.32-704e3204-d78d-4cb1-9d2b-a7ee77277089; session_id_obsas_dev=83.203.54.41-fc7640bd-5607-4d0d-830a-27d2371bbd50</div></td></tr><tr><td style="font-weight:bold;vertical-align:top;">http_host</td><td style="vertical-align:top;">:</td><td><div>admin.obsas.orvdev.fr</div></td></tr><tr><td style="font-weight:bold;vertical-align:top;">http_upgrade_insecure_requests</td><td style="vertical-align:top;">:</td><td><div>1</div></td></tr><tr><td style="font-weight:bold;vertical-align:top;">http_user_agent</td><td style="vertical-align:top;">:</td><td><div>Mozilla/5.0 (X11; Linux x86_64) AppleWebKit/537.36 (KHTML, like Gecko) Chrome/55.0.2883.75 Safari/537.36</div></td></tr><tr><td style="font-weight:bold;vertical-align:top;">is_jython</td><td style="vertical-align:top;">:</td><td><div>False</div></td></tr><tr><td style="font-weight:bold;vertical-align:top;">is_py2</td><td style="vertical-align:top;">:</td><td><div>True</div></td></tr><tr><td style="font-weight:bold;vertical-align:top;">is_pypy</td><td style="vertical-align:top;">:</td><td><div>False</div></td></tr><tr><td style="font-weight:bold;vertical-align:top;">is_source</td><td style="vertical-align:top;">:</td><td><div>True</div></td></tr><tr><td style="font-weight:bold;vertical-align:top;">local_hosts</td><td style="vertical-align:top;">:</td><td><div><table><tr><td><div>vps433020</div></td></tr><tr><td><div>::ffff:127.0.0.1</div></td></tr><tr><td><div>::1</div></td></tr><tr><td><div>151.80.57.169</div></td></tr><tr><td><div>vps433020.ovh.net</div></td></tr><tr><td><div>127.0.1.1</div></td></tr><tr><td><div>admin.obsas.orvdev.fr</div></td></tr><tr><td><div>127.0.0.1</div></td></tr></table></div></td></tr><tr><td style="font-weight:bold;vertical-align:top;">mod_wsgi.application_group</td><td style="vertical-align:top;">:</td><td><div></div></td></tr><tr><td style="font-weight:bold;vertical-align:top;">mod_wsgi.callable_object</td><td style="vertical-align:top;">:</td><td><div>application</div></td></tr><tr><td style="font-weight:bold;vertical-align:top;">mod_wsgi.daemon_connects</td><td style="vertical-align:top;">:</td><td><div>1</div></td></tr><tr><td style="font-weight:bold;vertical-align:top;">mod_wsgi.daemon_restarts</td><td style="vertical-align:top;">:</td><td><div>0</div></td></tr><tr><td style="font-weight:bold;vertical-align:top;">mod_wsgi.daemon_start</td><td style="vertical-align:top;">:</td><td><div>1500241128680417</div></td></tr><tr><td style="font-weight:bold;vertical-align:top;">mod_wsgi.enable_sendfile</td><td style="vertical-align:top;">:</td><td><div>0</div></td></tr><tr><td style="font-weight:bold;vertical-align:top;">mod_wsgi.handler_script</td><td style="vertical-align:top;">:</td><td><div></div></td></tr><tr><td style="font-weight:bold;vertical-align:top;">mod_wsgi.input_chunked</td><td style="vertical-align:top;">:</td><td><div>0</div></td></tr><tr><td style="font-weight:bold;vertical-align:top;">mod_wsgi.listener_host</td><td style="vertical-align:top;">:</td><td><div></div></td></tr><tr><td style="font-weight:bold;vertical-align:top;">mod_wsgi.listener_port</td><td style="vertical-align:top;">:</td><td><div>443</div></td></tr><tr><td style="font-weight:bold;vertical-align:top;">mod_wsgi.process_group</td><td style="vertical-align:top;">:</td><td><div>obsasadm</div></td></tr><tr><td style="font-weight:bold;vertical-align:top;">mod_wsgi.queue_start</td><td style="vertical-align:top;">:</td><td><div>1500241128680280</div></td></tr><tr><td style="font-weight:bold;vertical-align:top;">mod_wsgi.request_handler</td><td style="vertical-align:top;">:</td><td><div>wsgi-script</div></td></tr><tr><td style="font-weight:bold;vertical-align:top;">mod_wsgi.request_start</td><td style="vertical-align:top;">:</td><td><div>1500241128679933</div></td></tr><tr><td style="font-weight:bold;vertical-align:top;">mod_wsgi.script_reloading</td><td style="vertical-align:top;">:</td><td><div>1</div></td></tr><tr><td style="font-weight:bold;vertical-align:top;">mod_wsgi.script_start</td><td style="vertical-align:top;">:</td><td><div>1500241128680456</div></td></tr><tr><td style="font-weight:bold;vertical-align:top;">mod_wsgi.version</td><td style="vertical-align:top;">:</td><td><div><table><tr><td><div>4</div></td></tr><tr><td><div>3</div></td></tr><tr><td><div>0</div></td></tr></table></div></td></tr><tr><td style="font-weight:bold;vertical-align:top;">mod_wsgi_application_group</td><td style="vertical-align:top;">:</td><td><div></div></td></tr><tr><td style="font-weight:bold;vertical-align:top;">mod_wsgi_callable_object</td><td style="vertical-align:top;">:</td><td><div>application</div></td></tr><tr><td style="font-weight:bold;vertical-align:top;">mod_wsgi_daemon_connects</td><td style="vertical-align:top;">:</td><td><div>1</div></td></tr><tr><td style="font-weight:bold;vertical-align:top;">mod_wsgi_daemon_restarts</td><td style="vertical-align:top;">:</td><td><div>0</div></td></tr><tr><td style="font-weight:bold;vertical-align:top;">mod_wsgi_daemon_start</td><td style="vertical-align:top;">:</td><td><div>1500241128680417</div></td></tr><tr><td style="font-weight:bold;vertical-align:top;">mod_wsgi_enable_sendfile</td><td style="vertical-align:top;">:</td><td><div>0</div></td></tr><tr><td style="font-weight:bold;vertical-align:top;">mod_wsgi_handler_script</td><td style="vertical-align:top;">:</td><td><div></div></td></tr><tr><td style="font-weight:bold;vertical-align:top;">mod_wsgi_input_chunked</td><td style="vertical-align:top;">:</td><td><div>0</div></td></tr><tr><td style="font-weight:bold;vertical-align:top;">mod_wsgi_listener_host</td><td style="vertical-align:top;">:</td><td><div></div></td></tr><tr><td style="font-weight:bold;vertical-align:top;">mod_wsgi_listener_port</td><td style="vertical-align:top;">:</td><td><div>443</div></td></tr><tr><td style="font-weight:bold;vertical-align:top;">mod_wsgi_process_group</td><td style="vertical-align:top;">:</td><td><div>obsasadm</div></td></tr><tr><td style="font-weight:bold;vertical-align:top;">mod_wsgi_queue_start</td><td style="vertical-align:top;">:</td><td><div>1500241128680280</div></td></tr><tr><td style="font-weight:bold;vertical-align:top;">mod_wsgi_request_handler</td><td style="vertical-align:top;">:</td><td><div>wsgi-script</div></td></tr><tr><td style="font-weight:bold;vertical-align:top;">mod_wsgi_request_start</td><td style="vertical-align:top;">:</td><td><div>1500241128679933</div></td></tr><tr><td style="font-weight:bold;vertical-align:top;">mod_wsgi_script_reloading</td><td style="vertical-align:top;">:</td><td><div>1</div></td></tr><tr><td style="font-weight:bold;vertical-align:top;">mod_wsgi_script_start</td><td style="vertical-align:top;">:</td><td><div>1500241128680456</div></td></tr><tr><td style="font-weight:bold;vertical-align:top;">mod_wsgi_version</td><td style="vertical-align:top;">:</td><td><div><table><tr><td><div>4</div></td></tr><tr><td><div>3</div></td></tr><tr><td><div>0</div></td></tr></table></div></td></tr><tr><td style="font-weight:bold;vertical-align:top;">path_info</td><td style="vertical-align:top;">:</td><td><div>/obsas_dev/analyse/vueaxe</div></td></tr><tr><td style="font-weight:bold;vertical-align:top;">path_translated</td><td style="vertical-align:top;">:</td><td><div>/home/www-data/web2py/wsgihandler.py/obsas_dev/analyse/vueaxe</div></td></tr><tr><td style="font-weight:bold;vertical-align:top;">query_string</td><td style="vertical-align:top;">:</td><td><div>desc=1&amp;axe=scrutin&amp;filtres=%7B%7D&amp;suffrages=exprime&amp;tri=datescrutin</div></td></tr><tr><td style="font-weight:bold;vertical-align:top;">remote_addr</td><td style="vertical-align:top;">:</td><td><div>83.203.43.40</div></td></tr><tr><td style="font-weight:bold;vertical-align:top;">remote_port</td><td style="vertical-align:top;">:</td><td><div>59546</div></td></tr><tr><td style="font-weight:bold;vertical-align:top;">request_method</td><td style="vertical-align:top;">:</td><td><div>GET</div></td></tr><tr><td style="font-weight:bold;vertical-align:top;">request_scheme</td><td style="vertical-align:top;">:</td><td><div>https</div></td></tr><tr><td style="font-weight:bold;vertical-align:top;">request_uri</td><td style="vertical-align:top;">:</td><td><div>/obsas_dev/analyse/vueaxe?desc=1&amp;axe=scrutin&amp;filtres=%7B%7D&amp;suffrages=exprime&amp;tri=datescrutin</div></td></tr><tr><td style="font-weight:bold;vertical-align:top;">script_filename</td><td style="vertical-align:top;">:</td><td><div>/home/www-data/web2py/wsgihandler.py</div></td></tr><tr><td style="font-weight:bold;vertical-align:top;">script_name</td><td style="vertical-align:top;">:</td><td><div></div></td></tr><tr><td style="font-weight:bold;vertical-align:top;">server_addr</td><td style="vertical-align:top;">:</td><td><div>151.80.57.169</div></td></tr><tr><td style="font-weight:bold;vertical-align:top;">server_admin</td><td style="vertical-align:top;">:</td><td><div>[no address given]</div></td></tr><tr><td style="font-weight:bold;vertical-align:top;">server_name</td><td style="vertical-align:top;">:</td><td><div>admin.obsas.orvdev.fr</div></td></tr><tr><td style="font-weight:bold;vertical-align:top;">server_port</td><td style="vertical-align:top;">:</td><td><div>443</div></td></tr><tr><td style="font-weight:bold;vertical-align:top;">server_protocol</td><td style="vertical-align:top;">:</td><td><div>HTTP/1.1</div></td></tr><tr><td style="font-weight:bold;vertical-align:top;">server_signature</td><td style="vertical-align:top;">:</td><td><div>&lt;address&gt;Apache/2.4.18 (Ubuntu) Server at admin.obsas.orvdev.fr Port 443&lt;/address&gt;\n</div></td></tr><tr><td style="font-weight:bold;vertical-align:top;">server_software</td><td style="vertical-align:top;">:</td><td><div>Apache/2.4.18 (Ubuntu)</div></td></tr><tr><td style="font-weight:bold;vertical-align:top;">ssl_tls_sni</td><td style="vertical-align:top;">:</td><td><div>admin.obsas.orvdev.fr</div></td></tr><tr><td style="font-weight:bold;vertical-align:top;">web2py_original_uri</td><td style="vertical-align:top;">:</td><td><div>/obsas_dev/analyse/vueaxe?desc=1&amp;axe=scrutin&amp;filtres=%7B%7D&amp;suffrages=exprime&amp;tri=datescrutin</div></td></tr><tr><td style="font-weight:bold;vertical-align:top;">web2py_path</td><td style="vertical-align:top;">:</td><td><div>/home/www-data/web2py</div></td></tr><tr><td style="font-weight:bold;vertical-align:top;">web2py_version</td><td style="vertical-align:top;">:</td><td><div>2.15.1-stable+timestamp.2017.07.10.21.25.06</div></td></tr><tr><td style="font-weight:bold;vertical-align:top;">wsgi.errors</td><td style="vertical-align:top;">:</td><td><div>&lt;mod_wsgi.Log object at 0x7ff3d16abc48&gt;</div></td></tr><tr><td style="font-weight:bold;vertical-align:top;">wsgi.file_wrapper</td><td style="vertical-align:top;">:</td><td><div>&lt;type &#x27;mod_wsgi.FileWrapper&#x27;&gt;</div></td></tr><tr><td style="font-weight:bold;vertical-align:top;">wsgi.input</td><td style="vertical-align:top;">:</td><td><div>&lt;mod_wsgi.Input object at 0x7ff3a6800eb0&gt;</div></td></tr><tr><td style="font-weight:bold;vertical-align:top;">wsgi.multiprocess</td><td style="vertical-align:top;">:</td><td><div>False</div></td></tr><tr><td style="font-weight:bold;vertical-align:top;">wsgi.multithread</td><td style="vertical-align:top;">:</td><td><div>True</div></td></tr><tr><td style="font-weight:bold;vertical-align:top;">wsgi.run_once</td><td style="vertical-align:top;">:</td><td><div>False</div></td></tr><tr><td style="font-weight:bold;vertical-align:top;">wsgi.url_scheme</td><td style="vertical-align:top;">:</td><td><div>https</div></td></tr><tr><td style="font-weight:bold;vertical-align:top;">wsgi.version</td><td style="vertical-align:top;">:</td><td><div><table><tr><td><div>1</div></td></tr><tr><td><div>0</div></td></tr></table></div></td></tr><tr><td style="font-weight:bold;vertical-align:top;">wsgi_errors</td><td style="vertical-align:top;">:</td><td><div>&lt;mod_wsgi.Log object at 0x7ff3d16abc48&gt;</div></td></tr><tr><td style="font-weight:bold;vertical-align:top;">wsgi_file_wrapper</td><td style="vertical-align:top;">:</td><td><div>&lt;type &#x27;mod_wsgi.FileWrapper&#x27;&gt;</div></td></tr><tr><td style="font-weight:bold;vertical-align:top;">wsgi_input</td><td style="vertical-align:top;">:</td><td><div>&lt;mod_wsgi.Input object at 0x7ff3a6800eb0&gt;</div></td></tr><tr><td style="font-weight:bold;vertical-align:top;">wsgi_multiprocess</td><td style="vertical-align:top;">:</td><td><div>False</div></td></tr><tr><td style="font-weight:bold;vertical-align:top;">wsgi_multithread</td><td style="vertical-align:top;">:</td><td><div>True</div></td></tr><tr><td style="font-weight:bold;vertical-align:top;">wsgi_run_once</td><td style="vertical-align:top;">:</td><td><div>False</div></td></tr><tr><td style="font-weight:bold;vertical-align:top;">wsgi_url_scheme</td><td style="vertical-align:top;">:</td><td><div>https</div></td></tr><tr><td style="font-weight:bold;vertical-align:top;">wsgi_version</td><td style="vertical-align:top;">:</td><td><div><table><tr><td><div>1</div></td></tr><tr><td><div>0</div></td></tr></table></div></td></tr></table></div></td></tr><tr><td style="font-weight:bold;vertical-align:top;">extension</td><td style="vertical-align:top;">:</td><td><div>html</div></td></tr><tr><td style="font-weight:bold;vertical-align:top;">folder</td><td style="vertical-align:top;">:</td><td><div>/home/www-data/web2py/applications/obsas_dev/</div></td></tr><tr><td style="font-weight:bold;vertical-align:top;">function</td><td style="vertical-align:top;">:</td><td><div>vueaxe</div></td></tr><tr><td style="font-weight:bold;vertical-align:top;">global_settings</td><td style="vertical-align:top;">:</td><td><div><table><tr><td style="font-weight:bold;vertical-align:top;">app_folders</td><td style="vertical-align:top;">:</td><td><div>set([&#x27;/home/www-data/web2py/applications/obsas_dev/&#x27;, &#x27;/home/www-data/web2py/applications/welcome/&#x27;, &#x27;/home/www-data/web2py/applications/admin/&#x27;])</div></td></tr><tr><td style="font-weight:bold;vertical-align:top;">applications_parent</td><td style="vertical-align:top;">:</td><td><div>/home/www-data/web2py</div></td></tr><tr><td style="font-weight:bold;vertical-align:top;">db_sessions</td><td style="vertical-align:top;">:</td><td><div>set([])</div></td></tr><tr><td style="font-weight:bold;vertical-align:top;">debugging</td><td style="vertical-align:top;">:</td><td><div>True</div></td></tr><tr><td style="font-weight:bold;vertical-align:top;">gluon_parent</td><td style="vertical-align:top;">:</td><td><div>/home/www-data/web2py</div></td></tr><tr><td style="font-weight:bold;vertical-align:top;">is_jython</td><td style="vertical-align:top;">:</td><td><div>False</div></td></tr><tr><td style="font-weight:bold;vertical-align:top;">is_py2</td><td style="vertical-align:top;">:</td><td><div>True</div></td></tr><tr><td style="font-weight:bold;vertical-align:top;">is_pypy</td><td style="vertical-align:top;">:</td><td><div>False</div></td></tr><tr><td style="font-weight:bold;vertical-align:top;">is_source</td><td style="vertical-align:top;">:</td><td><div>True</div></td></tr><tr><td style="font-weight:bold;vertical-align:top;">local_hosts</td><td style="vertical-align:top;">:</td><td><div><table><tr><td><div>vps433020</div></td></tr><tr><td><div>::ffff:127.0.0.1</div></td></tr><tr><td><div>::1</div></td></tr><tr><td><div>151.80.57.169</div></td></tr><tr><td><div>vps433020.ovh.net</div></td></tr><tr><td><div>127.0.1.1</div></td></tr><tr><td><div>admin.obsas.orvdev.fr</div></td></tr><tr><td><div>127.0.0.1</div></td></tr></table></div></td></tr><tr><td style="font-weight:bold;vertical-align:top;">web2py_version</td><td style="vertical-align:top;">:</td><td><div>2.15.1-stable+timestamp.2017.07.10.21.25.06</div></td></tr></table></div></td></tr><tr><td style="font-weight:bold;vertical-align:top;">is_https</td><td style="vertical-align:top;">:</td><td><div>True</div></td></tr><tr><td style="font-weight:bold;vertical-align:top;">is_local</td><td style="vertical-align:top;">:</td><td><div>False</div></td></tr><tr><td style="font-weight:bold;vertical-align:top;">is_restful</td><td style="vertical-align:top;">:</td><td><div>False</div></td></tr><tr><td style="font-weight:bold;vertical-align:top;">is_scheduler</td><td style="vertical-align:top;">:</td><td><div>False</div></td></tr><tr><td style="font-weight:bold;vertical-align:top;">is_shell</td><td style="vertical-align:top;">:</td><td><div>False</div></td></tr><tr><td style="font-weight:bold;vertical-align:top;">now</td><td style="vertical-align:top;">:</td><td><div>datetime.datetime(2017, 7, 16, 23, 38, 48, 680748)</div></td></tr><tr><td style="font-weight:bold;vertical-align:top;">url</td><td style="vertical-align:top;">:</td><td><div>/obsas_dev/analyse/vueaxe</div></td></tr><tr><td style="font-weight:bold;vertical-align:top;">utcnow</td><td style="vertical-align:top;">:</td><td><div>datetime.datetime(2017, 7, 16, 21, 38, 48, 680768)</div></td></tr><tr><td style="font-weight:bold;vertical-align:top;">wsgi</td><td style="vertical-align:top;">:</td><td><div>&lt;gluon.main.LazyWSGI object at 0x7ff3a6a0a950&gt;</div></td></tr></table></div>'
tRp60
sS'frames'
p61
(lp62
(dp63
S'file'
p64
S'/home/www-data/web2py/gluon/restricted.py'
p65
sS'dump'
p66
(dp67
S'environment'
p68
S"{'A': <class 'gluon.html.A'>, 'ANY_OF': <class 'gluon.validators.ANY_OF'>, 'ASSIGNJS': <function ASSIGNJS>, 'AppConfig': <function AppConfig>, 'Auth': <class 'gluon.tools.Auth'>, 'B': <class 'gluon.html.B'>, 'BEAUTIFY': <class 'gluon.html.BEAUTIFY'>, 'BODY': <class 'gluon.html.BODY'>, 'BR': <class 'gluon.html.BR'>, 'BUTTON': <class 'gluon.html.BUTTON'>, ...}"
p69
sS'ccode'
p70
S'\'response.write(\\\'<div class="row">\\\\n   <div class...n       });\\\\n    });\\\\n</script>\\\\n\\\', escape=False)\''
p71
ssS'lnum'
p72
I219
sS'lines'
p73
(dp74
I214
S'    if environment is None:'
p75
sI215
S'        environment = {}'
p76
sI216
S"    environment['__file__'] = layer"
p77
sI217
S"    environment['__name__'] = '__restricted__'"
p78
sI218
S'    try:'
p79
sI219
S'        exec(ccode, environment)'
p80
sI220
S'    except HTTP:'
p81
sI221
S'        raise'
p82
sI222
S'    except RestrictedError:'
p83
sI223
S'        # do not encapsulate (obfuscate) the original RestrictedError'
p84
ssS'call'
p85
S'(ccode=\'response.write(\\\'<div class="row">\\\\n   <div class...n       });\\\\n    });\\\\n</script>\\\\n\\\', escape=False)\', environment={\'A\': <class \'gluon.html.A\'>, \'ANY_OF\': <class \'gluon.validators.ANY_OF\'>, \'ASSIGNJS\': <function ASSIGNJS>, \'AppConfig\': <function AppConfig>, \'Auth\': <class \'gluon.tools.Auth\'>, \'B\': <class \'gluon.html.B\'>, \'BEAUTIFY\': <class \'gluon.html.BEAUTIFY\'>, \'BODY\': <class \'gluon.html.BODY\'>, \'BR\': <class \'gluon.html.BR\'>, \'BUTTON\': <class \'gluon.html.BUTTON\'>, ...}, layer=\'/home/www-data/web2py/applications/obsas_dev/views/analyse/vueaxe.html\')'
p86
sS'func'
p87
S'restricted'
p88
sa(dp89
g64
S'/home/www-data/web2py/<string>'
p90
sg66
(dp91
sg72
I60
sg73
(dp92
sg85
S'()'
p93
sg87
S'<module>'
p94
sasS'pyver'
p95
S'Python 2.7.12: /home/www-data/web2py/applications/obsas_dev/.pyenv/bin/python (prefix: /home/www-data/web2py/applications/obsas_dev/.pyenv)'
p96
sS'session'
p97
g59
(S's]\x8c\x01\x00<div><table><tr><td style="font-weight:bold;vertical-align:top;">items</td><td style="vertical-align:top;">:</td><td><div><table><tr><td><div><table><tr><td style="font-weight:bold;vertical-align:top;">cercles</td><td style="vertical-align:top;">:</td><td><div><table></table></div></td></tr><tr><td style="font-weight:bold;vertical-align:top;">key</td><td style="vertical-align:top;">:</td><td><div>PO730964</div></td></tr><tr><td style="font-weight:bold;vertical-align:top;">label</td><td style="vertical-align:top;">:</td><td><div>La R\xc3\xa9publique en Marche</div></td></tr><tr><td style="font-weight:bold;vertical-align:top;">nb</td><td style="vertical-align:top;">:</td><td><div><table><tr><td style="font-weight:bold;vertical-align:top;">absent</td><td style="vertical-align:top;">:</td><td><div>6912</div></td></tr><tr><td style="font-weight:bold;vertical-align:top;">abstention</td><td style="vertical-align:top;">:</td><td><div>15</div></td></tr><tr><td style="font-weight:bold;vertical-align:top;">contre</td><td style="vertical-align:top;">:</td><td><div>3787</div></td></tr><tr><td style="font-weight:bold;vertical-align:top;">nonVotant</td><td style="vertical-align:top;">:</td><td><div>323</div></td></tr><tr><td style="font-weight:bold;vertical-align:top;">pour</td><td style="vertical-align:top;">:</td><td><div>895</div></td></tr></table></div></td></tr><tr><td style="font-weight:bold;vertical-align:top;">participation</td><td style="vertical-align:top;">:</td><td><div>40.0</div></td></tr><tr><td style="font-weight:bold;vertical-align:top;">stats</td><td style="vertical-align:top;">:</td><td><div><table><tr><td><div><table><tr><td style="font-weight:bold;vertical-align:top;">class</td><td style="vertical-align:top;">:</td><td><div>pct</div></td></tr><tr><td style="font-weight:bold;vertical-align:top;">icon</td><td style="vertical-align:top;">:</td><td><div>thumbs-up</div></td></tr><tr><td style="font-weight:bold;vertical-align:top;">libelle</td><td style="vertical-align:top;">:</td><td><div>votes pour</div></td></tr><tr><td style="font-weight:bold;vertical-align:top;">n</td><td style="vertical-align:top;">:</td><td><div>895</div></td></tr><tr><td style="font-weight:bold;vertical-align:top;">pct</td><td style="vertical-align:top;">:</td><td><div>8.0</div></td></tr><tr><td style="font-weight:bold;vertical-align:top;">position</td><td style="vertical-align:top;">:</td><td><div>pour</div></td></tr></table></div></td></tr><tr><td><div><table><tr><td style="font-weight:bold;vertical-align:top;">class</td><td style="vertical-align:top;">:</td><td><div>pct</div></td></tr><tr><td style="font-weight:bold;vertical-align:top;">icon</td><td style="vertical-align:top;">:</td><td><div>thumbs-down</div></td></tr><tr><td style="font-weight:bold;vertical-align:top;">libelle</td><td style="vertical-align:top;">:</td><td><div>votes contre</div></td></tr><tr><td style="font-weight:bold;vertical-align:top;">n</td><td style="vertical-align:top;">:</td><td><div>3787</div></td></tr><tr><td style="font-weight:bold;vertical-align:top;">pct</td><td style="vertical-align:top;">:</td><td><div>32.0</div></td></tr><tr><td style="font-weight:bold;vertical-align:top;">position</td><td style="vertical-align:top;">:</td><td><div>contre</div></td></tr></table></div></td></tr><tr><td><div><table><tr><td style="font-weight:bold;vertical-align:top;">class</td><td style="vertical-align:top;">:</td><td><div>pct</div></td></tr><tr><td style="font-weight:bold;vertical-align:top;">icon</td><td style="vertical-align:top;">:</td><td><div>meh-o</div></td></tr><tr><td style="font-weight:bold;vertical-align:top;">libelle</td><td style="vertical-align:top;">:</td><td><div>abstention</div></td></tr><tr><td style="font-weight:bold;vertical-align:top;">n</td><td style="vertical-align:top;">:</td><td><div>15</div></td></tr><tr><td style="font-weight:bold;vertical-align:top;">pct</td><td style="vertical-align:top;">:</td><td><div>0.0</div></td></tr><tr><td style="font-weight:bold;vertical-align:top;">position</td><td style="vertical-align:top;">:</td><td><div>abstention</div></td></tr></table></div></td></tr><tr><td><div><table><tr><td style="font-weight:bold;vertical-align:top;">class</td><td style="vertical-align:top;">:</td><td><div>pct</div></td></tr><tr><td style="font-weight:bold;vertical-align:top;">icon</td><td style="vertical-align:top;">:</td><td><div>plane</div></td></tr><tr><td style="font-weight:bold;vertical-align:top;">libelle</td><td style="vertical-align:top;">:</td><td><div>absents</div></td></tr><tr><td style="font-weight:bold;vertical-align:top;">n</td><td style="vertical-align:top;">:</td><td><div>6912</div></td></tr><tr><td style="font-weight:bold;vertical-align:top;">pct</td><td style="vertical-align:top;">:</td><td><div>58.0</div></td></tr><tr><td style="font-weight:bold;vertical-align:top;">position</td><td style="vertical-align:top;">:</td><td><div>absent</div></td></tr></table></div></td></tr><tr><td><div><table><tr><td style="font-weight:bold;vertical-align:top;">class</td><td style="vertical-align:top;">:</td><td><div>pct</div></td></tr><tr><td style="font-weight:bold;vertical-align:top;">icon</td><td style="vertical-align:top;">:</td><td><div>ban</div></td></tr><tr><td style="font-weight:bold;vertical-align:top;">libelle</td><td style="vertical-align:top;">:</td><td><div>non votants (justifi\xc3\xa9s)</div></td></tr><tr><td style="font-weight:bold;vertical-align:top;">n</td><td style="vertical-align:top;">:</td><td><div>323</div></td></tr><tr><td style="font-weight:bold;vertical-align:top;">pct</td><td style="vertical-align:top;">:</td><td><div>3.0</div></td></tr><tr><td style="font-weight:bold;vertical-align:top;">position</td><td style="vertical-align:top;">:</td><td><div>nonVotant</div></td></tr></table></div></td></tr></table></div></td></tr><tr><td style="font-weight:bold;vertical-align:top;">stats_exprime</td><td style="vertical-align:top;">:</td><td><div><table><tr><td><div><table><tr><td style="font-weight:bold;vertical-align:top;">big</td><td style="vertical-align:top;">:</td><td><div>False</div></td></tr><tr><td style="font-weight:bold;vertical-align:top;">icon</td><td style="vertical-align:top;">:</td><td><div>thumbs-up</div></td></tr><tr><td style="font-weight:bold;vertical-align:top;">libelle</td><td style="vertical-align:top;">:</td><td><div>votes pour</div></td></tr><tr><td style="font-weight:bold;vertical-align:top;">n</td><td style="vertical-align:top;">:</td><td><div>895</div></td></tr><tr><td style="font-weight:bold;vertical-align:top;">pct</td><td style="vertical-align:top;">:</td><td><div>19.0</div></td></tr><tr><td style="font-weight:bold;vertical-align:top;">position</td><td style="vertical-align:top;">:</td><td><div>pour</div></td></tr></table></div></td></tr><tr><td><div><table><tr><td style="font-weight:bold;vertical-align:top;">big</td><td style="vertical-align:top;">:</td><td><div>False</div></td></tr><tr><td style="font-weight:bold;vertical-align:top;">icon</td><td style="vertical-align:top;">:</td><td><div>thumbs-down</div></td></tr><tr><td style="font-weight:bold;vertical-align:top;">libelle</td><td style="vertical-align:top;">:</td><td><div>votes contre</div></td></tr><tr><td style="font-weight:bold;vertical-align:top;">n</td><td style="vertical-align:top;">:</td><td><div>3787</div></td></tr><tr><td style="font-weight:bold;vertical-align:top;">pct</td><td style="vertical-align:top;">:</td><td><div>81.0</div></td></tr><tr><td style="font-weight:bold;vertical-align:top;">position</td><td style="vertical-align:top;">:</td><td><div>contre</div></td></tr></table></div></td></tr><tr><td><div><table><tr><td style="font-weight:bold;vertical-align:top;">big</td><td style="vertical-align:top;">:</td><td><div>False</div></td></tr><tr><td style="font-weight:bold;vertical-align:top;">icon</td><td style="vertical-align:top;">:</td><td><div>meh-o</div></td></tr><tr><td style="font-weight:bold;vertical-align:top;">libelle</td><td style="vertical-align:top;">:</td><td><div>abstention</div></td></tr><tr><td style="font-weight:bold;vertical-align:top;">n</td><td style="vertical-align:top;">:</td><td><div>15</div></td></tr><tr><td style="font-weight:bold;vertical-align:top;">pct</td><td style="vertical-align:top;">:</td><td><div>0.0</div></td></tr><tr><td style="font-weight:bold;vertical-align:top;">position</td><td style="vertical-align:top;">:</td><td><div>abstention</div></td></tr></table></div></td></tr></table></div></td></tr><tr><td style="font-weight:bold;vertical-align:top;">stats_total</td><td style="vertical-align:top;">:</td><td><div><table><tr><td><div><table><tr><td style="font-weight:bold;vertical-align:top;">class</td><td style="vertical-align:top;">:</td><td><div>pct</div></td></tr><tr><td style="font-weight:bold;vertical-align:top;">icon</td><td style="vertical-align:top;">:</td><td><div>thumbs-up</div></td></tr><tr><td style="font-weight:bold;vertical-align:top;">libelle</td><td style="vertical-align:top;">:</td><td><div>votes pour</div></td></tr><tr><td style="font-weight:bold;vertical-align:top;">n</td><td style="vertical-align:top;">:</td><td><div>895</div></td></tr><tr><td style="font-weight:bold;vertical-align:top;">pct</td><td style="vertical-align:top;">:</td><td><div>8.0</div></td></tr><tr><td style="font-weight:bold;vertical-align:top;">position</td><td style="vertical-align:top;">:</td><td><div>pour</div></td></tr></table></div></td></tr><tr><td><div><table><tr><td style="font-weight:bold;vertical-align:top;">class</td><td style="vertical-align:top;">:</td><td><div>pct</div></td></tr><tr><td style="font-weight:bold;vertical-align:top;">icon</td><td style="vertical-align:top;">:</td><td><div>thumbs-down</div></td></tr><tr><td style="font-weight:bold;vertical-align:top;">libelle</td><td style="vertical-align:top;">:</td><td><div>votes contre</div></td></tr><tr><td style="font-weight:bold;vertical-align:top;">n</td><td style="vertical-align:top;">:</td><td><div>3787</div></td></tr><tr><td style="font-weight:bold;vertical-align:top;">pct</td><td style="vertical-align:top;">:</td><td><div>32.0</div></td></tr><tr><td style="font-weight:bold;vertical-align:top;">position</td><td style="vertical-align:top;">:</td><td><div>contre</div></td></tr></table></div></td></tr><tr><td><div><table><tr><td style="font-weight:bold;vertical-align:top;">class</td><td style="vertical-align:top;">:</td><td><div>pct</div></td></tr><tr><td style="font-weight:bold;vertical-align:top;">icon</td><td style="vertical-align:top;">:</td><td><div>meh-o</div></td></tr><tr><td style="font-weight:bold;vertical-align:top;">libelle</td><td style="vertical-align:top;">:</td><td><div>abstention</div></td></tr><tr><td style="font-weight:bold;vertical-align:top;">n</td><td style="vertical-align:top;">:</td><td><div>15</div></td></tr><tr><td style="font-weight:bold;vertical-align:top;">pct</td><td style="vertical-align:top;">:</td><td><div>0.0</div></td></tr><tr><td style="font-weight:bold;vertical-align:top;">position</td><td style="vertical-align:top;">:</td><td><div>abstention</div></td></tr></table></div></td></tr><tr><td><div><table><tr><td style="font-weight:bold;vertical-align:top;">class</td><td style="vertical-align:top;">:</td><td><div>pct</div></td></tr><tr><td style="font-weight:bold;vertical-align:top;">icon</td><td style="vertical-align:top;">:</td><td><div>plane</div></td></tr><tr><td style="font-weight:bold;vertical-align:top;">libelle</td><td style="vertical-align:top;">:</td><td><div>absents</div></td></tr><tr><td style="font-weight:bold;vertical-align:top;">n</td><td style="vertical-align:top;">:</td><td><div>6912</div></td></tr><tr><td style="font-weight:bold;vertical-align:top;">pct</td><td style="vertical-align:top;">:</td><td><div>58.0</div></td></tr><tr><td style="font-weight:bold;vertical-align:top;">position</td><td style="vertical-align:top;">:</td><td><div>absent</div></td></tr></table></div></td></tr><tr><td><div><table><tr><td style="font-weight:bold;vertical-align:top;">class</td><td style="vertical-align:top;">:</td><td><div>pct</div></td></tr><tr><td style="font-weight:bold;vertical-align:top;">icon</td><td style="vertical-align:top;">:</td><td><div>ban</div></td></tr><tr><td style="font-weight:bold;vertical-align:top;">libelle</td><td style="vertical-align:top;">:</td><td><div>non votants (justifi\xc3\xa9s)</div></td></tr><tr><td style="font-weight:bold;vertical-align:top;">n</td><td style="vertical-align:top;">:</td><td><div>323</div></td></tr><tr><td style="font-weight:bold;vertical-align:top;">pct</td><td style="vertical-align:top;">:</td><td><div>3.0</div></td></tr><tr><td style="font-weight:bold;vertical-align:top;">position</td><td style="vertical-align:top;">:</td><td><div>nonVotant</div></td></tr></table></div></td></tr></table></div></td></tr></table></div></td></tr><tr><td><div><table><tr><td style="font-weight:bold;vertical-align:top;">cercles</td><td style="vertical-align:top;">:</td><td><div><table></table></div></td></tr><tr><td style="font-weight:bold;vertical-align:top;">key</td><td style="vertical-align:top;">:</td><td><div>PO730970</div></td></tr><tr><td style="font-weight:bold;vertical-align:top;">label</td><td style="vertical-align:top;">:</td><td><div>Mouvement D\xc3\xa9mocrate et apparent\xc3\xa9s</div></td></tr><tr><td style="font-weight:bold;vertical-align:top;">nb</td><td style="vertical-align:top;">:</td><td><div><table><tr><td style="font-weight:bold;vertical-align:top;">absent</td><td style="vertical-align:top;">:</td><td><div>1369</div></td></tr><tr><td style="font-weight:bold;vertical-align:top;">abstention</td><td style="vertical-align:top;">:</td><td><div>2</div></td></tr><tr><td style="font-weight:bold;vertical-align:top;">contre</td><td style="vertical-align:top;">:</td><td><div>287</div></td></tr><tr><td style="font-weight:bold;vertical-align:top;">nonVotant</td><td style="vertical-align:top;">:</td><td><div>40</div></td></tr><tr><td style="font-weight:bold;vertical-align:top;">pour</td><td style="vertical-align:top;">:</td><td><div>88</div></td></tr></table></div></td></tr><tr><td style="font-weight:bold;vertical-align:top;">participation</td><td style="vertical-align:top;">:</td><td><div>22.0</div></td></tr><tr><td style="font-weight:bold;vertical-align:top;">stats</td><td style="vertical-align:top;">:</td><td><div><table><tr><td><div><table><tr><td style="font-weight:bold;vertical-align:top;">class</td><td style="vertical-align:top;">:</td><td><div>pct</div></td></tr><tr><td style="font-weight:bold;vertical-align:top;">icon</td><td style="vertical-align:top;">:</td><td><div>thumbs-up</div></td></tr><tr><td style="font-weight:bold;vertical-align:top;">libelle</td><td style="vertical-align:top;">:</td><td><div>votes pour</div></td></tr><tr><td style="font-weight:bold;vertical-align:top;">n</td><td style="vertical-align:top;">:</td><td><div>88</div></td></tr><tr><td style="font-weight:bold;vertical-align:top;">pct</td><td style="vertical-align:top;">:</td><td><div>5.0</div></td></tr><tr><td style="font-weight:bold;vertical-align:top;">position</td><td style="vertical-align:top;">:</td><td><div>pour</div></td></tr></table></div></td></tr><tr><td><div><table><tr><td style="font-weight:bold;vertical-align:top;">class</td><td style="vertical-align:top;">:</td><td><div>pct</div></td></tr><tr><td style="font-weight:bold;vertical-align:top;">icon</td><td style="vertical-align:top;">:</td><td><div>thumbs-down</div></td></tr><tr><td style="font-weight:bold;vertical-align:top;">libelle</td><td style="vertical-align:top;">:</td><td><div>votes contre</div></td></tr><tr><td style="font-weight:bold;vertical-align:top;">n</td><td style="vertical-align:top;">:</td><td><div>287</div></td></tr><tr><td style="font-weight:bold;vertical-align:top;">pct</td><td style="vertical-align:top;">:</td><td><div>16.0</div></td></tr><tr><td style="font-weight:bold;vertical-align:top;">position</td><td style="vertical-align:top;">:</td><td><div>contre</div></td></tr></table></div></td></tr><tr><td><div><table><tr><td style="font-weight:bold;vertical-align:top;">class</td><td style="vertical-align:top;">:</td><td><div>pct</div></td></tr><tr><td style="font-weight:bold;vertical-align:top;">icon</td><td style="vertical-align:top;">:</td><td><div>meh-o</div></td></tr><tr><td style="font-weight:bold;vertical-align:top;">libelle</td><td style="vertical-align:top;">:</td><td><div>abstention</div></td></tr><tr><td style="font-weight:bold;vertical-align:top;">n</td><td style="vertical-align:top;">:</td><td><div>2</div></td></tr><tr><td style="font-weight:bold;vertical-align:top;">pct</td><td style="vertical-align:top;">:</td><td><div>0.0</div></td></tr><tr><td style="font-weight:bold;vertical-align:top;">position</td><td style="vertical-align:top;">:</td><td><div>abstention</div></td></tr></table></div></td></tr><tr><td><div><table><tr><td style="font-weight:bold;vertical-align:top;">class</td><td style="vertical-align:top;">:</td><td><div>pct</div></td></tr><tr><td style="font-weight:bold;vertical-align:top;">icon</td><td style="vertical-align:top;">:</td><td><div>plane</div></td></tr><tr><td style="font-weight:bold;vertical-align:top;">libelle</td><td style="vertical-align:top;">:</td><td><div>absents</div></td></tr><tr><td style="font-weight:bold;vertical-align:top;">n</td><td style="vertical-align:top;">:</td><td><div>1369</div></td></tr><tr><td style="font-weight:bold;vertical-align:top;">pct</td><td style="vertical-align:top;">:</td><td><div>77.0</div></td></tr><tr><td style="font-weight:bold;vertical-align:top;">position</td><td style="vertical-align:top;">:</td><td><div>absent</div></td></tr></table></div></td></tr><tr><td><div><table><tr><td style="font-weight:bold;vertical-align:top;">class</td><td style="vertical-align:top;">:</td><td><div>pct</div></td></tr><tr><td style="font-weight:bold;vertical-align:top;">icon</td><td style="vertical-align:top;">:</td><td><div>ban</div></td></tr><tr><td style="font-weight:bold;vertical-align:top;">libelle</td><td style="vertical-align:top;">:</td><td><div>non votants (justifi\xc3\xa9s)</div></td></tr><tr><td style="font-weight:bold;vertical-align:top;">n</td><td style="vertical-align:top;">:</td><td><div>40</div></td></tr><tr><td style="font-weight:bold;vertical-align:top;">pct</td><td style="vertical-align:top;">:</td><td><div>2.0</div></td></tr><tr><td style="font-weight:bold;vertical-align:top;">position</td><td style="vertical-align:top;">:</td><td><div>nonVotant</div></td></tr></table></div></td></tr></table></div></td></tr><tr><td style="font-weight:bold;vertical-align:top;">stats_exprime</td><td style="vertical-align:top;">:</td><td><div><table><tr><td><div><table><tr><td style="font-weight:bold;vertical-align:top;">big</td><td style="vertical-align:top;">:</td><td><div>False</div></td></tr><tr><td style="font-weight:bold;vertical-align:top;">icon</td><td style="vertical-align:top;">:</td><td><div>thumbs-up</div></td></tr><tr><td style="font-weight:bold;vertical-align:top;">libelle</td><td style="vertical-align:top;">:</td><td><div>votes pour</div></td></tr><tr><td style="font-weight:bold;vertical-align:top;">n</td><td style="vertical-align:top;">:</td><td><div>88</div></td></tr><tr><td style="font-weight:bold;vertical-align:top;">pct</td><td style="vertical-align:top;">:</td><td><div>23.0</div></td></tr><tr><td style="font-weight:bold;vertical-align:top;">position</td><td style="vertical-align:top;">:</td><td><div>pour</div></td></tr></table></div></td></tr><tr><td><div><table><tr><td style="font-weight:bold;vertical-align:top;">big</td><td style="vertical-align:top;">:</td><td><div>False</div></td></tr><tr><td style="font-weight:bold;vertical-align:top;">icon</td><td style="vertical-align:top;">:</td><td><div>thumbs-down</div></td></tr><tr><td style="font-weight:bold;vertical-align:top;">libelle</td><td style="vertical-align:top;">:</td><td><div>votes contre</div></td></tr><tr><td style="font-weight:bold;vertical-align:top;">n</td><td style="vertical-align:top;">:</td><td><div>287</div></td></tr><tr><td style="font-weight:bold;vertical-align:top;">pct</td><td style="vertical-align:top;">:</td><td><div>76.0</div></td></tr><tr><td style="font-weight:bold;vertical-align:top;">position</td><td style="vertical-align:top;">:</td><td><div>contre</div></td></tr></table></div></td></tr><tr><td><div><table><tr><td style="font-weight:bold;vertical-align:top;">big</td><td style="vertical-align:top;">:</td><td><div>False</div></td></tr><tr><td style="font-weight:bold;vertical-align:top;">icon</td><td style="vertical-align:top;">:</td><td><div>meh-o</div></td></tr><tr><td style="font-weight:bold;vertical-align:top;">libelle</td><td style="vertical-align:top;">:</td><td><div>abstention</div></td></tr><tr><td style="font-weight:bold;vertical-align:top;">n</td><td style="vertical-align:top;">:</td><td><div>2</div></td></tr><tr><td style="font-weight:bold;vertical-align:top;">pct</td><td style="vertical-align:top;">:</td><td><div>1.0</div></td></tr><tr><td style="font-weight:bold;vertical-align:top;">position</td><td style="vertical-align:top;">:</td><td><div>abstention</div></td></tr></table></div></td></tr></table></div></td></tr><tr><td style="font-weight:bold;vertical-align:top;">stats_total</td><td style="vertical-align:top;">:</td><td><div><table><tr><td><div><table><tr><td style="font-weight:bold;vertical-align:top;">class</td><td style="vertical-align:top;">:</td><td><div>pct</div></td></tr><tr><td style="font-weight:bold;vertical-align:top;">icon</td><td style="vertical-align:top;">:</td><td><div>thumbs-up</div></td></tr><tr><td style="font-weight:bold;vertical-align:top;">libelle</td><td style="vertical-align:top;">:</td><td><div>votes pour</div></td></tr><tr><td style="font-weight:bold;vertical-align:top;">n</td><td style="vertical-align:top;">:</td><td><div>88</div></td></tr><tr><td style="font-weight:bold;vertical-align:top;">pct</td><td style="vertical-align:top;">:</td><td><div>5.0</div></td></tr><tr><td style="font-weight:bold;vertical-align:top;">position</td><td style="vertical-align:top;">:</td><td><div>pour</div></td></tr></table></div></td></tr><tr><td><div><table><tr><td style="font-weight:bold;vertical-align:top;">class</td><td style="vertical-align:top;">:</td><td><div>pct</div></td></tr><tr><td style="font-weight:bold;vertical-align:top;">icon</td><td style="vertical-align:top;">:</td><td><div>thumbs-down</div></td></tr><tr><td style="font-weight:bold;vertical-align:top;">libelle</td><td style="vertical-align:top;">:</td><td><div>votes contre</div></td></tr><tr><td style="font-weight:bold;vertical-align:top;">n</td><td style="vertical-align:top;">:</td><td><div>287</div></td></tr><tr><td style="font-weight:bold;vertical-align:top;">pct</td><td style="vertical-align:top;">:</td><td><div>16.0</div></td></tr><tr><td style="font-weight:bold;vertical-align:top;">position</td><td style="vertical-align:top;">:</td><td><div>contre</div></td></tr></table></div></td></tr><tr><td><div><table><tr><td style="font-weight:bold;vertical-align:top;">class</td><td style="vertical-align:top;">:</td><td><div>pct</div></td></tr><tr><td style="font-weight:bold;vertical-align:top;">icon</td><td style="vertical-align:top;">:</td><td><div>meh-o</div></td></tr><tr><td style="font-weight:bold;vertical-align:top;">libelle</td><td style="vertical-align:top;">:</td><td><div>abstention</div></td></tr><tr><td style="font-weight:bold;vertical-align:top;">n</td><td style="vertical-align:top;">:</td><td><div>2</div></td></tr><tr><td style="font-weight:bold;vertical-align:top;">pct</td><td style="vertical-align:top;">:</td><td><div>0.0</div></td></tr><tr><td style="font-weight:bold;vertical-align:top;">position</td><td style="vertical-align:top;">:</td><td><div>abstention</div></td></tr></table></div></td></tr><tr><td><div><table><tr><td style="font-weight:bold;vertical-align:top;">class</td><td style="vertical-align:top;">:</td><td><div>pct</div></td></tr><tr><td style="font-weight:bold;vertical-align:top;">icon</td><td style="vertical-align:top;">:</td><td><div>plane</div></td></tr><tr><td style="font-weight:bold;vertical-align:top;">libelle</td><td style="vertical-align:top;">:</td><td><div>absents</div></td></tr><tr><td style="font-weight:bold;vertical-align:top;">n</td><td style="vertical-align:top;">:</td><td><div>1369</div></td></tr><tr><td style="font-weight:bold;vertical-align:top;">pct</td><td style="vertical-align:top;">:</td><td><div>77.0</div></td></tr><tr><td style="font-weight:bold;vertical-align:top;">position</td><td style="vertical-align:top;">:</td><td><div>absent</div></td></tr></table></div></td></tr><tr><td><div><table><tr><td style="font-weight:bold;vertical-align:top;">class</td><td style="vertical-align:top;">:</td><td><div>pct</div></td></tr><tr><td style="font-weight:bold;vertical-align:top;">icon</td><td style="vertical-align:top;">:</td><td><div>ban</div></td></tr><tr><td style="font-weight:bold;vertical-align:top;">libelle</td><td style="vertical-align:top;">:</td><td><div>non votants (justifi\xc3\xa9s)</div></td></tr><tr><td style="font-weight:bold;vertical-align:top;">n</td><td style="vertical-align:top;">:</td><td><div>40</div></td></tr><tr><td style="font-weight:bold;vertical-align:top;">pct</td><td style="vertical-align:top;">:</td><td><div>2.0</div></td></tr><tr><td style="font-weight:bold;vertical-align:top;">position</td><td style="vertical-align:top;">:</td><td><div>nonVotant</div></td></tr></table></div></td></tr></table></div></td></tr></table></div></td></tr><tr><td><div><table><tr><td style="font-weight:bold;vertical-align:top;">cercles</td><td style="vertical-align:top;">:</td><td><div><table></table></div></td></tr><tr><td style="font-weight:bold;vertical-align:top;">key</td><td style="vertical-align:top;">:</td><td><div>PO723569</div></td></tr><tr><td style="font-weight:bold;vertical-align:top;">label</td><td style="vertical-align:top;">:</td><td><div>Non inscrit</div></td></tr><tr><td style="font-weight:bold;vertical-align:top;">nb</td><td style="vertical-align:top;">:</td><td><div><table><tr><td style="font-weight:bold;vertical-align:top;">absent</td><td style="vertical-align:top;">:</td><td><div>482</div></td></tr><tr><td style="font-weight:bold;vertical-align:top;">abstention</td><td style="vertical-align:top;">:</td><td><div>53</div></td></tr><tr><td style="font-weight:bold;vertical-align:top;">contre</td><td style="vertical-align:top;">:</td><td><div>52</div></td></tr><tr><td style="font-weight:bold;vertical-align:top;">nonVotant</td><td style="vertical-align:top;">:</td><td><div>0</div></td></tr><tr><td style="font-weight:bold;vertical-align:top;">pour</td><td style="vertical-align:top;">:</td><td><div>59</div></td></tr></table></div></td></tr><tr><td style="font-weight:bold;vertical-align:top;">participation</td><td style="vertical-align:top;">:</td><td><div>25.0</div></td></tr><tr><td style="font-weight:bold;vertical-align:top;">stats</td><td style="vertical-align:top;">:</td><td><div><table><tr><td><div><table><tr><td style="font-weight:bold;vertical-align:top;">class</td><td style="vertical-align:top;">:</td><td><div>pct</div></td></tr><tr><td style="font-weight:bold;vertical-align:top;">icon</td><td style="vertical-align:top;">:</td><td><div>thumbs-up</div></td></tr><tr><td style="font-weight:bold;vertical-align:top;">libelle</td><td style="vertical-align:top;">:</td><td><div>votes pour</div></td></tr><tr><td style="font-weight:bold;vertical-align:top;">n</td><td style="vertical-align:top;">:</td><td><div>59</div></td></tr><tr><td style="font-weight:bold;vertical-align:top;">pct</td><td style="vertical-align:top;">:</td><td><div>9.0</div></td></tr><tr><td style="font-weight:bold;vertical-align:top;">position</td><td style="vertical-align:top;">:</td><td><div>pour</div></td></tr></table></div></td></tr><tr><td><div><table><tr><td style="font-weight:bold;vertical-align:top;">class</td><td style="vertical-align:top;">:</td><td><div>pct</div></td></tr><tr><td style="font-weight:bold;vertical-align:top;">icon</td><td style="vertical-align:top;">:</td><td><div>thumbs-down</div></td></tr><tr><td style="font-weight:bold;vertical-align:top;">libelle</td><td style="vertical-align:top;">:</td><td><div>votes contre</div></td></tr><tr><td style="font-weight:bold;vertical-align:top;">n</td><td style="vertical-align:top;">:</td><td><div>52</div></td></tr><tr><td style="font-weight:bold;vertical-align:top;">pct</td><td style="vertical-align:top;">:</td><td><div>8.0</div></td></tr><tr><td style="font-weight:bold;vertical-align:top;">position</td><td style="vertical-align:top;">:</td><td><div>contre</div></td></tr></table></div></td></tr><tr><td><div><table><tr><td style="font-weight:bold;vertical-align:top;">class</td><td style="vertical-align:top;">:</td><td><div>pct</div></td></tr><tr><td style="font-weight:bold;vertical-align:top;">icon</td><td style="vertical-align:top;">:</td><td><div>meh-o</div></td></tr><tr><td style="font-weight:bold;vertical-align:top;">libelle</td><td style="vertical-align:top;">:</td><td><div>abstention</div></td></tr><tr><td style="font-weight:bold;vertical-align:top;">n</td><td style="vertical-align:top;">:</td><td><div>53</div></td></tr><tr><td style="font-weight:bold;vertical-align:top;">pct</td><td style="vertical-align:top;">:</td><td><div>8.0</div></td></tr><tr><td style="font-weight:bold;vertical-align:top;">position</td><td style="vertical-align:top;">:</td><td><div>abstention</div></td></tr></table></div></td></tr><tr><td><div><table><tr><td style="font-weight:bold;vertical-align:top;">class</td><td style="vertical-align:top;">:</td><td><div>pct</div></td></tr><tr><td style="font-weight:bold;vertical-align:top;">icon</td><td style="vertical-align:top;">:</td><td><div>plane</div></td></tr><tr><td style="font-weight:bold;vertical-align:top;">libelle</td><td style="vertical-align:top;">:</td><td><div>absents</div></td></tr><tr><td style="font-weight:bold;vertical-align:top;">n</td><td style="vertical-align:top;">:</td><td><div>482</div></td></tr><tr><td style="font-weight:bold;vertical-align:top;">pct</td><td style="vertical-align:top;">:</td><td><div>75.0</div></td></tr><tr><td style="font-weight:bold;vertical-align:top;">position</td><td style="vertical-align:top;">:</td><td><div>absent</div></td></tr></table></div></td></tr><tr><td><div><table><tr><td style="font-weight:bold;vertical-align:top;">class</td><td style="vertical-align:top;">:</td><td><div>pct</div></td></tr><tr><td style="font-weight:bold;vertical-align:top;">icon</td><td style="vertical-align:top;">:</td><td><div>ban</div></td></tr><tr><td style="font-weight:bold;vertical-align:top;">libelle</td><td style="vertical-align:top;">:</td><td><div>non votants (justifi\xc3\xa9s)</div></td></tr><tr><td style="font-weight:bold;vertical-align:top;">n</td><td style="vertical-align:top;">:</td><td><div>0</div></td></tr><tr><td style="font-weight:bold;vertical-align:top;">pct</td><td style="vertical-align:top;">:</td><td><div>0.0</div></td></tr><tr><td style="font-weight:bold;vertical-align:top;">position</td><td style="vertical-align:top;">:</td><td><div>nonVotant</div></td></tr></table></div></td></tr></table></div></td></tr><tr><td style="font-weight:bold;vertical-align:top;">stats_exprime</td><td style="vertical-align:top;">:</td><td><div><table><tr><td><div><table><tr><td style="font-weight:bold;vertical-align:top;">big</td><td style="vertical-align:top;">:</td><td><div>False</div></td></tr><tr><td style="font-weight:bold;vertical-align:top;">icon</td><td style="vertical-align:top;">:</td><td><div>thumbs-up</div></td></tr><tr><td style="font-weight:bold;vertical-align:top;">libelle</td><td style="vertical-align:top;">:</td><td><div>votes pour</div></td></tr><tr><td style="font-weight:bold;vertical-align:top;">n</td><td style="vertical-align:top;">:</td><td><div>59</div></td></tr><tr><td style="font-weight:bold;vertical-align:top;">pct</td><td style="vertical-align:top;">:</td><td><div>36.0</div></td></tr><tr><td style="font-weight:bold;vertical-align:top;">position</td><td style="vertical-align:top;">:</td><td><div>pour</div></td></tr></table></div></td></tr><tr><td><div><table><tr><td style="font-weight:bold;vertical-align:top;">big</td><td style="vertical-align:top;">:</td><td><div>False</div></td></tr><tr><td style="font-weight:bold;vertical-align:top;">icon</td><td style="vertical-align:top;">:</td><td><div>thumbs-down</div></td></tr><tr><td style="font-weight:bold;vertical-align:top;">libelle</td><td style="vertical-align:top;">:</td><td><div>votes contre</div></td></tr><tr><td style="font-weight:bold;vertical-align:top;">n</td><td style="vertical-align:top;">:</td><td><div>52</div></td></tr><tr><td style="font-weight:bold;vertical-align:top;">pct</td><td style="vertical-align:top;">:</td><td><div>32.0</div></td></tr><tr><td style="font-weight:bold;vertical-align:top;">position</td><td style="vertical-align:top;">:</td><td><div>contre</div></td></tr></table></div></td></tr><tr><td><div><table><tr><td style="font-weight:bold;vertical-align:top;">big</td><td style="vertical-align:top;">:</td><td><div>False</div></td></tr><tr><td style="font-weight:bold;vertical-align:top;">icon</td><td style="vertical-align:top;">:</td><td><div>meh-o</div></td></tr><tr><td style="font-weight:bold;vertical-align:top;">libelle</td><td style="vertical-align:top;">:</td><td><div>abstention</div></td></tr><tr><td style="font-weight:bold;vertical-align:top;">n</td><td style="vertical-align:top;">:</td><td><div>53</div></td></tr><tr><td style="font-weight:bold;vertical-align:top;">pct</td><td style="vertical-align:top;">:</td><td><div>32.0</div></td></tr><tr><td style="font-weight:bold;vertical-align:top;">position</td><td style="vertical-align:top;">:</td><td><div>abstention</div></td></tr></table></div></td></tr></table></div></td></tr><tr><td style="font-weight:bold;vertical-align:top;">stats_total</td><td style="vertical-align:top;">:</td><td><div><table><tr><td><div><table><tr><td style="font-weight:bold;vertical-align:top;">class</td><td style="vertical-align:top;">:</td><td><div>pct</div></td></tr><tr><td style="font-weight:bold;vertical-align:top;">icon</td><td style="vertical-align:top;">:</td><td><div>thumbs-up</div></td></tr><tr><td style="font-weight:bold;vertical-align:top;">libelle</td><td style="vertical-align:top;">:</td><td><div>votes pour</div></td></tr><tr><td style="font-weight:bold;vertical-align:top;">n</td><td style="vertical-align:top;">:</td><td><div>59</div></td></tr><tr><td style="font-weight:bold;vertical-align:top;">pct</td><td style="vertical-align:top;">:</td><td><div>9.0</div></td></tr><tr><td style="font-weight:bold;vertical-align:top;">position</td><td style="vertical-align:top;">:</td><td><div>pour</div></td></tr></table></div></td></tr><tr><td><div><table><tr><td style="font-weight:bold;vertical-align:top;">class</td><td style="vertical-align:top;">:</td><td><div>pct</div></td></tr><tr><td style="font-weight:bold;vertical-align:top;">icon</td><td style="vertical-align:top;">:</td><td><div>thumbs-down</div></td></tr><tr><td style="font-weight:bold;vertical-align:top;">libelle</td><td style="vertical-align:top;">:</td><td><div>votes contre</div></td></tr><tr><td style="font-weight:bold;vertical-align:top;">n</td><td style="vertical-align:top;">:</td><td><div>52</div></td></tr><tr><td style="font-weight:bold;vertical-align:top;">pct</td><td style="vertical-align:top;">:</td><td><div>8.0</div></td></tr><tr><td style="font-weight:bold;vertical-align:top;">position</td><td style="vertical-align:top;">:</td><td><div>contre</div></td></tr></table></div></td></tr><tr><td><div><table><tr><td style="font-weight:bold;vertical-align:top;">class</td><td style="vertical-align:top;">:</td><td><div>pct</div></td></tr><tr><td style="font-weight:bold;vertical-align:top;">icon</td><td style="vertical-align:top;">:</td><td><div>meh-o</div></td></tr><tr><td style="font-weight:bold;vertical-align:top;">libelle</td><td style="vertical-align:top;">:</td><td><div>abstention</div></td></tr><tr><td style="font-weight:bold;vertical-align:top;">n</td><td style="vertical-align:top;">:</td><td><div>53</div></td></tr><tr><td style="font-weight:bold;vertical-align:top;">pct</td><td style="vertical-align:top;">:</td><td><div>8.0</div></td></tr><tr><td style="font-weight:bold;vertical-align:top;">position</td><td style="vertical-align:top;">:</td><td><div>abstention</div></td></tr></table></div></td></tr><tr><td><div><table><tr><td style="font-weight:bold;vertical-align:top;">class</td><td style="vertical-align:top;">:</td><td><div>pct</div></td></tr><tr><td style="font-weight:bold;vertical-align:top;">icon</td><td style="vertical-align:top;">:</td><td><div>plane</div></td></tr><tr><td style="font-weight:bold;vertical-align:top;">libelle</td><td style="vertical-align:top;">:</td><td><div>absents</div></td></tr><tr><td style="font-weight:bold;vertical-align:top;">n</td><td style="vertical-align:top;">:</td><td><div>482</div></td></tr><tr><td style="font-weight:bold;vertical-align:top;">pct</td><td style="vertical-align:top;">:</td><td><div>75.0</div></td></tr><tr><td style="font-weight:bold;vertical-align:top;">position</td><td style="vertical-align:top;">:</td><td><div>absent</div></td></tr></table></div></td></tr><tr><td><div><table><tr><td style="font-weight:bold;vertical-align:top;">class</td><td style="vertical-align:top;">:</td><td><div>pct</div></td></tr><tr><td style="font-weight:bold;vertical-align:top;">icon</td><td style="vertical-align:top;">:</td><td><div>ban</div></td></tr><tr><td style="font-weight:bold;vertical-align:top;">libelle</td><td style="vertical-align:top;">:</td><td><div>non votants (justifi\xc3\xa9s)</div></td></tr><tr><td style="font-weight:bold;vertical-align:top;">n</td><td style="vertical-align:top;">:</td><td><div>0</div></td></tr><tr><td style="font-weight:bold;vertical-align:top;">pct</td><td style="vertical-align:top;">:</td><td><div>0.0</div></td></tr><tr><td style="font-weight:bold;vertical-align:top;">position</td><td style="vertical-align:top;">:</td><td><div>nonVotant</div></td></tr></table></div></td></tr></table></div></td></tr></table></div></td></tr><tr><td><div><table><tr><td style="font-weight:bold;vertical-align:top;">cercles</td><td style="vertical-align:top;">:</td><td><div><table></table></div></td></tr><tr><td style="font-weight:bold;vertical-align:top;">key</td><td style="vertical-align:top;">:</td><td><div>PO730934</div></td></tr><tr><td style="font-weight:bold;vertical-align:top;">label</td><td style="vertical-align:top;">:</td><td><div>Les R\xc3\xa9publicains</div></td></tr><tr><td style="font-weight:bold;vertical-align:top;">nb</td><td style="vertical-align:top;">:</td><td><div><table><tr><td style="font-weight:bold;vertical-align:top;">absent</td><td style="vertical-align:top;">:</td><td><div>3266</div></td></tr><tr><td style="font-weight:bold;vertical-align:top;">abstention</td><td style="vertical-align:top;">:</td><td><div>92</div></td></tr><tr><td style="font-weight:bold;vertical-align:top;">contre</td><td style="vertical-align:top;">:</td><td><div>353</div></td></tr><tr><td style="font-weight:bold;vertical-align:top;">nonVotant</td><td style="vertical-align:top;">:</td><td><div>0</div></td></tr><tr><td style="font-weight:bold;vertical-align:top;">pour</td><td style="vertical-align:top;">:</td><td><div>89</div></td></tr></table></div></td></tr><tr><td style="font-weight:bold;vertical-align:top;">participation</td><td style="vertical-align:top;">:</td><td><div>14.0</div></td></tr><tr><td style="font-weight:bold;vertical-align:top;">stats</td><td style="vertical-align:top;">:</td><td><div><table><tr><td><div><table><tr><td style="font-weight:bold;vertical-align:top;">class</td><td style="vertical-align:top;">:</td><td><div>pct</div></td></tr><tr><td style="font-weight:bold;vertical-align:top;">icon</td><td style="vertical-align:top;">:</td><td><div>thumbs-up</div></td></tr><tr><td style="font-weight:bold;vertical-align:top;">libelle</td><td style="vertical-align:top;">:</td><td><div>votes pour</div></td></tr><tr><td style="font-weight:bold;vertical-align:top;">n</td><td style="vertical-align:top;">:</td><td><div>89</div></td></tr><tr><td style="font-weight:bold;vertical-align:top;">pct</td><td style="vertical-align:top;">:</td><td><div>2.0</div></td></tr><tr><td style="font-weight:bold;vertical-align:top;">position</td><td style="vertical-align:top;">:</td><td><div>pour</div></td></tr></table></div></td></tr><tr><td><div><table><tr><td style="font-weight:bold;vertical-align:top;">class</td><td style="vertical-align:top;">:</td><td><div>pct</div></td></tr><tr><td style="font-weight:bold;vertical-align:top;">icon</td><td style="vertical-align:top;">:</td><td><div>thumbs-down</div></td></tr><tr><td style="font-weight:bold;vertical-align:top;">libelle</td><td style="vertical-align:top;">:</td><td><div>votes contre</div></td></tr><tr><td style="font-weight:bold;vertical-align:top;">n</td><td style="vertical-align:top;">:</td><td><div>353</div></td></tr><tr><td style="font-weight:bold;vertical-align:top;">pct</td><td style="vertical-align:top;">:</td><td><div>9.0</div></td></tr><tr><td style="font-weight:bold;vertical-align:top;">position</td><td style="vertical-align:top;">:</td><td><div>contre</div></td></tr></table></div></td></tr><tr><td><div><table><tr><td style="font-weight:bold;vertical-align:top;">class</td><td style="vertical-align:top;">:</td><td><div>pct</div></td></tr><tr><td style="font-weight:bold;vertical-align:top;">icon</td><td style="vertical-align:top;">:</td><td><div>meh-o</div></td></tr><tr><td style="font-weight:bold;vertical-align:top;">libelle</td><td style="vertical-align:top;">:</td><td><div>abstention</div></td></tr><tr><td style="font-weight:bold;vertical-align:top;">n</td><td style="vertical-align:top;">:</td><td><div>92</div></td></tr><tr><td style="font-weight:bold;vertical-align:top;">pct</td><td style="vertical-align:top;">:</td><td><div>2.0</div></td></tr><tr><td style="font-weight:bold;vertical-align:top;">position</td><td style="vertical-align:top;">:</td><td><div>abstention</div></td></tr></table></div></td></tr><tr><td><div><table><tr><td style="font-weight:bold;vertical-align:top;">class</td><td style="vertical-align:top;">:</td><td><div>pct</div></td></tr><tr><td style="font-weight:bold;vertical-align:top;">icon</td><td style="vertical-align:top;">:</td><td><div>plane</div></td></tr><tr><td style="font-weight:bold;vertical-align:top;">libelle</td><td style="vertical-align:top;">:</td><td><div>absents</div></td></tr><tr><td style="font-weight:bold;vertical-align:top;">n</td><td style="vertical-align:top;">:</td><td><div>3266</div></td></tr><tr><td style="font-weight:bold;vertical-align:top;">pct</td><td style="vertical-align:top;">:</td><td><div>86.0</div></td></tr><tr><td style="font-weight:bold;vertical-align:top;">position</td><td style="vertical-align:top;">:</td><td><div>absent</div></td></tr></table></div></td></tr><tr><td><div><table><tr><td style="font-weight:bold;vertical-align:top;">class</td><td style="vertical-align:top;">:</td><td><div>pct</div></td></tr><tr><td style="font-weight:bold;vertical-align:top;">icon</td><td style="vertical-align:top;">:</td><td><div>ban</div></td></tr><tr><td style="font-weight:bold;vertical-align:top;">libelle</td><td style="vertical-align:top;">:</td><td><div>non votants (justifi\xc3\xa9s)</div></td></tr><tr><td style="font-weight:bold;vertical-align:top;">n</td><td style="vertical-align:top;">:</td><td><div>0</div></td></tr><tr><td style="font-weight:bold;vertical-align:top;">pct</td><td style="vertical-align:top;">:</td><td><div>0.0</div></td></tr><tr><td style="font-weight:bold;vertical-align:top;">position</td><td style="vertical-align:top;">:</td><td><div>nonVotant</div></td></tr></table></div></td></tr></table></div></td></tr><tr><td style="font-weight:bold;vertical-align:top;">stats_exprime</td><td style="vertical-align:top;">:</td><td><div><table><tr><td><div><table><tr><td style="font-weight:bold;vertical-align:top;">big</td><td style="vertical-align:top;">:</td><td><div>False</div></td></tr><tr><td style="font-weight:bold;vertical-align:top;">icon</td><td style="vertical-align:top;">:</td><td><div>thumbs-up</div></td></tr><tr><td style="font-weight:bold;vertical-align:top;">libelle</td><td style="vertical-align:top;">:</td><td><div>votes pour</div></td></tr><tr><td style="font-weight:bold;vertical-align:top;">n</td><td style="vertical-align:top;">:</td><td><div>89</div></td></tr><tr><td style="font-weight:bold;vertical-align:top;">pct</td><td style="vertical-align:top;">:</td><td><div>17.0</div></td></tr><tr><td style="font-weight:bold;vertical-align:top;">position</td><td style="vertical-align:top;">:</td><td><div>pour</div></td></tr></table></div></td></tr><tr><td><div><table><tr><td style="font-weight:bold;vertical-align:top;">big</td><td style="vertical-align:top;">:</td><td><div>False</div></td></tr><tr><td style="font-weight:bold;vertical-align:top;">icon</td><td style="vertical-align:top;">:</td><td><div>thumbs-down</div></td></tr><tr><td style="font-weight:bold;vertical-align:top;">libelle</td><td style="vertical-align:top;">:</td><td><div>votes contre</div></td></tr><tr><td style="font-weight:bold;vertical-align:top;">n</td><td style="vertical-align:top;">:</td><td><div>353</div></td></tr><tr><td style="font-weight:bold;vertical-align:top;">pct</td><td style="vertical-align:top;">:</td><td><div>66.0</div></td></tr><tr><td style="font-weight:bold;vertical-align:top;">position</td><td style="vertical-align:top;">:</td><td><div>contre</div></td></tr></table></div></td></tr><tr><td><div><table><tr><td style="font-weight:bold;vertical-align:top;">big</td><td style="vertical-align:top;">:</td><td><div>False</div></td></tr><tr><td style="font-weight:bold;vertical-align:top;">icon</td><td style="vertical-align:top;">:</td><td><div>meh-o</div></td></tr><tr><td style="font-weight:bold;vertical-align:top;">libelle</td><td style="vertical-align:top;">:</td><td><div>abstention</div></td></tr><tr><td style="font-weight:bold;vertical-align:top;">n</td><td style="vertical-align:top;">:</td><td><div>92</div></td></tr><tr><td style="font-weight:bold;vertical-align:top;">pct</td><td style="vertical-align:top;">:</td><td><div>17.0</div></td></tr><tr><td style="font-weight:bold;vertical-align:top;">position</td><td style="vertical-align:top;">:</td><td><div>abstention</div></td></tr></table></div></td></tr></table></div></td></tr><tr><td style="font-weight:bold;vertical-align:top;">stats_total</td><td style="vertical-align:top;">:</td><td><div><table><tr><td><div><table><tr><td style="font-weight:bold;vertical-align:top;">class</td><td style="vertical-align:top;">:</td><td><div>pct</div></td></tr><tr><td style="font-weight:bold;vertical-align:top;">icon</td><td style="vertical-align:top;">:</td><td><div>thumbs-up</div></td></tr><tr><td style="font-weight:bold;vertical-align:top;">libelle</td><td style="vertical-align:top;">:</td><td><div>votes pour</div></td></tr><tr><td style="font-weight:bold;vertical-align:top;">n</td><td style="vertical-align:top;">:</td><td><div>89</div></td></tr><tr><td style="font-weight:bold;vertical-align:top;">pct</td><td style="vertical-align:top;">:</td><td><div>2.0</div></td></tr><tr><td style="font-weight:bold;vertical-align:top;">position</td><td style="vertical-align:top;">:</td><td><div>pour</div></td></tr></table></div></td></tr><tr><td><div><table><tr><td style="font-weight:bold;vertical-align:top;">class</td><td style="vertical-align:top;">:</td><td><div>pct</div></td></tr><tr><td style="font-weight:bold;vertical-align:top;">icon</td><td style="vertical-align:top;">:</td><td><div>thumbs-down</div></td></tr><tr><td style="font-weight:bold;vertical-align:top;">libelle</td><td style="vertical-align:top;">:</td><td><div>votes contre</div></td></tr><tr><td style="font-weight:bold;vertical-align:top;">n</td><td style="vertical-align:top;">:</td><td><div>353</div></td></tr><tr><td style="font-weight:bold;vertical-align:top;">pct</td><td style="vertical-align:top;">:</td><td><div>9.0</div></td></tr><tr><td style="font-weight:bold;vertical-align:top;">position</td><td style="vertical-align:top;">:</td><td><div>contre</div></td></tr></table></div></td></tr><tr><td><div><table><tr><td style="font-weight:bold;vertical-align:top;">class</td><td style="vertical-align:top;">:</td><td><div>pct</div></td></tr><tr><td style="font-weight:bold;vertical-align:top;">icon</td><td style="vertical-align:top;">:</td><td><div>meh-o</div></td></tr><tr><td style="font-weight:bold;vertical-align:top;">libelle</td><td style="vertical-align:top;">:</td><td><div>abstention</div></td></tr><tr><td style="font-weight:bold;vertical-align:top;">n</td><td style="vertical-align:top;">:</td><td><div>92</div></td></tr><tr><td style="font-weight:bold;vertical-align:top;">pct</td><td style="vertical-align:top;">:</td><td><div>2.0</div></td></tr><tr><td style="font-weight:bold;vertical-align:top;">position</td><td style="vertical-align:top;">:</td><td><div>abstention</div></td></tr></table></div></td></tr><tr><td><div><table><tr><td style="font-weight:bold;vertical-align:top;">class</td><td style="vertical-align:top;">:</td><td><div>pct</div></td></tr><tr><td style="font-weight:bold;vertical-align:top;">icon</td><td style="vertical-align:top;">:</td><td><div>plane</div></td></tr><tr><td style="font-weight:bold;vertical-align:top;">libelle</td><td style="vertical-align:top;">:</td><td><div>absents</div></td></tr><tr><td style="font-weight:bold;vertical-align:top;">n</td><td style="vertical-align:top;">:</td><td><div>3266</div></td></tr><tr><td style="font-weight:bold;vertical-align:top;">pct</td><td style="vertical-align:top;">:</td><td><div>86.0</div></td></tr><tr><td style="font-weight:bold;vertical-align:top;">position</td><td style="vertical-align:top;">:</td><td><div>absent</div></td></tr></table></div></td></tr><tr><td><div><table><tr><td style="font-weight:bold;vertical-align:top;">class</td><td style="vertical-align:top;">:</td><td><div>pct</div></td></tr><tr><td style="font-weight:bold;vertical-align:top;">icon</td><td style="vertical-align:top;">:</td><td><div>ban</div></td></tr><tr><td style="font-weight:bold;vertical-align:top;">libelle</td><td style="vertical-align:top;">:</td><td><div>non votants (justifi\xc3\xa9s)</div></td></tr><tr><td style="font-weight:bold;vertical-align:top;">n</td><td style="vertical-align:top;">:</td><td><div>0</div></td></tr><tr><td style="font-weight:bold;vertical-align:top;">pct</td><td style="vertical-align:top;">:</td><td><div>0.0</div></td></tr><tr><td style="font-weight:bold;vertical-align:top;">position</td><td style="vertical-align:top;">:</td><td><div>nonVotant</div></td></tr></table></div></td></tr></table></div></td></tr></table></div></td></tr><tr><td><div><table><tr><td style="font-weight:bold;vertical-align:top;">cercles</td><td style="vertical-align:top;">:</td><td><div><table></table></div></td></tr><tr><td style="font-weight:bold;vertical-align:top;">key</td><td style="vertical-align:top;">:</td><td><div>PO730940</div></td></tr><tr><td style="font-weight:bold;vertical-align:top;">label</td><td style="vertical-align:top;">:</td><td><div>Gauche d\xc3\xa9mocrate et r\xc3\xa9publicaine</div></td></tr><tr><td style="font-weight:bold;vertical-align:top;">nb</td><td style="vertical-align:top;">:</td><td><div><table><tr><td style="font-weight:bold;vertical-align:top;">absent</td><td style="vertical-align:top;">:</td><td><div>336</div></td></tr><tr><td style="font-weight:bold;vertical-align:top;">abstention</td><td style="vertical-align:top;">:</td><td><div>5</div></td></tr><tr><td style="font-weight:bold;vertical-align:top;">contre</td><td style="vertical-align:top;">:</td><td><div>43</div></td></tr><tr><td style="font-weight:bold;vertical-align:top;">nonVotant</td><td style="vertical-align:top;">:</td><td><div>0</div></td></tr><tr><td style="font-weight:bold;vertical-align:top;">pour</td><td style="vertical-align:top;">:</td><td><div>224</div></td></tr></table></div></td></tr><tr><td style="font-weight:bold;vertical-align:top;">participation</td><td style="vertical-align:top;">:</td><td><div>45.0</div></td></tr><tr><td style="font-weight:bold;vertical-align:top;">stats</td><td style="vertical-align:top;">:</td><td><div><table><tr><td><div><table><tr><td style="font-weight:bold;vertical-align:top;">class</td><td style="vertical-align:top;">:</td><td><div>pct</div></td></tr><tr><td style="font-weight:bold;vertical-align:top;">icon</td><td style="vertical-align:top;">:</td><td><div>thumbs-up</div></td></tr><tr><td style="font-weight:bold;vertical-align:top;">libelle</td><td style="vertical-align:top;">:</td><td><div>votes pour</div></td></tr><tr><td style="font-weight:bold;vertical-align:top;">n</td><td style="vertical-align:top;">:</td><td><div>224</div></td></tr><tr><td style="font-weight:bold;vertical-align:top;">pct</td><td style="vertical-align:top;">:</td><td><div>37.0</div></td></tr><tr><td style="font-weight:bold;vertical-align:top;">position</td><td style="vertical-align:top;">:</td><td><div>pour</div></td></tr></table></div></td></tr><tr><td><div><table><tr><td style="font-weight:bold;vertical-align:top;">class</td><td style="vertical-align:top;">:</td><td><div>pct</div></td></tr><tr><td style="font-weight:bold;vertical-align:top;">icon</td><td style="vertical-align:top;">:</td><td><div>thumbs-down</div></td></tr><tr><td style="font-weight:bold;vertical-align:top;">libelle</td><td style="vertical-align:top;">:</td><td><div>votes contre</div></td></tr><tr><td style="font-weight:bold;vertical-align:top;">n</td><td style="vertical-align:top;">:</td><td><div>43</div></td></tr><tr><td style="font-weight:bold;vertical-align:top;">pct</td><td style="vertical-align:top;">:</td><td><div>7.0</div></td></tr><tr><td style="font-weight:bold;vertical-align:top;">position</td><td style="vertical-align:top;">:</td><td><div>contre</div></td></tr></table></div></td></tr><tr><td><div><table><tr><td style="font-weight:bold;vertical-align:top;">class</td><td style="vertical-align:top;">:</td><td><div>pct</div></td></tr><tr><td style="font-weight:bold;vertical-align:top;">icon</td><td style="vertical-align:top;">:</td><td><div>meh-o</div></td></tr><tr><td style="font-weight:bold;vertical-align:top;">libelle</td><td style="vertical-align:top;">:</td><td><div>abstention</div></td></tr><tr><td style="font-weight:bold;vertical-align:top;">n</td><td style="vertical-align:top;">:</td><td><div>5</div></td></tr><tr><td style="font-weight:bold;vertical-align:top;">pct</td><td style="vertical-align:top;">:</td><td><div>1.0</div></td></tr><tr><td style="font-weight:bold;vertical-align:top;">position</td><td style="vertical-align:top;">:</td><td><div>abstention</div></td></tr></table></div></td></tr><tr><td><div><table><tr><td style="font-weight:bold;vertical-align:top;">class</td><td style="vertical-align:top;">:</td><td><div>pct</div></td></tr><tr><td style="font-weight:bold;vertical-align:top;">icon</td><td style="vertical-align:top;">:</td><td><div>plane</div></td></tr><tr><td style="font-weight:bold;vertical-align:top;">libelle</td><td style="vertical-align:top;">:</td><td><div>absents</div></td></tr><tr><td style="font-weight:bold;vertical-align:top;">n</td><td style="vertical-align:top;">:</td><td><div>336</div></td></tr><tr><td style="font-weight:bold;vertical-align:top;">pct</td><td style="vertical-align:top;">:</td><td><div>55.0</div></td></tr><tr><td style="font-weight:bold;vertical-align:top;">position</td><td style="vertical-align:top;">:</td><td><div>absent</div></td></tr></table></div></td></tr><tr><td><div><table><tr><td style="font-weight:bold;vertical-align:top;">class</td><td style="vertical-align:top;">:</td><td><div>pct</div></td></tr><tr><td style="font-weight:bold;vertical-align:top;">icon</td><td style="vertical-align:top;">:</td><td><div>ban</div></td></tr><tr><td style="font-weight:bold;vertical-align:top;">libelle</td><td style="vertical-align:top;">:</td><td><div>non votants (justifi\xc3\xa9s)</div></td></tr><tr><td style="font-weight:bold;vertical-align:top;">n</td><td style="vertical-align:top;">:</td><td><div>0</div></td></tr><tr><td style="font-weight:bold;vertical-align:top;">pct</td><td style="vertical-align:top;">:</td><td><div>0.0</div></td></tr><tr><td style="font-weight:bold;vertical-align:top;">position</td><td style="vertical-align:top;">:</td><td><div>nonVotant</div></td></tr></table></div></td></tr></table></div></td></tr><tr><td style="font-weight:bold;vertical-align:top;">stats_exprime</td><td style="vertical-align:top;">:</td><td><div><table><tr><td><div><table><tr><td style="font-weight:bold;vertical-align:top;">big</td><td style="vertical-align:top;">:</td><td><div>False</div></td></tr><tr><td style="font-weight:bold;vertical-align:top;">icon</td><td style="vertical-align:top;">:</td><td><div>thumbs-up</div></td></tr><tr><td style="font-weight:bold;vertical-align:top;">libelle</td><td style="vertical-align:top;">:</td><td><div>votes pour</div></td></tr><tr><td style="font-weight:bold;vertical-align:top;">n</td><td style="vertical-align:top;">:</td><td><div>224</div></td></tr><tr><td style="font-weight:bold;vertical-align:top;">pct</td><td style="vertical-align:top;">:</td><td><div>82.0</div></td></tr><tr><td style="font-weight:bold;vertical-align:top;">position</td><td style="vertical-align:top;">:</td><td><div>pour</div></td></tr></table></div></td></tr><tr><td><div><table><tr><td style="font-weight:bold;vertical-align:top;">big</td><td style="vertical-align:top;">:</td><td><div>False</div></td></tr><tr><td style="font-weight:bold;vertical-align:top;">icon</td><td style="vertical-align:top;">:</td><td><div>thumbs-down</div></td></tr><tr><td style="font-weight:bold;vertical-align:top;">libelle</td><td style="vertical-align:top;">:</td><td><div>votes contre</div></td></tr><tr><td style="font-weight:bold;vertical-align:top;">n</td><td style="vertical-align:top;">:</td><td><div>43</div></td></tr><tr><td style="font-weight:bold;vertical-align:top;">pct</td><td style="vertical-align:top;">:</td><td><div>16.0</div></td></tr><tr><td style="font-weight:bold;vertical-align:top;">position</td><td style="vertical-align:top;">:</td><td><div>contre</div></td></tr></table></div></td></tr><tr><td><div><table><tr><td style="font-weight:bold;vertical-align:top;">big</td><td style="vertical-align:top;">:</td><td><div>False</div></td></tr><tr><td style="font-weight:bold;vertical-align:top;">icon</td><td style="vertical-align:top;">:</td><td><div>meh-o</div></td></tr><tr><td style="font-weight:bold;vertical-align:top;">libelle</td><td style="vertical-align:top;">:</td><td><div>abstention</div></td></tr><tr><td style="font-weight:bold;vertical-align:top;">n</td><td style="vertical-align:top;">:</td><td><div>5</div></td></tr><tr><td style="font-weight:bold;vertical-align:top;">pct</td><td style="vertical-align:top;">:</td><td><div>2.0</div></td></tr><tr><td style="font-weight:bold;vertical-align:top;">position</td><td style="vertical-align:top;">:</td><td><div>abstention</div></td></tr></table></div></td></tr></table></div></td></tr><tr><td style="font-weight:bold;vertical-align:top;">stats_total</td><td style="vertical-align:top;">:</td><td><div><table><tr><td><div><table><tr><td style="font-weight:bold;vertical-align:top;">class</td><td style="vertical-align:top;">:</td><td><div>pct</div></td></tr><tr><td style="font-weight:bold;vertical-align:top;">icon</td><td style="vertical-align:top;">:</td><td><div>thumbs-up</div></td></tr><tr><td style="font-weight:bold;vertical-align:top;">libelle</td><td style="vertical-align:top;">:</td><td><div>votes pour</div></td></tr><tr><td style="font-weight:bold;vertical-align:top;">n</td><td style="vertical-align:top;">:</td><td><div>224</div></td></tr><tr><td style="font-weight:bold;vertical-align:top;">pct</td><td style="vertical-align:top;">:</td><td><div>37.0</div></td></tr><tr><td style="font-weight:bold;vertical-align:top;">position</td><td style="vertical-align:top;">:</td><td><div>pour</div></td></tr></table></div></td></tr><tr><td><div><table><tr><td style="font-weight:bold;vertical-align:top;">class</td><td style="vertical-align:top;">:</td><td><div>pct</div></td></tr><tr><td style="font-weight:bold;vertical-align:top;">icon</td><td style="vertical-align:top;">:</td><td><div>thumbs-down</div></td></tr><tr><td style="font-weight:bold;vertical-align:top;">libelle</td><td style="vertical-align:top;">:</td><td><div>votes contre</div></td></tr><tr><td style="font-weight:bold;vertical-align:top;">n</td><td style="vertical-align:top;">:</td><td><div>43</div></td></tr><tr><td style="font-weight:bold;vertical-align:top;">pct</td><td style="vertical-align:top;">:</td><td><div>7.0</div></td></tr><tr><td style="font-weight:bold;vertical-align:top;">position</td><td style="vertical-align:top;">:</td><td><div>contre</div></td></tr></table></div></td></tr><tr><td><div><table><tr><td style="font-weight:bold;vertical-align:top;">class</td><td style="vertical-align:top;">:</td><td><div>pct</div></td></tr><tr><td style="font-weight:bold;vertical-align:top;">icon</td><td style="vertical-align:top;">:</td><td><div>meh-o</div></td></tr><tr><td style="font-weight:bold;vertical-align:top;">libelle</td><td style="vertical-align:top;">:</td><td><div>abstention</div></td></tr><tr><td style="font-weight:bold;vertical-align:top;">n</td><td style="vertical-align:top;">:</td><td><div>5</div></td></tr><tr><td style="font-weight:bold;vertical-align:top;">pct</td><td style="vertical-align:top;">:</td><td><div>1.0</div></td></tr><tr><td style="font-weight:bold;vertical-align:top;">position</td><td style="vertical-align:top;">:</td><td><div>abstention</div></td></tr></table></div></td></tr><tr><td><div><table><tr><td style="font-weight:bold;vertical-align:top;">class</td><td style="vertical-align:top;">:</td><td><div>pct</div></td></tr><tr><td style="font-weight:bold;vertical-align:top;">icon</td><td style="vertical-align:top;">:</td><td><div>plane</div></td></tr><tr><td style="font-weight:bold;vertical-align:top;">libelle</td><td style="vertical-align:top;">:</td><td><div>absents</div></td></tr><tr><td style="font-weight:bold;vertical-align:top;">n</td><td style="vertical-align:top;">:</td><td><div>336</div></td></tr><tr><td style="font-weight:bold;vertical-align:top;">pct</td><td style="vertical-align:top;">:</td><td><div>55.0</div></td></tr><tr><td style="font-weight:bold;vertical-align:top;">position</td><td style="vertical-align:top;">:</td><td><div>absent</div></td></tr></table></div></td></tr><tr><td><div><table><tr><td style="font-weight:bold;vertical-align:top;">class</td><td style="vertical-align:top;">:</td><td><div>pct</div></td></tr><tr><td style="font-weight:bold;vertical-align:top;">icon</td><td style="vertical-align:top;">:</td><td><div>ban</div></td></tr><tr><td style="font-weight:bold;vertical-align:top;">libelle</td><td style="vertical-align:top;">:</td><td><div>non votants (justifi\xc3\xa9s)</div></td></tr><tr><td style="font-weight:bold;vertical-align:top;">n</td><td style="vertical-align:top;">:</td><td><div>0</div></td></tr><tr><td style="font-weight:bold;vertical-align:top;">pct</td><td style="vertical-align:top;">:</td><td><div>0.0</div></td></tr><tr><td style="font-weight:bold;vertical-align:top;">position</td><td style="vertical-align:top;">:</td><td><div>nonVotant</div></td></tr></table></div></td></tr></table></div></td></tr></table></div></td></tr><tr><td><div><table><tr><td style="font-weight:bold;vertical-align:top;">cercles</td><td style="vertical-align:top;">:</td><td><div><table></table></div></td></tr><tr><td style="font-weight:bold;vertical-align:top;">key</td><td style="vertical-align:top;">:</td><td><div>PO730946</div></td></tr><tr><td style="font-weight:bold;vertical-align:top;">label</td><td style="vertical-align:top;">:</td><td><div>Nouvelle Gauche</div></td></tr><tr><td style="font-weight:bold;vertical-align:top;">nb</td><td style="vertical-align:top;">:</td><td><div><table><tr><td style="font-weight:bold;vertical-align:top;">absent</td><td style="vertical-align:top;">:</td><td><div>992</div></td></tr><tr><td style="font-weight:bold;vertical-align:top;">abstention</td><td style="vertical-align:top;">:</td><td><div>30</div></td></tr><tr><td style="font-weight:bold;vertical-align:top;">contre</td><td style="vertical-align:top;">:</td><td><div>27</div></td></tr><tr><td style="font-weight:bold;vertical-align:top;">nonVotant</td><td style="vertical-align:top;">:</td><td><div>0</div></td></tr><tr><td style="font-weight:bold;vertical-align:top;">pour</td><td style="vertical-align:top;">:</td><td><div>129</div></td></tr></table></div></td></tr><tr><td style="font-weight:bold;vertical-align:top;">participation</td><td style="vertical-align:top;">:</td><td><div>16.0</div></td></tr><tr><td style="font-weight:bold;vertical-align:top;">stats</td><td style="vertical-align:top;">:</td><td><div><table><tr><td><div><table><tr><td style="font-weight:bold;vertical-align:top;">class</td><td style="vertical-align:top;">:</td><td><div>pct</div></td></tr><tr><td style="font-weight:bold;vertical-align:top;">icon</td><td style="vertical-align:top;">:</td><td><div>thumbs-up</div></td></tr><tr><td style="font-weight:bold;vertical-align:top;">libelle</td><td style="vertical-align:top;">:</td><td><div>votes pour</div></td></tr><tr><td style="font-weight:bold;vertical-align:top;">n</td><td style="vertical-align:top;">:</td><td><div>129</div></td></tr><tr><td style="font-weight:bold;vertical-align:top;">pct</td><td style="vertical-align:top;">:</td><td><div>11.0</div></td></tr><tr><td style="font-weight:bold;vertical-align:top;">position</td><td style="vertical-align:top;">:</td><td><div>pour</div></td></tr></table></div></td></tr><tr><td><div><table><tr><td style="font-weight:bold;vertical-align:top;">class</td><td style="vertical-align:top;">:</td><td><div>pct</div></td></tr><tr><td style="font-weight:bold;vertical-align:top;">icon</td><td style="vertical-align:top;">:</td><td><div>thumbs-down</div></td></tr><tr><td style="font-weight:bold;vertical-align:top;">libelle</td><td style="vertical-align:top;">:</td><td><div>votes contre</div></td></tr><tr><td style="font-weight:bold;vertical-align:top;">n</td><td style="vertical-align:top;">:</td><td><div>27</div></td></tr><tr><td style="font-weight:bold;vertical-align:top;">pct</td><td style="vertical-align:top;">:</td><td><div>2.0</div></td></tr><tr><td style="font-weight:bold;vertical-align:top;">position</td><td style="vertical-align:top;">:</td><td><div>contre</div></td></tr></table></div></td></tr><tr><td><div><table><tr><td style="font-weight:bold;vertical-align:top;">class</td><td style="vertical-align:top;">:</td><td><div>pct</div></td></tr><tr><td style="font-weight:bold;vertical-align:top;">icon</td><td style="vertical-align:top;">:</td><td><div>meh-o</div></td></tr><tr><td style="font-weight:bold;vertical-align:top;">libelle</td><td style="vertical-align:top;">:</td><td><div>abstention</div></td></tr><tr><td style="font-weight:bold;vertical-align:top;">n</td><td style="vertical-align:top;">:</td><td><div>30</div></td></tr><tr><td style="font-weight:bold;vertical-align:top;">pct</td><td style="vertical-align:top;">:</td><td><div>3.0</div></td></tr><tr><td style="font-weight:bold;vertical-align:top;">position</td><td style="vertical-align:top;">:</td><td><div>abstention</div></td></tr></table></div></td></tr><tr><td><div><table><tr><td style="font-weight:bold;vertical-align:top;">class</td><td style="vertical-align:top;">:</td><td><div>pct</div></td></tr><tr><td style="font-weight:bold;vertical-align:top;">icon</td><td style="vertical-align:top;">:</td><td><div>plane</div></td></tr><tr><td style="font-weight:bold;vertical-align:top;">libelle</td><td style="vertical-align:top;">:</td><td><div>absents</div></td></tr><tr><td style="font-weight:bold;vertical-align:top;">n</td><td style="vertical-align:top;">:</td><td><div>992</div></td></tr><tr><td style="font-weight:bold;vertical-align:top;">pct</td><td style="vertical-align:top;">:</td><td><div>84.0</div></td></tr><tr><td style="font-weight:bold;vertical-align:top;">position</td><td style="vertical-align:top;">:</td><td><div>absent</div></td></tr></table></div></td></tr><tr><td><div><table><tr><td style="font-weight:bold;vertical-align:top;">class</td><td style="vertical-align:top;">:</td><td><div>pct</div></td></tr><tr><td style="font-weight:bold;vertical-align:top;">icon</td><td style="vertical-align:top;">:</td><td><div>ban</div></td></tr><tr><td style="font-weight:bold;vertical-align:top;">libelle</td><td style="vertical-align:top;">:</td><td><div>non votants (justifi\xc3\xa9s)</div></td></tr><tr><td style="font-weight:bold;vertical-align:top;">n</td><td style="vertical-align:top;">:</td><td><div>0</div></td></tr><tr><td style="font-weight:bold;vertical-align:top;">pct</td><td style="vertical-align:top;">:</td><td><div>0.0</div></td></tr><tr><td style="font-weight:bold;vertical-align:top;">position</td><td style="vertical-align:top;">:</td><td><div>nonVotant</div></td></tr></table></div></td></tr></table></div></td></tr><tr><td style="font-weight:bold;vertical-align:top;">stats_exprime</td><td style="vertical-align:top;">:</td><td><div><table><tr><td><div><table><tr><td style="font-weight:bold;vertical-align:top;">big</td><td style="vertical-align:top;">:</td><td><div>False</div></td></tr><tr><td style="font-weight:bold;vertical-align:top;">icon</td><td style="vertical-align:top;">:</td><td><div>thumbs-up</div></td></tr><tr><td style="font-weight:bold;vertical-align:top;">libelle</td><td style="vertical-align:top;">:</td><td><div>votes pour</div></td></tr><tr><td style="font-weight:bold;vertical-align:top;">n</td><td style="vertical-align:top;">:</td><td><div>129</div></td></tr><tr><td style="font-weight:bold;vertical-align:top;">pct</td><td style="vertical-align:top;">:</td><td><div>69.0</div></td></tr><tr><td style="font-weight:bold;vertical-align:top;">position</td><td style="vertical-align:top;">:</td><td><div>pour</div></td></tr></table></div></td></tr><tr><td><div><table><tr><td style="font-weight:bold;vertical-align:top;">big</td><td style="vertical-align:top;">:</td><td><div>False</div></td></tr><tr><td style="font-weight:bold;vertical-align:top;">icon</td><td style="vertical-align:top;">:</td><td><div>thumbs-down</div></td></tr><tr><td style="font-weight:bold;vertical-align:top;">libelle</td><td style="vertical-align:top;">:</td><td><div>votes contre</div></td></tr><tr><td style="font-weight:bold;vertical-align:top;">n</td><td style="vertical-align:top;">:</td><td><div>27</div></td></tr><tr><td style="font-weight:bold;vertical-align:top;">pct</td><td style="vertical-align:top;">:</td><td><div>15.0</div></td></tr><tr><td style="font-weight:bold;vertical-align:top;">position</td><td style="vertical-align:top;">:</td><td><div>contre</div></td></tr></table></div></td></tr><tr><td><div><table><tr><td style="font-weight:bold;vertical-align:top;">big</td><td style="vertical-align:top;">:</td><td><div>False</div></td></tr><tr><td style="font-weight:bold;vertical-align:top;">icon</td><td style="vertical-align:top;">:</td><td><div>meh-o</div></td></tr><tr><td style="font-weight:bold;vertical-align:top;">libelle</td><td style="vertical-align:top;">:</td><td><div>abstention</div></td></tr><tr><td style="font-weight:bold;vertical-align:top;">n</td><td style="vertical-align:top;">:</td><td><div>30</div></td></tr><tr><td style="font-weight:bold;vertical-align:top;">pct</td><td style="vertical-align:top;">:</td><td><div>16.0</div></td></tr><tr><td style="font-weight:bold;vertical-align:top;">position</td><td style="vertical-align:top;">:</td><td><div>abstention</div></td></tr></table></div></td></tr></table></div></td></tr><tr><td style="font-weight:bold;vertical-align:top;">stats_total</td><td style="vertical-align:top;">:</td><td><div><table><tr><td><div><table><tr><td style="font-weight:bold;vertical-align:top;">class</td><td style="vertical-align:top;">:</td><td><div>pct</div></td></tr><tr><td style="font-weight:bold;vertical-align:top;">icon</td><td style="vertical-align:top;">:</td><td><div>thumbs-up</div></td></tr><tr><td style="font-weight:bold;vertical-align:top;">libelle</td><td style="vertical-align:top;">:</td><td><div>votes pour</div></td></tr><tr><td style="font-weight:bold;vertical-align:top;">n</td><td style="vertical-align:top;">:</td><td><div>129</div></td></tr><tr><td style="font-weight:bold;vertical-align:top;">pct</td><td style="vertical-align:top;">:</td><td><div>11.0</div></td></tr><tr><td style="font-weight:bold;vertical-align:top;">position</td><td style="vertical-align:top;">:</td><td><div>pour</div></td></tr></table></div></td></tr><tr><td><div><table><tr><td style="font-weight:bold;vertical-align:top;">class</td><td style="vertical-align:top;">:</td><td><div>pct</div></td></tr><tr><td style="font-weight:bold;vertical-align:top;">icon</td><td style="vertical-align:top;">:</td><td><div>thumbs-down</div></td></tr><tr><td style="font-weight:bold;vertical-align:top;">libelle</td><td style="vertical-align:top;">:</td><td><div>votes contre</div></td></tr><tr><td style="font-weight:bold;vertical-align:top;">n</td><td style="vertical-align:top;">:</td><td><div>27</div></td></tr><tr><td style="font-weight:bold;vertical-align:top;">pct</td><td style="vertical-align:top;">:</td><td><div>2.0</div></td></tr><tr><td style="font-weight:bold;vertical-align:top;">position</td><td style="vertical-align:top;">:</td><td><div>contre</div></td></tr></table></div></td></tr><tr><td><div><table><tr><td style="font-weight:bold;vertical-align:top;">class</td><td style="vertical-align:top;">:</td><td><div>pct</div></td></tr><tr><td style="font-weight:bold;vertical-align:top;">icon</td><td style="vertical-align:top;">:</td><td><div>meh-o</div></td></tr><tr><td style="font-weight:bold;vertical-align:top;">libelle</td><td style="vertical-align:top;">:</td><td><div>abstention</div></td></tr><tr><td style="font-weight:bold;vertical-align:top;">n</td><td style="vertical-align:top;">:</td><td><div>30</div></td></tr><tr><td style="font-weight:bold;vertical-align:top;">pct</td><td style="vertical-align:top;">:</td><td><div>3.0</div></td></tr><tr><td style="font-weight:bold;vertical-align:top;">position</td><td style="vertical-align:top;">:</td><td><div>abstention</div></td></tr></table></div></td></tr><tr><td><div><table><tr><td style="font-weight:bold;vertical-align:top;">class</td><td style="vertical-align:top;">:</td><td><div>pct</div></td></tr><tr><td style="font-weight:bold;vertical-align:top;">icon</td><td style="vertical-align:top;">:</td><td><div>plane</div></td></tr><tr><td style="font-weight:bold;vertical-align:top;">libelle</td><td style="vertical-align:top;">:</td><td><div>absents</div></td></tr><tr><td style="font-weight:bold;vertical-align:top;">n</td><td style="vertical-align:top;">:</td><td><div>992</div></td></tr><tr><td style="font-weight:bold;vertical-align:top;">pct</td><td style="vertical-align:top;">:</td><td><div>84.0</div></td></tr><tr><td style="font-weight:bold;vertical-align:top;">position</td><td style="vertical-align:top;">:</td><td><div>absent</div></td></tr></table></div></td></tr><tr><td><div><table><tr><td style="font-weight:bold;vertical-align:top;">class</td><td style="vertical-align:top;">:</td><td><div>pct</div></td></tr><tr><td style="font-weight:bold;vertical-align:top;">icon</td><td style="vertical-align:top;">:</td><td><div>ban</div></td></tr><tr><td style="font-weight:bold;vertical-align:top;">libelle</td><td style="vertical-align:top;">:</td><td><div>non votants (justifi\xc3\xa9s)</div></td></tr><tr><td style="font-weight:bold;vertical-align:top;">n</td><td style="vertical-align:top;">:</td><td><div>0</div></td></tr><tr><td style="font-weight:bold;vertical-align:top;">pct</td><td style="vertical-align:top;">:</td><td><div>0.0</div></td></tr><tr><td style="font-weight:bold;vertical-align:top;">position</td><td style="vertical-align:top;">:</td><td><div>nonVotant</div></td></tr></table></div></td></tr></table></div></td></tr></table></div></td></tr><tr><td><div><table><tr><td style="font-weight:bold;vertical-align:top;">cercles</td><td style="vertical-align:top;">:</td><td><div><table></table></div></td></tr><tr><td style="font-weight:bold;vertical-align:top;">key</td><td style="vertical-align:top;">:</td><td><div>PO730958</div></td></tr><tr><td style="font-weight:bold;vertical-align:top;">label</td><td style="vertical-align:top;">:</td><td><div>La France insoumise</div></td></tr><tr><td style="font-weight:bold;vertical-align:top;">nb</td><td style="vertical-align:top;">:</td><td><div><table><tr><td style="font-weight:bold;vertical-align:top;">absent</td><td style="vertical-align:top;">:</td><td><div>219</div></td></tr><tr><td style="font-weight:bold;vertical-align:top;">abstention</td><td style="vertical-align:top;">:</td><td><div>1</div></td></tr><tr><td style="font-weight:bold;vertical-align:top;">contre</td><td style="vertical-align:top;">:</td><td><div>73</div></td></tr><tr><td style="font-weight:bold;vertical-align:top;">nonVotant</td><td style="vertical-align:top;">:</td><td><div>0</div></td></tr><tr><td style="font-weight:bold;vertical-align:top;">pour</td><td style="vertical-align:top;">:</td><td><div>353</div></td></tr></table></div></td></tr><tr><td style="font-weight:bold;vertical-align:top;">participation</td><td style="vertical-align:top;">:</td><td><div>66.0</div></td></tr><tr><td style="font-weight:bold;vertical-align:top;">stats</td><td style="vertical-align:top;">:</td><td><div><table><tr><td><div><table><tr><td style="font-weight:bold;vertical-align:top;">class</td><td style="vertical-align:top;">:</td><td><div>pct</div></td></tr><tr><td style="font-weight:bold;vertical-align:top;">icon</td><td style="vertical-align:top;">:</td><td><div>thumbs-up</div></td></tr><tr><td style="font-weight:bold;vertical-align:top;">libelle</td><td style="vertical-align:top;">:</td><td><div>votes pour</div></td></tr><tr><td style="font-weight:bold;vertical-align:top;">n</td><td style="vertical-align:top;">:</td><td><div>353</div></td></tr><tr><td style="font-weight:bold;vertical-align:top;">pct</td><td style="vertical-align:top;">:</td><td><div>55.0</div></td></tr><tr><td style="font-weight:bold;vertical-align:top;">position</td><td style="vertical-align:top;">:</td><td><div>pour</div></td></tr></table></div></td></tr><tr><td><div><table><tr><td style="font-weight:bold;vertical-align:top;">class</td><td style="vertical-align:top;">:</td><td><div>pct</div></td></tr><tr><td style="font-weight:bold;vertical-align:top;">icon</td><td style="vertical-align:top;">:</td><td><div>thumbs-down</div></td></tr><tr><td style="font-weight:bold;vertical-align:top;">libelle</td><td style="vertical-align:top;">:</td><td><div>votes contre</div></td></tr><tr><td style="font-weight:bold;vertical-align:top;">n</td><td style="vertical-align:top;">:</td><td><div>73</div></td></tr><tr><td style="font-weight:bold;vertical-align:top;">pct</td><td style="vertical-align:top;">:</td><td><div>11.0</div></td></tr><tr><td style="font-weight:bold;vertical-align:top;">position</td><td style="vertical-align:top;">:</td><td><div>contre</div></td></tr></table></div></td></tr><tr><td><div><table><tr><td style="font-weight:bold;vertical-align:top;">class</td><td style="vertical-align:top;">:</td><td><div>pct</div></td></tr><tr><td style="font-weight:bold;vertical-align:top;">icon</td><td style="vertical-align:top;">:</td><td><div>meh-o</div></td></tr><tr><td style="font-weight:bold;vertical-align:top;">libelle</td><td style="vertical-align:top;">:</td><td><div>abstention</div></td></tr><tr><td style="font-weight:bold;vertical-align:top;">n</td><td style="vertical-align:top;">:</td><td><div>1</div></td></tr><tr><td style="font-weight:bold;vertical-align:top;">pct</td><td style="vertical-align:top;">:</td><td><div>0.0</div></td></tr><tr><td style="font-weight:bold;vertical-align:top;">position</td><td style="vertical-align:top;">:</td><td><div>abstention</div></td></tr></table></div></td></tr><tr><td><div><table><tr><td style="font-weight:bold;vertical-align:top;">class</td><td style="vertical-align:top;">:</td><td><div>pct</div></td></tr><tr><td style="font-weight:bold;vertical-align:top;">icon</td><td style="vertical-align:top;">:</td><td><div>plane</div></td></tr><tr><td style="font-weight:bold;vertical-align:top;">libelle</td><td style="vertical-align:top;">:</td><td><div>absents</div></td></tr><tr><td style="font-weight:bold;vertical-align:top;">n</td><td style="vertical-align:top;">:</td><td><div>219</div></td></tr><tr><td style="font-weight:bold;vertical-align:top;">pct</td><td style="vertical-align:top;">:</td><td><div>34.0</div></td></tr><tr><td style="font-weight:bold;vertical-align:top;">position</td><td style="vertical-align:top;">:</td><td><div>absent</div></td></tr></table></div></td></tr><tr><td><div><table><tr><td style="font-weight:bold;vertical-align:top;">class</td><td style="vertical-align:top;">:</td><td><div>pct</div></td></tr><tr><td style="font-weight:bold;vertical-align:top;">icon</td><td style="vertical-align:top;">:</td><td><div>ban</div></td></tr><tr><td style="font-weight:bold;vertical-align:top;">libelle</td><td style="vertical-align:top;">:</td><td><div>non votants (justifi\xc3\xa9s)</div></td></tr><tr><td style="font-weight:bold;vertical-align:top;">n</td><td style="vertical-align:top;">:</td><td><div>0</div></td></tr><tr><td style="font-weight:bold;vertical-align:top;">pct</td><td style="vertical-align:top;">:</td><td><div>0.0</div></td></tr><tr><td style="font-weight:bold;vertical-align:top;">position</td><td style="vertical-align:top;">:</td><td><div>nonVotant</div></td></tr></table></div></td></tr></table></div></td></tr><tr><td style="font-weight:bold;vertical-align:top;">stats_exprime</td><td style="vertical-align:top;">:</td><td><div><table><tr><td><div><table><tr><td style="font-weight:bold;vertical-align:top;">big</td><td style="vertical-align:top;">:</td><td><div>False</div></td></tr><tr><td style="font-weight:bold;vertical-align:top;">icon</td><td style="vertical-align:top;">:</td><td><div>thumbs-up</div></td></tr><tr><td style="font-weight:bold;vertical-align:top;">libelle</td><td style="vertical-align:top;">:</td><td><div>votes pour</div></td></tr><tr><td style="font-weight:bold;vertical-align:top;">n</td><td style="vertical-align:top;">:</td><td><div>353</div></td></tr><tr><td style="font-weight:bold;vertical-align:top;">pct</td><td style="vertical-align:top;">:</td><td><div>83.0</div></td></tr><tr><td style="font-weight:bold;vertical-align:top;">position</td><td style="vertical-align:top;">:</td><td><div>pour</div></td></tr></table></div></td></tr><tr><td><div><table><tr><td style="font-weight:bold;vertical-align:top;">big</td><td style="vertical-align:top;">:</td><td><div>False</div></td></tr><tr><td style="font-weight:bold;vertical-align:top;">icon</td><td style="vertical-align:top;">:</td><td><div>thumbs-down</div></td></tr><tr><td style="font-weight:bold;vertical-align:top;">libelle</td><td style="vertical-align:top;">:</td><td><div>votes contre</div></td></tr><tr><td style="font-weight:bold;vertical-align:top;">n</td><td style="vertical-align:top;">:</td><td><div>73</div></td></tr><tr><td style="font-weight:bold;vertical-align:top;">pct</td><td style="vertical-align:top;">:</td><td><div>17.0</div></td></tr><tr><td style="font-weight:bold;vertical-align:top;">position</td><td style="vertical-align:top;">:</td><td><div>contre</div></td></tr></table></div></td></tr><tr><td><div><table><tr><td style="font-weight:bold;vertical-align:top;">big</td><td style="vertical-align:top;">:</td><td><div>False</div></td></tr><tr><td style="font-weight:bold;vertical-align:top;">icon</td><td style="vertical-align:top;">:</td><td><div>meh-o</div></td></tr><tr><td style="font-weight:bold;vertical-align:top;">libelle</td><td style="vertical-align:top;">:</td><td><div>abstention</div></td></tr><tr><td style="font-weight:bold;vertical-align:top;">n</td><td style="vertical-align:top;">:</td><td><div>1</div></td></tr><tr><td style="font-weight:bold;vertical-align:top;">pct</td><td style="vertical-align:top;">:</td><td><div>0.0</div></td></tr><tr><td style="font-weight:bold;vertical-align:top;">position</td><td style="vertical-align:top;">:</td><td><div>abstention</div></td></tr></table></div></td></tr></table></div></td></tr><tr><td style="font-weight:bold;vertical-align:top;">stats_total</td><td style="vertical-align:top;">:</td><td><div><table><tr><td><div><table><tr><td style="font-weight:bold;vertical-align:top;">class</td><td style="vertical-align:top;">:</td><td><div>pct</div></td></tr><tr><td style="font-weight:bold;vertical-align:top;">icon</td><td style="vertical-align:top;">:</td><td><div>thumbs-up</div></td></tr><tr><td style="font-weight:bold;vertical-align:top;">libelle</td><td style="vertical-align:top;">:</td><td><div>votes pour</div></td></tr><tr><td style="font-weight:bold;vertical-align:top;">n</td><td style="vertical-align:top;">:</td><td><div>353</div></td></tr><tr><td style="font-weight:bold;vertical-align:top;">pct</td><td style="vertical-align:top;">:</td><td><div>55.0</div></td></tr><tr><td style="font-weight:bold;vertical-align:top;">position</td><td style="vertical-align:top;">:</td><td><div>pour</div></td></tr></table></div></td></tr><tr><td><div><table><tr><td style="font-weight:bold;vertical-align:top;">class</td><td style="vertical-align:top;">:</td><td><div>pct</div></td></tr><tr><td style="font-weight:bold;vertical-align:top;">icon</td><td style="vertical-align:top;">:</td><td><div>thumbs-down</div></td></tr><tr><td style="font-weight:bold;vertical-align:top;">libelle</td><td style="vertical-align:top;">:</td><td><div>votes contre</div></td></tr><tr><td style="font-weight:bold;vertical-align:top;">n</td><td style="vertical-align:top;">:</td><td><div>73</div></td></tr><tr><td style="font-weight:bold;vertical-align:top;">pct</td><td style="vertical-align:top;">:</td><td><div>11.0</div></td></tr><tr><td style="font-weight:bold;vertical-align:top;">position</td><td style="vertical-align:top;">:</td><td><div>contre</div></td></tr></table></div></td></tr><tr><td><div><table><tr><td style="font-weight:bold;vertical-align:top;">class</td><td style="vertical-align:top;">:</td><td><div>pct</div></td></tr><tr><td style="font-weight:bold;vertical-align:top;">icon</td><td style="vertical-align:top;">:</td><td><div>meh-o</div></td></tr><tr><td style="font-weight:bold;vertical-align:top;">libelle</td><td style="vertical-align:top;">:</td><td><div>abstention</div></td></tr><tr><td style="font-weight:bold;vertical-align:top;">n</td><td style="vertical-align:top;">:</td><td><div>1</div></td></tr><tr><td style="font-weight:bold;vertical-align:top;">pct</td><td style="vertical-align:top;">:</td><td><div>0.0</div></td></tr><tr><td style="font-weight:bold;vertical-align:top;">position</td><td style="vertical-align:top;">:</td><td><div>abstention</div></td></tr></table></div></td></tr><tr><td><div><table><tr><td style="font-weight:bold;vertical-align:top;">class</td><td style="vertical-align:top;">:</td><td><div>pct</div></td></tr><tr><td style="font-weight:bold;vertical-align:top;">icon</td><td style="vertical-align:top;">:</td><td><div>plane</div></td></tr><tr><td style="font-weight:bold;vertical-align:top;">libelle</td><td style="vertical-align:top;">:</td><td><div>absents</div></td></tr><tr><td style="font-weight:bold;vertical-align:top;">n</td><td style="vertical-align:top;">:</td><td><div>219</div></td></tr><tr><td style="font-weight:bold;vertical-align:top;">pct</td><td style="vertical-align:top;">:</td><td><div>34.0</div></td></tr><tr><td style="font-weight:bold;vertical-align:top;">position</td><td style="vertical-align:top;">:</td><td><div>absent</div></td></tr></table></div></td></tr><tr><td><div><table><tr><td style="font-weight:bold;vertical-align:top;">class</td><td style="vertical-align:top;">:</td><td><div>pct</div></td></tr><tr><td style="font-weight:bold;vertical-align:top;">icon</td><td style="vertical-align:top;">:</td><td><div>ban</div></td></tr><tr><td style="font-weight:bold;vertical-align:top;">libelle</td><td style="vertical-align:top;">:</td><td><div>non votants (justifi\xc3\xa9s)</div></td></tr><tr><td style="font-weight:bold;vertical-align:top;">n</td><td style="vertical-align:top;">:</td><td><div>0</div></td></tr><tr><td style="font-weight:bold;vertical-align:top;">pct</td><td style="vertical-align:top;">:</td><td><div>0.0</div></td></tr><tr><td style="font-weight:bold;vertical-align:top;">position</td><td style="vertical-align:top;">:</td><td><div>nonVotant</div></td></tr></table></div></td></tr></table></div></td></tr></table></div></td></tr><tr><td><div><table><tr><td style="font-weight:bold;vertical-align:top;">cercles</td><td style="vertical-align:top;">:</td><td><div><table></table></div></td></tr><tr><td style="font-weight:bold;vertical-align:top;">key</td><td style="vertical-align:top;">:</td><td><div>PO730952</div></td></tr><tr><td style="font-weight:bold;vertical-align:top;">label</td><td style="vertical-align:top;">:</td><td><div>Les Constructifs : r\xc3\xa9publicains, UDI, ind\xc3\xa9pendants</div></td></tr><tr><td style="font-weight:bold;vertical-align:top;">nb</td><td style="vertical-align:top;">:</td><td><div><table><tr><td style="font-weight:bold;vertical-align:top;">absent</td><td style="vertical-align:top;">:</td><td><div>1099</div></td></tr><tr><td style="font-weight:bold;vertical-align:top;">abstention</td><td style="vertical-align:top;">:</td><td><div>34</div></td></tr><tr><td style="font-weight:bold;vertical-align:top;">contre</td><td style="vertical-align:top;">:</td><td><div>160</div></td></tr><tr><td style="font-weight:bold;vertical-align:top;">nonVotant</td><td style="vertical-align:top;">:</td><td><div>0</div></td></tr><tr><td style="font-weight:bold;vertical-align:top;">pour</td><td style="vertical-align:top;">:</td><td><div>37</div></td></tr></table></div></td></tr><tr><td style="font-weight:bold;vertical-align:top;">participation</td><td style="vertical-align:top;">:</td><td><div>17.0</div></td></tr><tr><td style="font-weight:bold;vertical-align:top;">stats</td><td style="vertical-align:top;">:</td><td><div><table><tr><td><div><table><tr><td style="font-weight:bold;vertical-align:top;">class</td><td style="vertical-align:top;">:</td><td><div>pct</div></td></tr><tr><td style="font-weight:bold;vertical-align:top;">icon</td><td style="vertical-align:top;">:</td><td><div>thumbs-up</div></td></tr><tr><td style="font-weight:bold;vertical-align:top;">libelle</td><td style="vertical-align:top;">:</td><td><div>votes pour</div></td></tr><tr><td style="font-weight:bold;vertical-align:top;">n</td><td style="vertical-align:top;">:</td><td><div>37</div></td></tr><tr><td style="font-weight:bold;vertical-align:top;">pct</td><td style="vertical-align:top;">:</td><td><div>3.0</div></td></tr><tr><td style="font-weight:bold;vertical-align:top;">position</td><td style="vertical-align:top;">:</td><td><div>pour</div></td></tr></table></div></td></tr><tr><td><div><table><tr><td style="font-weight:bold;vertical-align:top;">class</td><td style="vertical-align:top;">:</td><td><div>pct</div></td></tr><tr><td style="font-weight:bold;vertical-align:top;">icon</td><td style="vertical-align:top;">:</td><td><div>thumbs-down</div></td></tr><tr><td style="font-weight:bold;vertical-align:top;">libelle</td><td style="vertical-align:top;">:</td><td><div>votes contre</div></td></tr><tr><td style="font-weight:bold;vertical-align:top;">n</td><td style="vertical-align:top;">:</td><td><div>160</div></td></tr><tr><td style="font-weight:bold;vertical-align:top;">pct</td><td style="vertical-align:top;">:</td><td><div>12.0</div></td></tr><tr><td style="font-weight:bold;vertical-align:top;">position</td><td style="vertical-align:top;">:</td><td><div>contre</div></td></tr></table></div></td></tr><tr><td><div><table><tr><td style="font-weight:bold;vertical-align:top;">class</td><td style="vertical-align:top;">:</td><td><div>pct</div></td></tr><tr><td style="font-weight:bold;vertical-align:top;">icon</td><td style="vertical-align:top;">:</td><td><div>meh-o</div></td></tr><tr><td style="font-weight:bold;vertical-align:top;">libelle</td><td style="vertical-align:top;">:</td><td><div>abstention</div></td></tr><tr><td style="font-weight:bold;vertical-align:top;">n</td><td style="vertical-align:top;">:</td><td><div>34</div></td></tr><tr><td style="font-weight:bold;vertical-align:top;">pct</td><td style="vertical-align:top;">:</td><td><div>3.0</div></td></tr><tr><td style="font-weight:bold;vertical-align:top;">position</td><td style="vertical-align:top;">:</td><td><div>abstention</div></td></tr></table></div></td></tr><tr><td><div><table><tr><td style="font-weight:bold;vertical-align:top;">class</td><td style="vertical-align:top;">:</td><td><div>pct</div></td></tr><tr><td style="font-weight:bold;vertical-align:top;">icon</td><td style="vertical-align:top;">:</td><td><div>plane</div></td></tr><tr><td style="font-weight:bold;vertical-align:top;">libelle</td><td style="vertical-align:top;">:</td><td><div>absents</div></td></tr><tr><td style="font-weight:bold;vertical-align:top;">n</td><td style="vertical-align:top;">:</td><td><div>1099</div></td></tr><tr><td style="font-weight:bold;vertical-align:top;">pct</td><td style="vertical-align:top;">:</td><td><div>83.0</div></td></tr><tr><td style="font-weight:bold;vertical-align:top;">position</td><td style="vertical-align:top;">:</td><td><div>absent</div></td></tr></table></div></td></tr><tr><td><div><table><tr><td style="font-weight:bold;vertical-align:top;">class</td><td style="vertical-align:top;">:</td><td><div>pct</div></td></tr><tr><td style="font-weight:bold;vertical-align:top;">icon</td><td style="vertical-align:top;">:</td><td><div>ban</div></td></tr><tr><td style="font-weight:bold;vertical-align:top;">libelle</td><td style="vertical-align:top;">:</td><td><div>non votants (justifi\xc3\xa9s)</div></td></tr><tr><td style="font-weight:bold;vertical-align:top;">n</td><td style="vertical-align:top;">:</td><td><div>0</div></td></tr><tr><td style="font-weight:bold;vertical-align:top;">pct</td><td style="vertical-align:top;">:</td><td><div>0.0</div></td></tr><tr><td style="font-weight:bold;vertical-align:top;">position</td><td style="vertical-align:top;">:</td><td><div>nonVotant</div></td></tr></table></div></td></tr></table></div></td></tr><tr><td style="font-weight:bold;vertical-align:top;">stats_exprime</td><td style="vertical-align:top;">:</td><td><div><table><tr><td><div><table><tr><td style="font-weight:bold;vertical-align:top;">big</td><td style="vertical-align:top;">:</td><td><div>False</div></td></tr><tr><td style="font-weight:bold;vertical-align:top;">icon</td><td style="vertical-align:top;">:</td><td><div>thumbs-up</div></td></tr><tr><td style="font-weight:bold;vertical-align:top;">libelle</td><td style="vertical-align:top;">:</td><td><div>votes pour</div></td></tr><tr><td style="font-weight:bold;vertical-align:top;">n</td><td style="vertical-align:top;">:</td><td><div>37</div></td></tr><tr><td style="font-weight:bold;vertical-align:top;">pct</td><td style="vertical-align:top;">:</td><td><div>16.0</div></td></tr><tr><td style="font-weight:bold;vertical-align:top;">position</td><td style="vertical-align:top;">:</td><td><div>pour</div></td></tr></table></div></td></tr><tr><td><div><table><tr><td style="font-weight:bold;vertical-align:top;">big</td><td style="vertical-align:top;">:</td><td><div>False</div></td></tr><tr><td style="font-weight:bold;vertical-align:top;">icon</td><td style="vertical-align:top;">:</td><td><div>thumbs-down</div></td></tr><tr><td style="font-weight:bold;vertical-align:top;">libelle</td><td style="vertical-align:top;">:</td><td><div>votes contre</div></td></tr><tr><td style="font-weight:bold;vertical-align:top;">n</td><td style="vertical-align:top;">:</td><td><div>160</div></td></tr><tr><td style="font-weight:bold;vertical-align:top;">pct</td><td style="vertical-align:top;">:</td><td><div>69.0</div></td></tr><tr><td style="font-weight:bold;vertical-align:top;">position</td><td style="vertical-align:top;">:</td><td><div>contre</div></td></tr></table></div></td></tr><tr><td><div><table><tr><td style="font-weight:bold;vertical-align:top;">big</td><td style="vertical-align:top;">:</td><td><div>False</div></td></tr><tr><td style="font-weight:bold;vertical-align:top;">icon</td><td style="vertical-align:top;">:</td><td><div>meh-o</div></td></tr><tr><td style="font-weight:bold;vertical-align:top;">libelle</td><td style="vertical-align:top;">:</td><td><div>abstention</div></td></tr><tr><td style="font-weight:bold;vertical-align:top;">n</td><td style="vertical-align:top;">:</td><td><div>34</div></td></tr><tr><td style="font-weight:bold;vertical-align:top;">pct</td><td style="vertical-align:top;">:</td><td><div>15.0</div></td></tr><tr><td style="font-weight:bold;vertical-align:top;">position</td><td style="vertical-align:top;">:</td><td><div>abstention</div></td></tr></table></div></td></tr></table></div></td></tr><tr><td style="font-weight:bold;vertical-align:top;">stats_total</td><td style="vertical-align:top;">:</td><td><div><table><tr><td><div><table><tr><td style="font-weight:bold;vertical-align:top;">class</td><td style="vertical-align:top;">:</td><td><div>pct</div></td></tr><tr><td style="font-weight:bold;vertical-align:top;">icon</td><td style="vertical-align:top;">:</td><td><div>thumbs-up</div></td></tr><tr><td style="font-weight:bold;vertical-align:top;">libelle</td><td style="vertical-align:top;">:</td><td><div>votes pour</div></td></tr><tr><td style="font-weight:bold;vertical-align:top;">n</td><td style="vertical-align:top;">:</td><td><div>37</div></td></tr><tr><td style="font-weight:bold;vertical-align:top;">pct</td><td style="vertical-align:top;">:</td><td><div>3.0</div></td></tr><tr><td style="font-weight:bold;vertical-align:top;">position</td><td style="vertical-align:top;">:</td><td><div>pour</div></td></tr></table></div></td></tr><tr><td><div><table><tr><td style="font-weight:bold;vertical-align:top;">class</td><td style="vertical-align:top;">:</td><td><div>pct</div></td></tr><tr><td style="font-weight:bold;vertical-align:top;">icon</td><td style="vertical-align:top;">:</td><td><div>thumbs-down</div></td></tr><tr><td style="font-weight:bold;vertical-align:top;">libelle</td><td style="vertical-align:top;">:</td><td><div>votes contre</div></td></tr><tr><td style="font-weight:bold;vertical-align:top;">n</td><td style="vertical-align:top;">:</td><td><div>160</div></td></tr><tr><td style="font-weight:bold;vertical-align:top;">pct</td><td style="vertical-align:top;">:</td><td><div>12.0</div></td></tr><tr><td style="font-weight:bold;vertical-align:top;">position</td><td style="vertical-align:top;">:</td><td><div>contre</div></td></tr></table></div></td></tr><tr><td><div><table><tr><td style="font-weight:bold;vertical-align:top;">class</td><td style="vertical-align:top;">:</td><td><div>pct</div></td></tr><tr><td style="font-weight:bold;vertical-align:top;">icon</td><td style="vertical-align:top;">:</td><td><div>meh-o</div></td></tr><tr><td style="font-weight:bold;vertical-align:top;">libelle</td><td style="vertical-align:top;">:</td><td><div>abstention</div></td></tr><tr><td style="font-weight:bold;vertical-align:top;">n</td><td style="vertical-align:top;">:</td><td><div>34</div></td></tr><tr><td style="font-weight:bold;vertical-align:top;">pct</td><td style="vertical-align:top;">:</td><td><div>3.0</div></td></tr><tr><td style="font-weight:bold;vertical-align:top;">position</td><td style="vertical-align:top;">:</td><td><div>abstention</div></td></tr></table></div></td></tr><tr><td><div><table><tr><td style="font-weight:bold;vertical-align:top;">class</td><td style="vertical-align:top;">:</td><td><div>pct</div></td></tr><tr><td style="font-weight:bold;vertical-align:top;">icon</td><td style="vertical-align:top;">:</td><td><div>plane</div></td></tr><tr><td style="font-weight:bold;vertical-align:top;">libelle</td><td style="vertical-align:top;">:</td><td><div>absents</div></td></tr><tr><td style="font-weight:bold;vertical-align:top;">n</td><td style="vertical-align:top;">:</td><td><div>1099</div></td></tr><tr><td style="font-weight:bold;vertical-align:top;">pct</td><td style="vertical-align:top;">:</td><td><div>83.0</div></td></tr><tr><td style="font-weight:bold;vertical-align:top;">position</td><td style="vertical-align:top;">:</td><td><div>absent</div></td></tr></table></div></td></tr><tr><td><div><table><tr><td style="font-weight:bold;vertical-align:top;">class</td><td style="vertical-align:top;">:</td><td><div>pct</div></td></tr><tr><td style="font-weight:bold;vertical-align:top;">icon</td><td style="vertical-align:top;">:</td><td><div>ban</div></td></tr><tr><td style="font-weight:bold;vertical-align:top;">libelle</td><td style="vertical-align:top;">:</td><td><div>non votants (justifi\xc3\xa9s)</div></td></tr><tr><td style="font-weight:bold;vertical-align:top;">n</td><td style="vertical-align:top;">:</td><td><div>0</div></td></tr><tr><td style="font-weight:bold;vertical-align:top;">pct</td><td style="vertical-align:top;">:</td><td><div>0.0</div></td></tr><tr><td style="font-weight:bold;vertical-align:top;">position</td><td style="vertical-align:top;">:</td><td><div>nonVotant</div></td></tr></table></div></td></tr></table></div></td></tr></table></div></td></tr></table></div></td></tr></table></div>'
tRp98
sS'etype'
p99
S"<type 'exceptions.NameError'>"
p100
sS'date'
p101
S'Sun Jul 16 23:38:51 2017'
p102
sS'response'
p103
g59
(S's|?\x00\x00<div><table><tr><td style="font-weight:bold;vertical-align:top;">body</td><td style="vertical-align:top;">:</td><td><div>&lt;cStringIO.StringO object at 0x7ff3a8c92ed8&gt;</div></td></tr><tr><td style="font-weight:bold;vertical-align:top;">cookies</td><td style="vertical-align:top;">:</td><td><div><table><tr><td style="font-weight:bold;vertical-align:top;">session_id_obsas_dev</td><td style="vertical-align:top;">:</td><td><div>83.203.54.41-fc7640bd-5607-4d0d-830a-27d2371bbd50<table><tr><td style="font-weight:bold;vertical-align:top;">comment</td><td style="vertical-align:top;">:</td><td><div></div></td></tr><tr><td style="font-weight:bold;vertical-align:top;">domain</td><td style="vertical-align:top;">:</td><td><div></div></td></tr><tr><td style="font-weight:bold;vertical-align:top;">expires</td><td style="vertical-align:top;">:</td><td><div></div></td></tr><tr><td style="font-weight:bold;vertical-align:top;">httponly</td><td style="vertical-align:top;">:</td><td><div></div></td></tr><tr><td style="font-weight:bold;vertical-align:top;">max-age</td><td style="vertical-align:top;">:</td><td><div></div></td></tr><tr><td style="font-weight:bold;vertical-align:top;">path</td><td style="vertical-align:top;">:</td><td><div>/</div></td></tr><tr><td style="font-weight:bold;vertical-align:top;">secure</td><td style="vertical-align:top;">:</td><td><div></div></td></tr><tr><td style="font-weight:bold;vertical-align:top;">version</td><td style="vertical-align:top;">:</td><td><div></div></td></tr></table></div></td></tr></table></div></td></tr><tr><td style="font-weight:bold;vertical-align:top;">delimiters</td><td style="vertical-align:top;">:</td><td><div><table><tr><td><div>{{</div></td></tr><tr><td><div>}}</div></td></tr></table></div></td></tr><tr><td style="font-weight:bold;vertical-align:top;">files</td><td style="vertical-align:top;">:</td><td><div><table></table></div></td></tr><tr><td style="font-weight:bold;vertical-align:top;">flash</td><td style="vertical-align:top;">:</td><td><div></div></td></tr><tr><td style="font-weight:bold;vertical-align:top;">form_label_separator</td><td style="vertical-align:top;">:</td><td><div></div></td></tr><tr><td style="font-weight:bold;vertical-align:top;">formstyle</td><td style="vertical-align:top;">:</td><td><div>bootstrap3_inline</div></td></tr><tr><td style="font-weight:bold;vertical-align:top;">generic_patterns</td><td style="vertical-align:top;">:</td><td><div><table></table></div></td></tr><tr><td style="font-weight:bold;vertical-align:top;">google_analytics_id</td><td style="vertical-align:top;">:</td><td><div>None</div></td></tr><tr><td style="font-weight:bold;vertical-align:top;">headers</td><td style="vertical-align:top;">:</td><td><div><table><tr><td style="font-weight:bold;vertical-align:top;">X-Powered-By</td><td style="vertical-align:top;">:</td><td><div>web2py</div></td></tr></table></div></td></tr><tr><td style="font-weight:bold;vertical-align:top;">logo</td><td style="vertical-align:top;">:</td><td><div><a class="navbar-brand" href="http://www.web2py.com/" id="web2py-logo"><b>web<span>2</span>py</b>&trade;&nbsp;</a></div></td></tr><tr><td style="font-weight:bold;vertical-align:top;">menu</td><td style="vertical-align:top;">:</td><td><div><table><tr><td><div><table><tr><td><div>Accueil</div></td></tr><tr><td><div>False</div></td></tr><tr><td><div>/obsas_dev</div></td></tr><tr><td><div><table></table></div></td></tr></table></div></td></tr><tr><td><div><table><tr><td><div>Mes sites</div></td></tr><tr><td><div>False</div></td></tr><tr><td><div>/admin/site</div></td></tr></table></div></td></tr><tr><td><div><table><tr><td><div>Cette Appli</div></td></tr><tr><td><div>False</div></td></tr><tr><td><div>#</div></td></tr><tr><td><div><table><tr><td><div><table><tr><td><div>Design</div></td></tr><tr><td><div>False</div></td></tr><tr><td><div>/admin/design/obsas_dev</div></td></tr></table></div></td></tr><tr><td><div><li class="divider"></li></div></td></tr><tr><td><div><table><tr><td><div>Contr\xc3\xb4leur</div></td></tr><tr><td><div>False</div></td></tr><tr><td><div>/admin/edit/obsas_dev/controllers/analyse.py</div></td></tr></table></div></td></tr><tr><td><div><table><tr><td><div>Pr\xc3\xa9sentation</div></td></tr><tr><td><div>False</div></td></tr><tr><td><div>/admin/edit/obsas_dev/views/analyse/vueaxe.html</div></td></tr></table></div></td></tr><tr><td><div><table><tr><td><div>Mod\xc3\xa8le BD</div></td></tr><tr><td><div>False</div></td></tr><tr><td><div>/admin/edit/obsas_dev/models/db.py</div></td></tr></table></div></td></tr><tr><td><div><table><tr><td><div>Menu mod\xc3\xa8le</div></td></tr><tr><td><div>False</div></td></tr><tr><td><div>/admin/edit/obsas_dev/models/menu.py</div></td></tr></table></div></td></tr><tr><td><div><table><tr><td><div>Config.ini</div></td></tr><tr><td><div>False</div></td></tr><tr><td><div>/admin/edit/obsas_dev/private/appconfig.ini</div></td></tr></table></div></td></tr><tr><td><div><table><tr><td><div>Mise en page</div></td></tr><tr><td><div>False</div></td></tr><tr><td><div>/admin/edit/obsas_dev/views/layout.html</div></td></tr></table></div></td></tr><tr><td><div><table><tr><td><div>Feuille de style</div></td></tr><tr><td><div>False</div></td></tr><tr><td><div>/admin/edit/obsas_dev/static/css/web2py-bootstrap3.css</div></td></tr></table></div></td></tr><tr><td><div><table><tr><td><div>base de donn\xc3\xa9es</div></td></tr><tr><td><div>False</div></td></tr><tr><td><div>/obsas_dev/appadmin</div></td></tr></table></div></td></tr><tr><td><div><table><tr><td><div>Erreurs</div></td></tr><tr><td><div>False</div></td></tr><tr><td><div>/admin/errors/obsas_dev</div></td></tr></table></div></td></tr><tr><td><div><table><tr><td><div>\xc3\x80 propos</div></td></tr><tr><td><div>False</div></td></tr><tr><td><div>/admin/about/obsas_dev</div></td></tr></table></div></td></tr></table></div></td></tr></table></div></td></tr><tr><td><div><table><tr><td><div>web2py.com</div></td></tr><tr><td><div>False</div></td></tr><tr><td><div>#</div></td></tr><tr><td><div><table><tr><td><div><table><tr><td><div>T\xc3\xa9l\xc3\xa9chargement</div></td></tr><tr><td><div>False</div></td></tr><tr><td><div>http://www.web2py.com/examples/default/download</div></td></tr></table></div></td></tr><tr><td><div><table><tr><td><div>Soutien</div></td></tr><tr><td><div>False</div></td></tr><tr><td><div>http://www.web2py.com/examples/default/support</div></td></tr></table></div></td></tr><tr><td><div><table><tr><td><div>D\xc3\xa9mo</div></td></tr><tr><td><div>False</div></td></tr><tr><td><div>http://web2py.com/demo_admin</div></td></tr></table></div></td></tr><tr><td><div><table><tr><td><div>Exemples Rapides</div></td></tr><tr><td><div>False</div></td></tr><tr><td><div>http://web2py.com/examples/default/examples</div></td></tr></table></div></td></tr><tr><td><div><table><tr><td><div>FAQ</div></td></tr><tr><td><div>False</div></td></tr><tr><td><div>http://web2py.com/AlterEgo</div></td></tr></table></div></td></tr><tr><td><div><table><tr><td><div>Vid\xc3\xa9os</div></td></tr><tr><td><div>False</div></td></tr><tr><td><div>http://www.web2py.com/examples/default/videos/</div></td></tr></table></div></td></tr><tr><td><div><table><tr><td><div>Applications gratuites</div></td></tr><tr><td><div>False</div></td></tr><tr><td><div>http://web2py.com/appliances</div></td></tr></table></div></td></tr><tr><td><div><table><tr><td><div>Plugiciels</div></td></tr><tr><td><div>False</div></td></tr><tr><td><div>http://web2py.com/plugins</div></td></tr></table></div></td></tr><tr><td><div><table><tr><td><div>Recettes</div></td></tr><tr><td><div>False</div></td></tr><tr><td><div>http://web2pyslices.com/</div></td></tr></table></div></td></tr></table></div></td></tr></table></div></td></tr><tr><td><div><table><tr><td><div>Documentation</div></td></tr><tr><td><div>False</div></td></tr><tr><td><div>#</div></td></tr><tr><td><div><table><tr><td><div><table><tr><td><div>Online book</div></td></tr><tr><td><div>False</div></td></tr><tr><td><div>http://www.web2py.com/book</div></td></tr></table></div></td></tr><tr><td><div><li class="divider"></li></div></td></tr><tr><td><div><table><tr><td><div>Pr\xc3\xa9face</div></td></tr><tr><td><div>False</div></td></tr><tr><td><div>http://www.web2py.com/book/default/chapter/00</div></td></tr></table></div></td></tr><tr><td><div><table><tr><td><div>Pr\xc3\xa9sentation</div></td></tr><tr><td><div>False</div></td></tr><tr><td><div>http://www.web2py.com/book/default/chapter/01</div></td></tr></table></div></td></tr><tr><td><div><table><tr><td><div>Python</div></td></tr><tr><td><div>False</div></td></tr><tr><td><div>http://www.web2py.com/book/default/chapter/02</div></td></tr></table></div></td></tr><tr><td><div><table><tr><td><div>Pr\xc3\xa9sentation</div></td></tr><tr><td><div>False</div></td></tr><tr><td><div>http://www.web2py.com/book/default/chapter/03</div></td></tr></table></div></td></tr><tr><td><div><table><tr><td><div>Le noyau</div></td></tr><tr><td><div>False</div></td></tr><tr><td><div>http://www.web2py.com/book/default/chapter/04</div></td></tr></table></div></td></tr><tr><td><div><table><tr><td><div>Les Vues</div></td></tr><tr><td><div>False</div></td></tr><tr><td><div>http://www.web2py.com/book/default/chapter/05</div></td></tr></table></div></td></tr><tr><td><div><table><tr><td><div>base de donn\xc3\xa9es</div></td></tr><tr><td><div>False</div></td></tr><tr><td><div>http://www.web2py.com/book/default/chapter/06</div></td></tr></table></div></td></tr><tr><td><div><table><tr><td><div>Formulaires et Validateurs</div></td></tr><tr><td><div>False</div></td></tr><tr><td><div>http://www.web2py.com/book/default/chapter/07</div></td></tr></table></div></td></tr><tr><td><div><table><tr><td><div>Courriel et texto</div></td></tr><tr><td><div>False</div></td></tr><tr><td><div>http://www.web2py.com/book/default/chapter/08</div></td></tr></table></div></td></tr><tr><td><div><table><tr><td><div>Contr\xc3\xb4le d\'acc\xc3\xa8s</div></td></tr><tr><td><div>False</div></td></tr><tr><td><div>http://www.web2py.com/book/default/chapter/09</div></td></tr></table></div></td></tr><tr><td><div><table><tr><td><div>Services</div></td></tr><tr><td><div>False</div></td></tr><tr><td><div>http://www.web2py.com/book/default/chapter/10</div></td></tr></table></div></td></tr><tr><td><div><table><tr><td><div>Recettes Ajax</div></td></tr><tr><td><div>False</div></td></tr><tr><td><div>http://www.web2py.com/book/default/chapter/11</div></td></tr></table></div></td></tr><tr><td><div><table><tr><td><div>Composants et Plugiciels</div></td></tr><tr><td><div>False</div></td></tr><tr><td><div>http://www.web2py.com/book/default/chapter/12</div></td></tr></table></div></td></tr><tr><td><div><table><tr><td><div>Recettes de d\xc3\xa9ploiement</div></td></tr><tr><td><div>False</div></td></tr><tr><td><div>http://www.web2py.com/book/default/chapter/13</div></td></tr></table></div></td></tr><tr><td><div><table><tr><td><div>Autres recettes</div></td></tr><tr><td><div>False</div></td></tr><tr><td><div>http://www.web2py.com/book/default/chapter/14</div></td></tr></table></div></td></tr><tr><td><div><table><tr><td><div>Aider web2py</div></td></tr><tr><td><div>False</div></td></tr><tr><td><div>http://www.web2py.com/book/default/chapter/15</div></td></tr></table></div></td></tr><tr><td><div><table><tr><td><div>Buy web2py\'s book</div></td></tr><tr><td><div>False</div></td></tr><tr><td><div>http://stores.lulu.com/web2py</div></td></tr></table></div></td></tr></table></div></td></tr></table></div></td></tr><tr><td><div><table><tr><td><div>Communaut\xc3\xa9</div></td></tr><tr><td><div>False</div></td></tr><tr><td><div>None</div></td></tr><tr><td><div><table><tr><td><div><table><tr><td><div>Groupes</div></td></tr><tr><td><div>False</div></td></tr><tr><td><div>http://www.web2py.com/examples/default/usergroups</div></td></tr></table></div></td></tr><tr><td><div><table><tr><td><div>Twitter</div></td></tr><tr><td><div>False</div></td></tr><tr><td><div>http://twitter.com/web2py</div></td></tr></table></div></td></tr><tr><td><div><table><tr><td><div>Clavardage en direct</div></td></tr><tr><td><div>False</div></td></tr><tr><td><div>http://webchat.freenode.net/?channels=web2py</div></td></tr></table></div></td></tr></table></div></td></tr></table></div></td></tr></table></div></td></tr><tr><td style="font-weight:bold;vertical-align:top;">meta</td><td style="vertical-align:top;">:</td><td><div><table><tr><td style="font-weight:bold;vertical-align:top;">author</td><td style="vertical-align:top;">:</td><td><div>Your Name &lt;you@example.com&gt;</div></td></tr><tr><td style="font-weight:bold;vertical-align:top;">description</td><td style="vertical-align:top;">:</td><td><div>a cool new app</div></td></tr><tr><td style="font-weight:bold;vertical-align:top;">generator</td><td style="vertical-align:top;">:</td><td><div>Web2py Web Framework</div></td></tr><tr><td style="font-weight:bold;vertical-align:top;">keywords</td><td style="vertical-align:top;">:</td><td><div><table><tr><td><div>web2py</div></td></tr><tr><td><div>python</div></td></tr><tr><td><div>framework</div></td></tr></table></div></td></tr></table></div></td></tr><tr><td style="font-weight:bold;vertical-align:top;">models_to_run</td><td style="vertical-align:top;">:</td><td><div><table><tr><td><div>^\\w+\\.py$</div></td></tr><tr><td><div>^analyse/\\w+\\.py$</div></td></tr><tr><td><div>^analyse/vueaxe/\\w+\\.py$</div></td></tr></table></div></td></tr><tr><td style="font-weight:bold;vertical-align:top;">postprocessing</td><td style="vertical-align:top;">:</td><td><div><table></table></div></td></tr><tr><td style="font-weight:bold;vertical-align:top;">session_client</td><td style="vertical-align:top;">:</td><td><div>83.203.43.40</div></td></tr><tr><td style="font-weight:bold;vertical-align:top;">session_cookie_compression_level</td><td style="vertical-align:top;">:</td><td><div>None</div></td></tr><tr><td style="font-weight:bold;vertical-align:top;">session_cookie_expires</td><td style="vertical-align:top;">:</td><td><div>None</div></td></tr><tr><td style="font-weight:bold;vertical-align:top;">session_data_name</td><td style="vertical-align:top;">:</td><td><div>session_data_obsas_dev</div></td></tr><tr><td style="font-weight:bold;vertical-align:top;">session_file</td><td style="vertical-align:top;">:</td><td><div>&lt;open file &#x27;/home/www-data/web2py/applications/obsas_dev/sessions/0df/120/83.203.54.41-fc7640bd-5607-4d0d-830a-27d2371bbd50&#x27;, mode &#x27;rb+&#x27; at 0x7ff3a5f87780&gt;</div></td></tr><tr><td style="font-weight:bold;vertical-align:top;">session_filename</td><td style="vertical-align:top;">:</td><td><div>/home/www-data/web2py/applications/obsas_dev/sessions/83.203.54.41-fc7640bd-5607-4d0d-830a-27d2371bbd50</div></td></tr><tr><td style="font-weight:bold;vertical-align:top;">session_hash</td><td style="vertical-align:top;">:</td><td><div>aaa973a339b161946d0f7a768ba09bea</div></td></tr><tr><td style="font-weight:bold;vertical-align:top;">session_id</td><td style="vertical-align:top;">:</td><td><div>83.203.54.41-fc7640bd-5607-4d0d-830a-27d2371bbd50</div></td></tr><tr><td style="font-weight:bold;vertical-align:top;">session_id_name</td><td style="vertical-align:top;">:</td><td><div>session_id_obsas_dev</div></td></tr><tr><td style="font-weight:bold;vertical-align:top;">session_locked</td><td style="vertical-align:top;">:</td><td><div>True</div></td></tr><tr><td style="font-weight:bold;vertical-align:top;">session_masterapp</td><td style="vertical-align:top;">:</td><td><div>obsas_dev</div></td></tr><tr><td style="font-weight:bold;vertical-align:top;">session_new</td><td style="vertical-align:top;">:</td><td><div>False</div></td></tr><tr><td style="font-weight:bold;vertical-align:top;">session_storage_type</td><td style="vertical-align:top;">:</td><td><div>file</div></td></tr><tr><td style="font-weight:bold;vertical-align:top;">status</td><td style="vertical-align:top;">:</td><td><div>200</div></td></tr><tr><td style="font-weight:bold;vertical-align:top;">subtitle</td><td style="vertical-align:top;">:</td><td><div></div></td></tr><tr><td style="font-weight:bold;vertical-align:top;">title</td><td style="vertical-align:top;">:</td><td><div>Obsas Dev</div></td></tr><tr><td style="font-weight:bold;vertical-align:top;">view</td><td style="vertical-align:top;">:</td><td><div>analyse/vueaxe.html</div></td></tr></table></div>'
tRp104
sS'locals'
p105
(dp106
S'Service'
p107
S"<class 'gluon.tools.Service'>"
p108
sS'PY2'
p109
S'True'
p110
sS'OBJECT'
p111
S"<class 'gluon.html.OBJECT'>"
p112
sS'SQLDB'
p113
S"<class 'pydal.base.DAL'>"
p114
sS'sortfcts'
p115
S"{'alpha': {'fct': <function <lambda>>, 'libelle': 'Ordre Alphab\\xc3\\xa9tique'}, 'datescrutin': {'fct': <function <lambda>>, 'libelle': 'par N\\xc2\\xb0 de scrutin'}, 'participation': {'fct': <function <lambda>>, 'libelle': 'Participation'}, 'pctabs': {'fct': <function <lambda>>, 'libelle': '% Votes abstention'}, 'pctcontre': {'fct': <function <lambda>>, 'libelle': '% Votes contre'}, 'pctpour': {'fct': <function <lambda>>, 'libelle': '% Votes pour'}}"
p116
sg97
S"<Storage {'items': [{'stats': [{'libelle': 'vote...an'}], 'participation': 17.0}], '_secure': True}>"
p117
sS'LINK'
p118
S"<class 'gluon.html.LINK'>"
p119
sS'BR'
p120
S"<class 'gluon.html.BR'>"
p121
sS'local_import'
p122
S'<function <lambda>>'
p123
sS'OPTGROUP'
p124
S"<class 'gluon.html.OPTGROUP'>"
p125
sS'__package__'
p126
S'None'
p127
sS'PRE'
p128
S"<class 'gluon.html.PRE'>"
p129
sS'IS_INT_IN_RANGE'
p130
S"<class 'gluon.validators.IS_INT_IN_RANGE'>"
p131
sS'to_bytes'
p132
S'<function to_bytes>'
p133
sS'IS_LOWER'
p134
S"<class 'gluon.validators.IS_LOWER'>"
p135
sS'IS_STRONG'
p136
S"<class 'gluon.validators.IS_STRONG'>"
p137
sS'cache'
p138
S'<gluon.cache.Cache object>'
p139
sS'vide'
p140
S'<function vide>'
p141
sS'IS_IN_DB'
p142
S"<class 'gluon.validators.IS_IN_DB'>"
p143
sS'TAG'
p144
S'<gluon.html.__TAG__ object>'
p145
sS'SQLField'
p146
S"<class 'pydal.objects.Field'>"
p147
sS'mail'
p148
S'<gluon.tools.Mail object>'
p149
sS'BODY'
p150
S"<class 'gluon.html.BODY'>"
p151
sS'IS_DATE_IN_RANGE'
p152
S"<class 'gluon.validators.IS_DATE_IN_RANGE'>"
p153
sS'IFRAME'
p154
S"<class 'gluon.html.IFRAME'>"
p155
sS'URL'
p156
S'<function URL>'
p157
sS'__file__'
p158
S"'/home/www-data/web2py/applications/obsas_dev/views/analyse/vueaxe.html'"
p159
sS'db'
p160
S'<DAL uri="sqlite://storage.sqlite">'
p161
sS'auth'
p162
S'<gluon.tools.Auth object>'
p163
sS'P'
S"<class 'gluon.html.P'>"
p164
sS'TFOOT'
p165
S"<class 'gluon.html.TFOOT'>"
p166
sS'iteritems'
p167
S'<function <lambda>>'
p168
sS'XHTML'
p169
S"<class 'gluon.html.XHTML'>"
p170
sS'datetime'
p171
S"<module 'datetime' (built-in)>"
p172
sS'desc'
p173
S"'1'"
p174
sS'tri'
p175
S"'datescrutin'"
p176
sS'ON'
p177
g110
sS'OL'
p178
S"<class 'gluon.html.OL'>"
p179
sS'TEXTAREA'
p180
S"<class 'gluon.html.TEXTAREA'>"
p181
sS'MENU'
p182
S"<class 'gluon.html.MENU'>"
p183
sS'item'
p184
S'{u\'_id\': ObjectId(\'596bc96d8e5c9b497eb9b05e\'), \'cercles\': [], \'deputes\': 11, u\'key\': u\'15_49\', u\'label\': u"Scrutin n\\xb0 49 du 13/07/2017 : l\'ensemble du...rcement du dialogue social (premi\\xe8re lecture)", \'nb\': {\'absent\': 244, \'abstention\': 4, \'contre\': 50, \'nonVotant\': 10, \'pour\': 269}, \'participation\': 57.0, u\'scrutin_date\': u\'13/07/2017\', u\'scrutin_desc\': u"l\'ensemble du projet de loi d\'habilitation \\xe...rcement du dialogue social (premi\\xe8re lecture)", u\'scrutin_dossier\': u\'N/A\', ...}'
p185
sS't'
S"('datescrutin', 'par N\\xc2\\xb0 de scrutin')"
p186
sS'IS_IMAGE'
p187
S"<class 'gluon.validators.IS_IMAGE'>"
p188
sS'EM'
p189
S"<class 'gluon.html.EM'>"
p190
sS'CODE'
p191
S"<class 'gluon.html.CODE'>"
p192
sS'HTTP'
p193
S"<class 'gluon.http.HTTP'>"
p194
sS'locale'
p195
S"<module 'locale' from '/home/www-data/web2py/app...tions/obsas_dev/.pyenv/lib/python2.7/locale.pyc'>"
p196
sS'IS_DATETIME'
p197
S"<class 'gluon.validators.IS_DATETIME'>"
p198
sS'reduce'
p199
S'<built-in function reduce>'
p200
sS'STYLE'
p201
S"<class 'gluon.html.STYLE'>"
p202
sS'LABEL'
p203
S"<class 'gluon.html.LABEL'>"
p204
sS'items'
p205
S'[{u\'_id\': ObjectId(\'596bc96d8e5c9b497eb9b05e\'), \'cercles\': [], \'deputes\': 11, u\'key\': u\'15_49\', u\'label\': u"Scrutin n\\xb0 49 du 13/07/2017 : l\'ensemble du...rcement du dialogue social (premi\\xe8re lecture)", \'nb\': {\'absent\': 244, \'abstention\': 4, \'contre\': 50, \'nonVotant\': 10, \'pour\': 269}, \'participation\': 57.0, u\'scrutin_date\': u\'13/07/2017\', u\'scrutin_desc\': u"l\'ensemble du projet de loi d\'habilitation \\xe...rcement du dialogue social (premi\\xe8re lecture)", u\'scrutin_dossier\': u\'N/A\', ...}, {u\'_id\': ObjectId(\'596bc96d8e5c9b497eb9b05d\'), \'cercles\': [], \'deputes\': 11, u\'key\': u\'15_48\', u\'label\': u"Scrutin n\\xb0 48 du 13/07/2017 : l\'amendement ...cement du dialogue social (premi\\xe8re lecture).", \'nb\': {\'absent\': 412, \'abstention\': 3, \'contre\': 129, \'nonVotant\': 10, \'pour\': 23}, \'participation\': 27.3, u\'scrutin_date\': u\'13/07/2017\', u\'scrutin_desc\': u"l\'amendement n\\xb0 422 de M. Dharr\\xe9ville ap...cement du dialogue social (premi\\xe8re lecture).", u\'scrutin_dossier\': u\'N/A\', ...}, {u\'_id\': ObjectId(\'596bc96d8e5c9b497eb9b060\'), \'cercles\': [], \'deputes\': 11, u\'key\': u\'15_47\', u\'label\': u"Scrutin n\\xb0 47 du 13/07/2017 : l\'amendement ...cement du dialogue social (premi\\xe8re lecture).", \'nb\': {\'absent\': 426, \'abstention\': 1, \'contre\': 116, \'nonVotant\': 10, \'pour\': 24}, \'participation\': 24.9, u\'scrutin_date\': u\'13/07/2017\', u\'scrutin_desc\': u"l\'amendement n\\xb0 385 de M. Dharr\\xe9ville ap...cement du dialogue social (premi\\xe8re lecture).", u\'scrutin_dossier\': u\'N/A\', ...}, {u\'_id\': ObjectId(\'596bc96d8e5c9b497eb9b05f\'), \'cercles\': [], \'deputes\': 11, u\'key\': u\'15_46\', u\'label\': u"Scrutin n\\xb0 46 du 13/07/2017 : l\'article 7 d...cement du dialogue social (premi\\xe8re lecture).", \'nb\': {\'absent\': 434, \'abstention\': 6, \'contre\': 24, \'nonVotant\': 10, \'pour\': 103}, \'participation\': 23.5, u\'scrutin_date\': u\'13/07/2017\', u\'scrutin_desc\': u"l\'article 7 du projet de loi d\'habilitation \\x...cement du dialogue social (premi\\xe8re lecture).", u\'scrutin_dossier\': u\'N/A\', ...}, {u\'_id\': ObjectId(\'596bc96d8e5c9b497eb9b062\'), \'cercles\': [], \'deputes\': 11, u\'key\': u\'15_45\', u\'label\': u"Scrutin n\\xb0 45 du 13/07/2017 : l\'amendement ...cement du dialogue social (premi\\xe8re lecture).", \'nb\': {\'absent\': 450, \'abstention\': 8, \'contre\': 87, \'nonVotant\': 10, \'pour\': 22}, \'participation\': 20.6, u\'scrutin_date\': u\'13/07/2017\', u\'scrutin_desc\': u"l\'amendement n\\xb079 de M. Quatennens et l\'ame...cement du dialogue social (premi\\xe8re lecture).", u\'scrutin_dossier\': u\'N/A\', ...}, {u\'_id\': ObjectId(\'596bc96d8e5c9b497eb9b061\'), \'cercles\': [], \'deputes\': 11, u\'key\': u\'15_44\', u\'label\': u"Scrutin n\\xb0 44 du 13/07/2017 : l\'article 6 d...cement du dialogue social (premi\\xe8re lecture).", \'nb\': {\'absent\': 437, \'abstention\': 3, \'contre\': 24, \'nonVotant\': 10, \'pour\': 103}, \'participation\': 22.9, u\'scrutin_date\': u\'13/07/2017\', u\'scrutin_desc\': u"l\'article 6 du projet de loi d\'habilitation \\x...cement du dialogue social (premi\\xe8re lecture).", u\'scrutin_dossier\': u\'N/A\', ...}, {u\'_id\': ObjectId(\'596bc96d8e5c9b497eb9b064\'), \'cercles\': [], \'deputes\': 11, u\'key\': u\'15_43\', u\'label\': u"Scrutin n\\xb0 43 du 13/07/2017 : l\'amendement ...cement du dialogue social (premi\\xe8re lecture).", \'nb\': {\'absent\': 448, \'abstention\': 6, \'contre\': 96, \'nonVotant\': 10, \'pour\': 17}, \'participation\': 21.0, u\'scrutin_date\': u\'13/07/2017\', u\'scrutin_desc\': u"l\'amendement n\\xb0 85 de M. Quatennens \\xe0 l\'...cement du dialogue social (premi\\xe8re lecture).", u\'scrutin_dossier\': u\'N/A\', ...}, {u\'_id\': ObjectId(\'596bc96d8e5c9b497eb9b063\'), \'cercles\': [], \'deputes\': 11, u\'key\': u\'15_42\', u\'label\': u"Scrutin n\\xb0 42 du 13/07/2017 : l\'amendement ...cement du dialogue social (premi\\xe8re lecture).", \'nb\': {\'absent\': 454, \'abstention\': 3, \'contre\': 91, \'nonVotant\': 10, \'pour\': 19}, \'participation\': 19.9, u\'scrutin_date\': u\'13/07/2017\', u\'scrutin_desc\': u"l\'amendement n\\xb0 88 de M. Quatennens \\xe0 l\'...cement du dialogue social (premi\\xe8re lecture).", u\'scrutin_dossier\': u\'N/A\', ...}, {u\'_id\': ObjectId(\'596bc96d8e5c9b497eb9b066\'), \'cercles\': [], \'deputes\': 11, u\'key\': u\'15_41\', u\'label\': u"Scrutin n\\xb0 41 du 13/07/2017 : l\'amendement ...cement du dialogue social (premi\\xe8re lecture).", \'nb\': {\'absent\': 447, \'abstention\': 8, \'contre\': 93, \'nonVotant\': 10, \'pour\': 19}, \'participation\': 21.2, u\'scrutin_date\': u\'13/07/2017\', u\'scrutin_desc\': u"l\'amendement n\\xb0 402 de M. Dharr\\xe9ville \\x...cement du dialogue social (premi\\xe8re lecture).", u\'scrutin_dossier\': u\'N/A\', ...}, {u\'_id\': ObjectId(\'596bc96d8e5c9b497eb9b065\'), \'cercles\': [], \'deputes\': 11, u\'key\': u\'15_40\', u\'label\': u"Scrutin n\\xb0 40 du 13/07/2017 : l\'amendement ...cement du dialogue social (premi\\xe8re lecture).", \'nb\': {\'absent\': 451, \'abstention\': 1, \'contre\': 87, \'nonVotant\': 10, \'pour\': 28}, \'participation\': 20.5, u\'scrutin_date\': u\'13/07/2017\', u\'scrutin_desc\': u"l\'amendement n\\xb0 80 de M. Quatennens \\xe0 l\'...cement du dialogue social (premi\\xe8re lecture).", u\'scrutin_dossier\': u\'N/A\', ...}, {u\'_id\': ObjectId(\'596bc96d8e5c9b497eb9b075\'), \'cercles\': [], \'deputes\': 11, u\'key\': u\'15_39\', u\'label\': u"Scrutin n\\xb0 39 du 13/07/2017 : l\'amendement ...cement du dialogue social (premi\\xe8re lecture).", \'nb\': {\'absent\': 443, \'abstention\': 0, \'contre\': 104, \'nonVotant\': 10, \'pour\': 20}, \'participation\': 21.9, u\'scrutin_date\': u\'13/07/2017\', u\'scrutin_desc\': u"l\'amendement n\\xb0 234 de M. Quatennens et les...cement du dialogue social (premi\\xe8re lecture).", u\'scrutin_dossier\': u\'N/A\', ...}, {u\'_id\': ObjectId(\'596bc96d8e5c9b497eb9b076\'), \'cercles\': [], \'deputes\': 11, u\'key\': u\'15_38\', u\'label\': u"Scrutin n\\xb0 38 du 13/07/2017 : l\'article 4 d...ment du dialogue social (premi\\xe8re lecture). [", \'nb\': {\'absent\': 429, \'abstention\': 0, \'contre\': 28, \'nonVotant\': 10, \'pour\': 110}, \'participation\': 24.3, u\'scrutin_date\': u\'13/07/2017\', u\'scrutin_desc\': u"l\'article 4 du projet de loi d\'habilitation \\x...cement du dialogue social (premi\\xe8re lecture).", u\'scrutin_dossier\': u\'S-LEGANR5L15DLhabilitation_ordonnances_dialogue_social\', ...}, {u\'_id\': ObjectId(\'596bc96d8e5c9b497eb9b07f\'), \'cercles\': [], \'deputes\': 11, u\'key\': u\'15_37\', u\'label\': u"Scrutin n\\xb0 37 du 13/07/2017 : l\'amendement ...ment du dialogue social (premi\\xe8re lecture). [", \'nb\': {\'absent\': 451, \'abstention\': 1, \'contre\': 99, \'nonVotant\': 10, \'pour\': 16}, \'participation\': 20.5, u\'scrutin_date\': u\'13/07/2017\', u\'scrutin_desc\': u"l\'amendement n\\xb0 148 de M. Lachaud et l\'amen...cement du dialogue social (premi\\xe8re lecture).", u\'scrutin_dossier\': u\'S-LEGANR5L15DLhabilitation_ordonnances_dialogue_social\', ...}, {u\'_id\': ObjectId(\'596bc96d8e5c9b497eb9b080\'), \'cercles\': [], \'deputes\': 11, u\'key\': u\'15_36\', u\'label\': u"Scrutin n\\xb0 36 du 13/07/2017 : l\'amendement ...ment du dialogue social (premi\\xe8re lecture). [", \'nb\': {\'absent\': 426, \'abstention\': 4, \'contre\': 115, \'nonVotant\': 10, \'pour\': 22}, \'participation\': 24.9, u\'scrutin_date\': u\'13/07/2017\', u\'scrutin_desc\': u"l\'amendement n\\xb0 475 de M. Vallaud apr\\xe8s ...cement du dialogue social (premi\\xe8re lecture).", u\'scrutin_dossier\': u\'S-LEGANR5L15DLhabilitation_ordonnances_dialogue_social\', ...}, {u\'_id\': ObjectId(\'596bc96d8e5c9b497eb9b081\'), \'cercles\': [], \'deputes\': 11, u\'key\': u\'15_35\', u\'label\': u"Scrutin n\\xb0 35 du 13/07/2017 : l\'amendement ...ment du dialogue social (premi\\xe8re lecture). [", \'nb\': {\'absent\': 421, \'abstention\': 5, \'contre\': 123, \'nonVotant\': 10, \'pour\': 18}, \'participation\': 25.7, u\'scrutin_date\': u\'13/07/2017\', u\'scrutin_desc\': u"l\'amendement n\\xb0 330 de M. Dharr\\xe9ville ap...cement du dialogue social (premi\\xe8re lecture).", u\'scrutin_dossier\': u\'S-LEGANR5L15DLhabilitation_ordonnances_dialogue_social\', ...}, {u\'_id\': ObjectId(\'596bc96d8e5c9b497eb9b082\'), \'cercles\': [], \'deputes\': 11, u\'key\': u\'15_34\', u\'label\': u"Scrutin n\\xb0 34 du 13/07/2017 : l\'amendement ...ment du dialogue social (premi\\xe8re lecture). [", \'nb\': {\'absent\': 477, \'abstention\': 1, \'contre\': 70, \'nonVotant\': 10, \'pour\': 19}, \'participation\': 15.9, u\'scrutin_date\': u\'13/07/2017\', u\'scrutin_desc\': u"l\'amendement n\\xb0335 de M. Dharr\\xe9ville apr...cement du dialogue social (premi\\xe8re lecture).", u\'scrutin_dossier\': u\'S-LEGANR5L15DLhabilitation_ordonnances_dialogue_social\', ...}, {u\'_id\': ObjectId(\'596bc96d8e5c9b497eb9b083\'), \'cercles\': [], \'deputes\': 11, u\'key\': u\'15_33\', u\'label\': u"Scrutin n\\xb0 33 du 13/07/2017 : l\'amendement ...ment du dialogue social (premi\\xe8re lecture). [", \'nb\': {\'absent\': 475, \'abstention\': 2, \'contre\': 69, \'nonVotant\': 10, \'pour\': 21}, \'participation\': 16.2, u\'scrutin_date\': u\'13/07/2017\', u\'scrutin_desc\': u"l\'amendement n\\xb0215 de M. Quatennens apr\\xe8...cement du dialogue social (premi\\xe8re lecture).", u\'scrutin_dossier\': u\'S-LEGANR5L15DLhabilitation_ordonnances_dialogue_social\', ...}, {u\'_id\': ObjectId(\'596bc96d8e5c9b497eb9b084\'), \'cercles\': [], \'deputes\': 11, u\'key\': u\'15_32\', u\'label\': u"Scrutin n\\xb0 32 du 13/07/2017 : l\'amendement ...ment du dialogue social (premi\\xe8re lecture). [", \'nb\': {\'absent\': 434, \'abstention\': 2, \'contre\': 101, \'nonVotant\': 10, \'pour\': 30}, \'participation\': 23.5, u\'scrutin_date\': u\'13/07/2017\', u\'scrutin_desc\': u"l\'amendement n\\xb0327 de M. Dharr\\xe9ville apr...cement du dialogue social (premi\\xe8re lecture).", u\'scrutin_dossier\': u\'S-LEGANR5L15DLhabilitation_ordonnances_dialogue_social\', ...}, {u\'_id\': ObjectId(\'596bc96d8e5c9b497eb9b07d\'), \'cercles\': [], \'deputes\': 11, u\'key\': u\'15_31\', u\'label\': u"Scrutin n\\xb0 31 du 12/07/2017 : l\'amendement ...ment du dialogue social (premi\\xe8re lecture). [", \'nb\': {\'absent\': 446, \'abstention\': 1, \'contre\': 100, \'nonVotant\': 10, \'pour\': 20}, \'participation\': 21.3, u\'scrutin_date\': u\'12/07/2017\', u\'scrutin_desc\': u"l\'amendement n\\xb0 318 de M. Dharr\\xe9ville ap...cement du dialogue social (premi\\xe8re lecture).", u\'scrutin_dossier\': u\'S-LEGANR5L15DLhabilitation_ordonnances_dialogue_social\', ...}, {u\'_id\': ObjectId(\'596bc96d8e5c9b497eb9b054\'), \'cercles\': [], \'deputes\': 11, u\'key\': u\'15_30\', u\'label\': u"Scrutin n\\xb0 30 du 12/07/2017 : l\'article 3 d...ment du dialogue social (premi\\xe8re lecture). [", \'nb\': {\'absent\': 391, \'abstention\': 0, \'contre\': 21, \'nonVotant\': 10, \'pour\': 155}, \'participation\': 31.0, u\'scrutin_date\': u\'12/07/2017\', u\'scrutin_desc\': u"l\'article 3 du projet de loi d\'habilitation \\x...cement du dialogue social (premi\\xe8re lecture).", u\'scrutin_dossier\': u\'S-LEGANR5L15DLhabilitation_ordonnances_dialogue_social\', ...}, ...]'
p206
sS'CLEANUP'
p207
S"<class 'gluon.validators.CLEANUP'>"
p208
sS'plugins'
p209
S'<gluon.tools.PluginManager object>'
p210
sS'SELECT'
p211
S"<class 'gluon.html.SELECT'>"
p212
sS'nbscrutins'
p213
S'49'
p214
sS'suf'
p215
S"('tous', 'Tous')"
p216
sS'suffrages_choix'
p217
S"[('exprime', 'Exprim\\xc3\\xa9s'), ('tous', 'Tous')]"
p218
sS'CENTER'
p219
S"<class 'gluon.html.CENTER'>"
p220
sS'tris_choix'
p221
S"[('participation', 'Participation'), ('pctpour', '% Votes pour'), ('pctcontre', '% Votes contre'), ('pctabs', '% Votes abstention'), ('alpha', 'Ordre Alphab\\xc3\\xa9tique'), ('datescrutin', 'par N\\xc2\\xb0 de scrutin')]"
p222
sS'axes'
p223
S'{\'ages\': {\'elements\': \'G\', \'libelle\': "Classes d\'age", \'source\': {\'filtre\': {}, \'key\': \'classeage\', \'label\': \'classeage\', \'nom\': \'acteurs\'}, \'titre\': "Votes par classe d\'age", \'votes\': {\'field\': \'classeage\'}}, \'assemblee\': {\'elements\': \'G\', \'hidechart\': False, \'libelle\': \'Assembl\\xc3\\xa9e\', \'source\': {\'filtre\': {\'actif\': True, \'codeType\': \'ASSEMBLEE\'}, \'key\': \'libelleAbrev\', \'label\': \'libelle\', \'nom\': \'organes\'}, \'titre\': "Votes de l\'Assembl\\xc3\\xa9e", \'votes\': {\'field\': \'organes\'}}, \'commissions\': {\'elements\': \'G\', \'libelle\': \'Commissions\', \'source\': {\'filtre\': {\'$and\': [{\'$or\': [...]}, {\'actif\': True}]}, \'key\': \'uid\', \'label\': \'libelle\', \'nom\': \'organes\'}, \'titre\': \'Votes par Commissions\', \'votes\': {\'field\': \'commissions\'}}, \'csp\': {\'elements\': \'G\', \'libelle\': \'Cat\\xc3\\xa9gorie Socio-professionnelle\', \'source\': {\'filtre\': {}, \'key\': \'csp\', \'label\': \'csp\', \'nom\': \'acteurs\'}, \'titre\': \'Votes par Cat\\xc3\\xa9gorie Socio-professionnelle\', \'votes\': {\'field\': \'csp\'}}, \'departements\': {\'elements\': \'G\', \'libelle\': \'D\\xc3\\xa9partements\', \'source\': {\'filtre\': {}, \'key\': \'departement\', \'label\': \'departement\', \'nom\': \'acteurs\'}, \'titre\': \'Votes par D\\xc3\\xa9partements\', \'votes\': {\'field\': \'departement\'}}, \'depute\': {\'elements\': \'P\', \'libelle\': \'D\\xc3\\xa9put\\xc3\\xa9s\', \'source\': {\'filtre\': {}, \'key\': \'uid\', \'label\': \'prenomnom\', \'nom\': \'acteurs\'}, \'titre\': \'Votes par d\\xc3\\xa9put\\xc3\\xa9\', \'votes\': {\'field\': \'uid\'}}, \'groupes\': {\'elements\': \'G\', \'hidechart\': False, \'libelle\': \'Groupes\', \'source\': {\'filtre\': {\'actif\': True, \'codeType\': \'GP\'}, \'key\': \'uid\', \'label\': \'libelle\', \'nom\': \'organes\'}, \'titre\': \'Votes par Groupe parlementaire\', \'votes\': {\'field\': \'groupe\'}}, \'regions\': {\'elements\': \'G\', \'libelle\': \'R\\xc3\\xa9gions\', \'source\': {\'filtre\': {}, \'key\': \'region\', \'label\': \'region\', \'nom\': \'acteurs\'}, \'titre\': \'Votes par R\\xc3\\xa9gions\', \'votes\': {\'field\': \'region\'}}, \'scrutin\': {\'elements\': \'G\', \'libelle\': \'Scrutins\', \'source\': {\'filtre\': {}, \'key\': \'scrutin_id\', \'label\': \'scrutin_fulldesc\', \'nom\': \'scrutins\'}, \'titre\': \'Votes par scrutin\', \'tri_defaut\': \'datescrutin\', \'tris\': [\'datescrutin\'], \'votes\': {\'field\': \'scrutin_id\'}}, \'sexe\': {\'elements\': \'G\', \'libelle\': \'Sexe\', \'source\': {\'filtre\': {}, \'key\': \'sexe\', \'label\': \'sexe\', \'nom\': \'acteurs\'}, \'titre\': \'Votes par sexe\', \'votes\': {\'field\': \'sexe\'}}, ...}'
p224
sS'Auth'
p225
S"<class 'gluon.tools.Auth'>"
p226
sS'DEVELOPMENT_MENU'
p227
g110
sS'__builtins__'
p228
S"{'ArithmeticError': <type 'exceptions.ArithmeticError'>, 'AssertionError': <type 'exceptions.AssertionError'>, 'AttributeError': <type 'exceptions.AttributeError'>, 'BaseException': <type 'exceptions.BaseException'>, 'BufferError': <type 'exceptions.BufferError'>, 'BytesWarning': <type 'exceptions.BytesWarning'>, 'DeprecationWarning': <type 'exceptions.DeprecationWarning'>, 'EOFError': <type 'exceptions.EOFError'>, 'Ellipsis': Ellipsis, 'EnvironmentError': <type 'exceptions.EnvironmentError'>, ...}"
p229
sS'HTML'
p230
S"<class 'gluon.html.HTML'>"
p231
sS'SQLFORM'
p232
S"<class 'gluon.sqlhtml.SQLFORM'>"
p233
sS'LOAD'
p234
S'<function LOAD>'
p235
sS'redirect'
p236
S'<function redirect>'
p237
sS'FIELDSET'
p238
S"<class 'gluon.html.FIELDSET'>"
p239
sS'IS_EQUAL_TO'
p240
S"<class 'gluon.validators.IS_EQUAL_TO'>"
p241
sS'sortfcts_order'
p242
S"['participation', 'pctpour', 'pctcontre', 'pctabs', 'alpha']"
p243
sS'embed64'
p244
S'<function embed64>'
p245
sS'IS_LIST_OF'
p246
S"<class 'gluon.validators.IS_LIST_OF'>"
p247
sS'__name__'
p248
S"'__restricted__'"
p249
sS'EMBED'
p250
S"<class 'gluon.html.EMBED'>"
p251
sS'_'
S'<function _>'
p252
sS'myconf'
p253
S"{'forms': {'formstyle': 'bootstrap3_inline', 'se...': {'names': 'localhost:*, 127.0.0.1:*, *:*, *'}}"
p254
sS'H2'
p255
S"<class 'gluon.html.H2'>"
p256
sS'H3'
p257
S"<class 'gluon.html.H3'>"
p258
sS'AppConfig'
p259
S'<function AppConfig>'
p260
sS'H1'
p261
S"<class 'gluon.html.H1'>"
p262
sS'H6'
p263
S"<class 'gluon.html.H6'>"
p264
sS'H4'
p265
S"<class 'gluon.html.H4'>"
p266
sS'H5'
p267
S"<class 'gluon.html.H5'>"
p268
sS'UL'
p269
S"<class 'gluon.html.UL'>"
p270
sS'IS_UPPER'
p271
S"<class 'gluon.validators.IS_UPPER'>"
p272
sS'xmlescape'
p273
S'<function xmlescape>'
p274
sS'IS_TIME'
p275
S"<class 'gluon.validators.IS_TIME'>"
p276
sS'OPTION'
p277
S"<class 'gluon.html.OPTION'>"
p278
sS'TITLE'
p279
S"<class 'gluon.html.TITLE'>"
p280
sS'CRYPT'
p281
S"<class 'gluon.validators.CRYPT'>"
p282
sS'IS_EMPTY_OR'
p283
S"<class 'gluon.validators.IS_EMPTY_OR'>"
p284
sS'MARKMIN'
p285
S"<class 'gluon.html.MARKMIN'>"
p286
sS'INPUT'
p287
S"<class 'gluon.html.INPUT'>"
p288
sS'STRONG'
p289
S"<class 'gluon.html.STRONG'>"
p290
sS'COL'
p291
S"<class 'gluon.html.COL'>"
p292
sS'service'
p293
S'<gluon.tools.Service object>'
p294
sS'SCRIPT'
p295
S"<class 'gluon.html.SCRIPT'>"
p296
sS'HR'
p297
S"<class 'gluon.html.HR'>"
p298
sS'mdb'
p299
S"Database(MongoClient(host=['localhost:27017'], d...ss=dict, tz_aware=False, connect=True), u'obsas')"
p300
sS'json'
p301
S"<module 'json' from '/usr/lib/python2.7/json/__init__.pyc'>"
p302
sS'TABLE'
p303
S"<class 'gluon.html.TABLE'>"
p304
sS'IS_IPV4'
p305
S"<class 'gluon.validators.IS_IPV4'>"
p306
sS'IS_LENGTH'
p307
S"<class 'gluon.validators.IS_LENGTH'>"
p308
sS'IS_IPV6'
p309
S"<class 'gluon.validators.IS_IPV6'>"
p310
sS'XML'
p311
S"<class 'gluon.html.XML'>"
p312
sS'ANY_OF'
p313
S"<class 'gluon.validators.ANY_OF'>"
p314
sS'B'
S"<class 'gluon.html.B'>"
p315
sS'IMG'
p316
S"<class 'gluon.html.IMG'>"
p317
sS'SQLTABLE'
p318
S"<class 'gluon.sqlhtml.SQLTABLE'>"
p319
sS'IS_MATCH'
p320
S"<class 'gluon.validators.IS_MATCH'>"
p321
sS'IS_ALPHANUMERIC'
p322
S"<class 'gluon.validators.IS_ALPHANUMERIC'>"
p323
sS'axes_order'
p324
S"['assemblee', 'groupes', 'commissions', 'typeregion', 'regions', 'departements', 'ages', 'csp', 'sexe', 'depute', 'scrutin']"
p325
sS'SPAN'
p326
S"<class 'gluon.html.SPAN'>"
p327
sS'IS_JSON'
p328
S"<class 'gluon.validators.IS_JSON'>"
p329
sS'IS_IPADDRESS'
p330
S"<class 'gluon.validators.IS_IPADDRESS'>"
p331
sS'IS_SLUG'
p332
S"<class 'gluon.validators.IS_SLUG'>"
p333
sS'BEAUTIFY'
p334
S"<class 'gluon.html.BEAUTIFY'>"
p335
sS'META'
p336
S"<class 'gluon.html.META'>"
p337
sS'axes_choix'
p338
S'[(\'assemblee\', \'Assembl\\xc3\\xa9e\'), (\'groupes\', \'Groupes\'), (\'commissions\', \'Commissions\'), (\'typeregion\', \'Type R\\xc3\\xa9gions\'), (\'regions\', \'R\\xc3\\xa9gions\'), (\'departements\', \'D\\xc3\\xa9partements\'), (\'ages\', "Classes d\'age"), (\'csp\', \'Cat\\xc3\\xa9gorie Socio-professionnelle\'), (\'sexe\', \'Sexe\'), (\'depute\', \'D\\xc3\\xa9put\\xc3\\xa9s\'), (\'scrutin\', \'Scrutins\')]'
p339
sS'BUTTON'
p340
S"<class 'gluon.html.BUTTON'>"
p341
sS'MongoClient'
p342
S"<class 'pymongo.mongo_client.MongoClient'>"
p343
sS'IS_DATE'
p344
S"<class 'gluon.validators.IS_DATE'>"
p345
sS'IS_EMAIL'
p346
S"<class 'gluon.validators.IS_EMAIL'>"
p347
sS'IS_NOT_EMPTY'
p348
S"<class 'gluon.validators.IS_NOT_EMPTY'>"
p349
sS'xrange'
p350
S"<type 'xrange'>"
p351
sS'TBODY'
p352
S"<class 'gluon.html.TBODY'>"
p353
sS'CAT'
p354
S"<class 'gluon.html.CAT'>"
p355
sS'Field'
p356
S"<class 'pydal.objects.Field'>"
p357
sS'suffrages'
p358
S"'exprime'"
p359
sS'IS_LIST_OF_EMAILS'
p360
S"<class 'gluon.validators.IS_LIST_OF_EMAILS'>"
p361
sg58
S"<Storage {'_vars': <Storage {'filtres': '{}', 't...'/home/www-data/web2py/applications/obsas_dev/'}>"
p362
sS'DIV'
p363
S"<class 'gluon.html.DIV'>"
p364
sS'LEGEND'
p365
S"<class 'gluon.html.LEGEND'>"
p366
sS'to_native'
p367
S'<function to_native>'
p368
sS'COLGROUP'
p369
S"<class 'gluon.html.COLGROUP'>"
p370
sS'DAL'
p371
S"<class 'pydal.base.DAL'>"
p372
sS'ASSIGNJS'
p373
S'<function ASSIGNJS>'
p374
sS'TR'
p375
S"<class 'gluon.html.TR'>"
p376
sS'LI'
p377
S"<class 'gluon.html.LI'>"
p378
sS'filtres'
p379
S"'{}'"
p380
sS'TH'
p381
S"<class 'gluon.html.TH'>"
p382
sS'titre'
p383
S"'Votes par scrutin'"
p384
sS'TD'
p385
S"<class 'gluon.html.TD'>"
p386
sS'PluginManager'
p387
S"<class 'gluon.tools.PluginManager'>"
p388
sS'IS_URL'
p389
S"<class 'gluon.validators.IS_URL'>"
p390
sS'A'
S"<class 'gluon.html.A'>"
p391
sS'HEAD'
p392
S"<class 'gluon.html.HEAD'>"
p393
sS'elements'
p394
S"'G'"
p395
sS'IS_DATETIME_IN_RANGE'
p396
S"<class 'gluon.validators.IS_DATETIME_IN_RANGE'>"
p397
sS'FORM'
p398
S"<class 'gluon.html.FORM'>"
p399
sS'I'
S"<class 'gluon.html.I'>"
p400
sS'IS_NOT_IN_DB'
p401
S"<class 'gluon.validators.IS_NOT_IN_DB'>"
p402
sg103
S"<Storage {'body': <cStringIO.StringO object at 0... 0x7ff3a8396758>, 'view': 'analyse/vueaxe.html'}>"
p403
sS'THEAD'
p404
S"<class 'gluon.html.THEAD'>"
p405
sS'a'
S"('scrutin', 'Scrutins')"
p406
sS'IS_NULL_OR'
p407
S"<class 'gluon.validators.IS_EMPTY_OR'>"
p408
sS'i'
S'0'
sS'IS_FLOAT_IN_RANGE'
p409
S"<class 'gluon.validators.IS_FLOAT_IN_RANGE'>"
p410
sS'IS_EXPR'
p411
S"<class 'gluon.validators.IS_EXPR'>"
p412
sS'T'
S'<gluon.languages.translator object>'
p413
sS'IS_IN_SET'
p414
S"<class 'gluon.validators.IS_IN_SET'>"
p415
sS'client'
p416
S"MongoClient(host=['localhost:27017'], document_class=dict, tz_aware=False, connect=True)"
p417
sS'IS_UPLOAD_FILENAME'
p418
S"<class 'gluon.validators.IS_UPLOAD_FILENAME'>"
p419
sS'axe'
p420
S"'scrutin'"
p421
sS'TT'
p422
S"<class 'gluon.html.TT'>"
p423
sS'IS_DECIMAL_IN_RANGE'
p424
S"<class 'gluon.validators.IS_DECIMAL_IN_RANGE'>"
p425
sssS'traceback'
p426
S'Traceback (most recent call last):\n  File "/home/www-data/web2py/gluon/restricted.py", line 219, in restricted\n    exec(ccode, environment)\n  File "<string>", line 60, in <module>\nNameError: name \'resultpos\' is not defined\n'
p427
s.