(dp1
S'output'
p2
S"<type 'exceptions.NameError'> name 'axe' is not defined"
p3
sS'layer'
p4
S'/home/www-data/web2py/applications/obsas_dev/views/analyse/index.html'
p5
sS'code'
p6
S'response.write(\'<!DOCTYPE html>\\n<html lang="fr">\\n  <head>\\n    <meta http-equiv="Content-Type" content="text/html; charset=UTF-8"/>\\n    <meta name="viewport" content="width=device-width, initial-scale=1, maximum-scale=1.0, user-scalable=no"/>\\n    <title>ObsAs</title>\\n\\n\\n\\n  <link href="https://fonts.googleapis.com/icon?family=Material+Icons" rel="stylesheet">\\n  <link rel="stylesheet" href="https://cdnjs.cloudflare.com/ajax/libs/materialize/0.99.0/css/materialize.min.css">\\n  <link rel="stylesheet" href="\', escape=False)\nresponse.write(URL(\'static\',\'css/colors.css\'))\nresponse.write(\'"> \\n<style>\\n    tfoot, th {\\n      text-align: center;\\n    }\\n    .parti {\\n      color: grey;\\n      font-weight:300;\\n    }\\n    .sortvote {\\n      font-weight: 500;\\n    }\\n    .vcircle {\\n      display:inline-block;\\n      height: 0.7em;\\n      width: 0.7em;\\n      border-radius: 50%;\\n      margin:2px;\\n    }\\n    .pour {\\n      background: green;\\n    }\\n    .contre {\\n      background: red;\\n    }\\n    .abstention {\\n      background: dodgerblue;\\n    }\\n    .nonVotant {\\n      border-color:green;\\n      border-style:solid;\\n      border-width:1px;\\n    }\\n    .absent {\\n      border-color:red;\\n      border-style:dotted;\\n      border-width:1px;\\n    }\\n    .pour-text {\\n      color: green;\\n    }\\n    .contre-text {\\n      color: red;\\n    }\\n    .abstention-text {\\n      color: dodgerblue;\\n    }\\n    .nonVotant-text {\\n      color: grey;\\n    }\\n   .absent-text {\\n     color: grey;\\n    }\\n\\n    .pctBig {\\n      font-size: 30px;\\n      font-weight: 500;\\n      margin-right:10px;\\n      cursor:help;\\n    }\\n    .pct {\\n      font-size: 24px;\\n      font-weight: 500;\\n      margin-right:10px;\\n      cursor:help;\\n    }\\n    .axe {\\n      margin:2px;\\n    }\\n    .chip {\\n      color: white;\\n      font-size:14px;\\n    }\\n    span.badge {\\n      font-weight: 300;\\n      font-size: 0.8rem;\\n      border-radius: 2px;\\n    }\\n    .tri,#suffrages {\\n      cursor: pointer;\\n    }\\n    .tri i.desc,i.asc {\\n      display:none;\\n    }\\n    .tri.new.desc i.desc {\\n      display:inline;\\n    }\\n    .tri.new.asc i.asc {\\n      display:inline;\\n    }\\n\\n\\n\\n</style>\\n\\n\\n\\n</head>\\n<body>\\n  <nav class="blue-grey darken-1">\\n    <div class="nav-wrapper">\\n      <a href="#" class="brand-logo center">ObsAs</a>\\n     \\n    </div>\\n  </nav>\\n  <div class="container">\\n    <div class="row">\\n      <div class="col s12">\\n        <span>Date de mise \\xc3\\xa0 jour : 11/07/2017 17:05</span>\\n\\n      </div>\\n    </div>\\n    <div class="row">\\n      <div class="col s12">\\n        <div id="scrutins">\\n        </div>\\n      </div>\\n    </div>\\n    <div class="row">\\n      <div class="col s12">\\n        <span id="filtres"></span>\\n        </div>\\n    </div>\\n      <div id="vue"></div>\\n    </div>\\n  </div>\\n</body>\\n<footer>\\n  <!--  Scripts-->\\n  <script src="https://cdnjs.cloudflare.com/ajax/libs/list.js/1.5.0/list.min.js"></script>\\n  <script src="https://code.jquery.com/jquery-3.2.1.min.js"></script>\\n  <script src="https://use.fontawesome.com/57f4fc708a.js"></script>\\n  <script src="https://cdnjs.cloudflare.com/ajax/libs/materialize/0.99.0/js/materialize.min.js"></script>\\n  <script src="https://cdnjs.cloudflare.com/ajax/libs/Chart.js/2.6.0/Chart.bundle.min.js"></script>\\n  <script src="\', escape=False)\nresponse.write(URL(\'static\',\'js/analyse.js\'))\nresponse.write(\'"></script>\\n  \\n\\n  <script>\\n  $(document).ready(function() {\\n    $(".button-collapse").sideNav();\\n    $(\\\'select\\\').material_select();\\n\\n  })\\n  </script>\\n\\n  <script>\\n    var current_axe = "\', escape=False)\nresponse.write(axe)\nresponse.write(\'";\\n    var current_desc = \', escape=False)\nresponse.write(desc)\nresponse.write(\';\\n    var current_scrutin = "\', escape=False)\nresponse.write(scrutin)\nresponse.write(\'";\\n  </script>\\n\\n</footer>\\n\\n</html>\\n\', escape=False)'
p7
sS'snapshot'
p8
(dp9
S'exception'
p10
(dp11
S'__getslice__'
p12
S"<method-wrapper '__getslice__' of exceptions.NameError object>"
p13
sS'__str__'
p14
S"<method-wrapper '__str__' of exceptions.NameError object>"
p15
sS'__reduce__'
p16
S'<built-in method __reduce__ of exceptions.NameError object>'
p17
sS'__dict__'
p18
S'{}'
p19
sS'message'
p20
S'"name \'axe\' is not defined"'
p21
sS'__sizeof__'
p22
S'<built-in method __sizeof__ of exceptions.NameError object>'
p23
sS'__init__'
p24
S"<method-wrapper '__init__' of exceptions.NameError object>"
p25
sS'__setattr__'
p26
S"<method-wrapper '__setattr__' of exceptions.NameError object>"
p27
sS'__reduce_ex__'
p28
S'<built-in method __reduce_ex__ of exceptions.NameError object>'
p29
sS'__new__'
p30
S'<built-in method __new__ of type object>'
p31
sS'__format__'
p32
S'<built-in method __format__ of exceptions.NameError object>'
p33
sS'__class__'
p34
S"<type 'exceptions.NameError'>"
p35
sS'__doc__'
p36
S"'Name not found globally.'"
p37
sS'__getitem__'
p38
S"<method-wrapper '__getitem__' of exceptions.NameError object>"
p39
sS'__setstate__'
p40
S'<built-in method __setstate__ of exceptions.NameError object>'
p41
sS'__getattribute__'
p42
S"<method-wrapper '__getattribute__' of exceptions.NameError object>"
p43
sS'args'
p44
S'("name \'axe\' is not defined",)'
p45
sS'__subclasshook__'
p46
S'<built-in method __subclasshook__ of type object>'
p47
sS'__unicode__'
p48
S'<built-in method __unicode__ of exceptions.NameError object>'
p49
sS'__delattr__'
p50
S"<method-wrapper '__delattr__' of exceptions.NameError object>"
p51
sS'__repr__'
p52
S"<method-wrapper '__repr__' of exceptions.NameError object>"
p53
sS'__hash__'
p54
S"<method-wrapper '__hash__' of exceptions.NameError object>"
p55
ssS'evalue'
p56
S"name 'axe' is not defined"
p57
sS'request'
p58
cgluon.html
XML_unpickle
p59
(S'sny\x00\x00<div><table><tr><td style="font-weight:bold;vertical-align:top;">ajax</td><td style="vertical-align:top;">:</td><td><div>False</div></td></tr><tr><td style="font-weight:bold;vertical-align:top;">application</td><td style="vertical-align:top;">:</td><td><div>obsas_dev</div></td></tr><tr><td style="font-weight:bold;vertical-align:top;">args</td><td style="vertical-align:top;">:</td><td><div><table></table></div></td></tr><tr><td style="font-weight:bold;vertical-align:top;">cid</td><td style="vertical-align:top;">:</td><td><div>None</div></td></tr><tr><td style="font-weight:bold;vertical-align:top;">client</td><td style="vertical-align:top;">:</td><td><div>83.203.54.41</div></td></tr><tr><td style="font-weight:bold;vertical-align:top;">controller</td><td style="vertical-align:top;">:</td><td><div>analyse</div></td></tr><tr><td style="font-weight:bold;vertical-align:top;">cookies</td><td style="vertical-align:top;">:</td><td><div><table><tr><td style="font-weight:bold;vertical-align:top;">session_id_admin</td><td style="vertical-align:top;">:</td><td><div>83.203.176.32-704e3204-d78d-4cb1-9d2b-a7ee77277089<table><tr><td style="font-weight:bold;vertical-align:top;">comment</td><td style="vertical-align:top;">:</td><td><div></div></td></tr><tr><td style="font-weight:bold;vertical-align:top;">domain</td><td style="vertical-align:top;">:</td><td><div></div></td></tr><tr><td style="font-weight:bold;vertical-align:top;">expires</td><td style="vertical-align:top;">:</td><td><div></div></td></tr><tr><td style="font-weight:bold;vertical-align:top;">httponly</td><td style="vertical-align:top;">:</td><td><div></div></td></tr><tr><td style="font-weight:bold;vertical-align:top;">max-age</td><td style="vertical-align:top;">:</td><td><div></div></td></tr><tr><td style="font-weight:bold;vertical-align:top;">path</td><td style="vertical-align:top;">:</td><td><div></div></td></tr><tr><td style="font-weight:bold;vertical-align:top;">secure</td><td style="vertical-align:top;">:</td><td><div></div></td></tr><tr><td style="font-weight:bold;vertical-align:top;">version</td><td style="vertical-align:top;">:</td><td><div></div></td></tr></table></div></td></tr><tr><td style="font-weight:bold;vertical-align:top;">session_id_obsas</td><td style="vertical-align:top;">:</td><td><div>83.203.54.41-e3bd374d-bf18-4487-829f-411f49158515<table><tr><td style="font-weight:bold;vertical-align:top;">comment</td><td style="vertical-align:top;">:</td><td><div></div></td></tr><tr><td style="font-weight:bold;vertical-align:top;">domain</td><td style="vertical-align:top;">:</td><td><div></div></td></tr><tr><td style="font-weight:bold;vertical-align:top;">expires</td><td style="vertical-align:top;">:</td><td><div></div></td></tr><tr><td style="font-weight:bold;vertical-align:top;">httponly</td><td style="vertical-align:top;">:</td><td><div></div></td></tr><tr><td style="font-weight:bold;vertical-align:top;">max-age</td><td style="vertical-align:top;">:</td><td><div></div></td></tr><tr><td style="font-weight:bold;vertical-align:top;">path</td><td style="vertical-align:top;">:</td><td><div></div></td></tr><tr><td style="font-weight:bold;vertical-align:top;">secure</td><td style="vertical-align:top;">:</td><td><div></div></td></tr><tr><td style="font-weight:bold;vertical-align:top;">version</td><td style="vertical-align:top;">:</td><td><div></div></td></tr></table></div></td></tr><tr><td style="font-weight:bold;vertical-align:top;">session_id_obsas_dev</td><td style="vertical-align:top;">:</td><td><div>83.203.54.41-fc7640bd-5607-4d0d-830a-27d2371bbd50<table><tr><td style="font-weight:bold;vertical-align:top;">comment</td><td style="vertical-align:top;">:</td><td><div></div></td></tr><tr><td style="font-weight:bold;vertical-align:top;">domain</td><td style="vertical-align:top;">:</td><td><div></div></td></tr><tr><td style="font-weight:bold;vertical-align:top;">expires</td><td style="vertical-align:top;">:</td><td><div></div></td></tr><tr><td style="font-weight:bold;vertical-align:top;">httponly</td><td style="vertical-align:top;">:</td><td><div></div></td></tr><tr><td style="font-weight:bold;vertical-align:top;">max-age</td><td style="vertical-align:top;">:</td><td><div></div></td></tr><tr><td style="font-weight:bold;vertical-align:top;">path</td><td style="vertical-align:top;">:</td><td><div></div></td></tr><tr><td style="font-weight:bold;vertical-align:top;">secure</td><td style="vertical-align:top;">:</td><td><div></div></td></tr><tr><td style="font-weight:bold;vertical-align:top;">version</td><td style="vertical-align:top;">:</td><td><div></div></td></tr></table></div></td></tr><tr><td style="font-weight:bold;vertical-align:top;">session_id_welcome</td><td style="vertical-align:top;">:</td><td><div>83.203.54.41-2f1de321-540d-4537-a597-598ac7e081ff<table><tr><td style="font-weight:bold;vertical-align:top;">comment</td><td style="vertical-align:top;">:</td><td><div></div></td></tr><tr><td style="font-weight:bold;vertical-align:top;">domain</td><td style="vertical-align:top;">:</td><td><div></div></td></tr><tr><td style="font-weight:bold;vertical-align:top;">expires</td><td style="vertical-align:top;">:</td><td><div></div></td></tr><tr><td style="font-weight:bold;vertical-align:top;">httponly</td><td style="vertical-align:top;">:</td><td><div></div></td></tr><tr><td style="font-weight:bold;vertical-align:top;">max-age</td><td style="vertical-align:top;">:</td><td><div></div></td></tr><tr><td style="font-weight:bold;vertical-align:top;">path</td><td style="vertical-align:top;">:</td><td><div></div></td></tr><tr><td style="font-weight:bold;vertical-align:top;">secure</td><td style="vertical-align:top;">:</td><td><div></div></td></tr><tr><td style="font-weight:bold;vertical-align:top;">version</td><td style="vertical-align:top;">:</td><td><div></div></td></tr></table></div></td></tr></table></div></td></tr><tr><td style="font-weight:bold;vertical-align:top;">env</td><td style="vertical-align:top;">:</td><td><div><table><tr><td style="font-weight:bold;vertical-align:top;">CONTEXT_DOCUMENT_ROOT</td><td style="vertical-align:top;">:</td><td><div>/var/www/html</div></td></tr><tr><td style="font-weight:bold;vertical-align:top;">CONTEXT_PREFIX</td><td style="vertical-align:top;">:</td><td><div></div></td></tr><tr><td style="font-weight:bold;vertical-align:top;">DOCUMENT_ROOT</td><td style="vertical-align:top;">:</td><td><div>/var/www/html</div></td></tr><tr><td style="font-weight:bold;vertical-align:top;">GATEWAY_INTERFACE</td><td style="vertical-align:top;">:</td><td><div>CGI/1.1</div></td></tr><tr><td style="font-weight:bold;vertical-align:top;">HTTP_ACCEPT</td><td style="vertical-align:top;">:</td><td><div>text/html,application/xhtml+xml,application/xml;q=0.9,image/webp,*/*;q=0.8</div></td></tr><tr><td style="font-weight:bold;vertical-align:top;">HTTP_ACCEPT_ENCODING</td><td style="vertical-align:top;">:</td><td><div>gzip, deflate, sdch, br</div></td></tr><tr><td style="font-weight:bold;vertical-align:top;">HTTP_ACCEPT_LANGUAGE</td><td style="vertical-align:top;">:</td><td><div>fr-FR,fr;q=0.8,en-US;q=0.6,en;q=0.4</div></td></tr><tr><td style="font-weight:bold;vertical-align:top;">HTTP_CACHE_CONTROL</td><td style="vertical-align:top;">:</td><td><div>max-age=0</div></td></tr><tr><td style="font-weight:bold;vertical-align:top;">HTTP_CONNECTION</td><td style="vertical-align:top;">:</td><td><div>keep-alive</div></td></tr><tr><td style="font-weight:bold;vertical-align:top;">HTTP_COOKIE</td><td style="vertical-align:top;">:</td><td><div>session_id_obsas=83.203.54.41-e3bd374d-bf18-4487-829f-411f49158515; session_id_welcome=83.203.54.41-2f1de321-540d-4537-a597-598ac7e081ff; session_id_obsas_dev=83.203.54.41-fc7640bd-5607-4d0d-830a-27d2371bbd50; session_id_admin=83.203.176.32-704e3204-d78d-4cb1-9d2b-a7ee77277089</div></td></tr><tr><td style="font-weight:bold;vertical-align:top;">HTTP_HOST</td><td style="vertical-align:top;">:</td><td><div>admin.obsas.orvdev.fr</div></td></tr><tr><td style="font-weight:bold;vertical-align:top;">HTTP_UPGRADE_INSECURE_REQUESTS</td><td style="vertical-align:top;">:</td><td><div>1</div></td></tr><tr><td style="font-weight:bold;vertical-align:top;">HTTP_USER_AGENT</td><td style="vertical-align:top;">:</td><td><div>Mozilla/5.0 (X11; Linux x86_64) AppleWebKit/537.36 (KHTML, like Gecko) Chrome/55.0.2883.75 Safari/537.36</div></td></tr><tr><td style="font-weight:bold;vertical-align:top;">PATH_INFO</td><td style="vertical-align:top;">:</td><td><div>/obsas_dev/analyse</div></td></tr><tr><td style="font-weight:bold;vertical-align:top;">PATH_TRANSLATED</td><td style="vertical-align:top;">:</td><td><div>/home/www-data/web2py/wsgihandler.py/obsas_dev/analyse</div></td></tr><tr><td style="font-weight:bold;vertical-align:top;">QUERY_STRING</td><td style="vertical-align:top;">:</td><td><div></div></td></tr><tr><td style="font-weight:bold;vertical-align:top;">REMOTE_ADDR</td><td style="vertical-align:top;">:</td><td><div>83.203.54.41</div></td></tr><tr><td style="font-weight:bold;vertical-align:top;">REMOTE_PORT</td><td style="vertical-align:top;">:</td><td><div>41760</div></td></tr><tr><td style="font-weight:bold;vertical-align:top;">REQUEST_METHOD</td><td style="vertical-align:top;">:</td><td><div>GET</div></td></tr><tr><td style="font-weight:bold;vertical-align:top;">REQUEST_SCHEME</td><td style="vertical-align:top;">:</td><td><div>https</div></td></tr><tr><td style="font-weight:bold;vertical-align:top;">REQUEST_URI</td><td style="vertical-align:top;">:</td><td><div>/obsas_dev/analyse</div></td></tr><tr><td style="font-weight:bold;vertical-align:top;">SCRIPT_FILENAME</td><td style="vertical-align:top;">:</td><td><div>/home/www-data/web2py/wsgihandler.py</div></td></tr><tr><td style="font-weight:bold;vertical-align:top;">SCRIPT_NAME</td><td style="vertical-align:top;">:</td><td><div></div></td></tr><tr><td style="font-weight:bold;vertical-align:top;">SERVER_ADDR</td><td style="vertical-align:top;">:</td><td><div>151.80.57.169</div></td></tr><tr><td style="font-weight:bold;vertical-align:top;">SERVER_ADMIN</td><td style="vertical-align:top;">:</td><td><div>[no address given]</div></td></tr><tr><td style="font-weight:bold;vertical-align:top;">SERVER_NAME</td><td style="vertical-align:top;">:</td><td><div>admin.obsas.orvdev.fr</div></td></tr><tr><td style="font-weight:bold;vertical-align:top;">SERVER_PORT</td><td style="vertical-align:top;">:</td><td><div>443</div></td></tr><tr><td style="font-weight:bold;vertical-align:top;">SERVER_PROTOCOL</td><td style="vertical-align:top;">:</td><td><div>HTTP/1.1</div></td></tr><tr><td style="font-weight:bold;vertical-align:top;">SERVER_SIGNATURE</td><td style="vertical-align:top;">:</td><td><div>&lt;address&gt;Apache/2.4.18 (Ubuntu) Server at admin.obsas.orvdev.fr Port 443&lt;/address&gt;\n</div></td></tr><tr><td style="font-weight:bold;vertical-align:top;">SERVER_SOFTWARE</td><td style="vertical-align:top;">:</td><td><div>Apache/2.4.18 (Ubuntu)</div></td></tr><tr><td style="font-weight:bold;vertical-align:top;">SSL_TLS_SNI</td><td style="vertical-align:top;">:</td><td><div>admin.obsas.orvdev.fr</div></td></tr><tr><td style="font-weight:bold;vertical-align:top;">apache.version</td><td style="vertical-align:top;">:</td><td><div><table><tr><td><div>2</div></td></tr><tr><td><div>4</div></td></tr><tr><td><div>18</div></td></tr></table></div></td></tr><tr><td style="font-weight:bold;vertical-align:top;">apache_version</td><td style="vertical-align:top;">:</td><td><div><table><tr><td><div>2</div></td></tr><tr><td><div>4</div></td></tr><tr><td><div>18</div></td></tr></table></div></td></tr><tr><td style="font-weight:bold;vertical-align:top;">app_folders</td><td style="vertical-align:top;">:</td><td><div>set([&#x27;/home/www-data/web2py/applications/obsas_dev/&#x27;, &#x27;/home/www-data/web2py/applications/welcome/&#x27;, &#x27;/home/www-data/web2py/applications/admin/&#x27;])</div></td></tr><tr><td style="font-weight:bold;vertical-align:top;">applications_parent</td><td style="vertical-align:top;">:</td><td><div>/home/www-data/web2py</div></td></tr><tr><td style="font-weight:bold;vertical-align:top;">context_document_root</td><td style="vertical-align:top;">:</td><td><div>/var/www/html</div></td></tr><tr><td style="font-weight:bold;vertical-align:top;">context_prefix</td><td style="vertical-align:top;">:</td><td><div></div></td></tr><tr><td style="font-weight:bold;vertical-align:top;">db_sessions</td><td style="vertical-align:top;">:</td><td><div>set([])</div></td></tr><tr><td style="font-weight:bold;vertical-align:top;">debugging</td><td style="vertical-align:top;">:</td><td><div>True</div></td></tr><tr><td style="font-weight:bold;vertical-align:top;">document_root</td><td style="vertical-align:top;">:</td><td><div>/var/www/html</div></td></tr><tr><td style="font-weight:bold;vertical-align:top;">gateway_interface</td><td style="vertical-align:top;">:</td><td><div>CGI/1.1</div></td></tr><tr><td style="font-weight:bold;vertical-align:top;">gluon_parent</td><td style="vertical-align:top;">:</td><td><div>/home/www-data/web2py</div></td></tr><tr><td style="font-weight:bold;vertical-align:top;">http_accept</td><td style="vertical-align:top;">:</td><td><div>text/html,application/xhtml+xml,application/xml;q=0.9,image/webp,*/*;q=0.8</div></td></tr><tr><td style="font-weight:bold;vertical-align:top;">http_accept_encoding</td><td style="vertical-align:top;">:</td><td><div>gzip, deflate, sdch, br</div></td></tr><tr><td style="font-weight:bold;vertical-align:top;">http_accept_language</td><td style="vertical-align:top;">:</td><td><div>fr-FR,fr;q=0.8,en-US;q=0.6,en;q=0.4</div></td></tr><tr><td style="font-weight:bold;vertical-align:top;">http_cache_control</td><td style="vertical-align:top;">:</td><td><div>max-age=0</div></td></tr><tr><td style="font-weight:bold;vertical-align:top;">http_connection</td><td style="vertical-align:top;">:</td><td><div>keep-alive</div></td></tr><tr><td style="font-weight:bold;vertical-align:top;">http_cookie</td><td style="vertical-align:top;">:</td><td><div>session_id_obsas=83.203.54.41-e3bd374d-bf18-4487-829f-411f49158515; session_id_welcome=83.203.54.41-2f1de321-540d-4537-a597-598ac7e081ff; session_id_obsas_dev=83.203.54.41-fc7640bd-5607-4d0d-830a-27d2371bbd50; session_id_admin=83.203.176.32-704e3204-d78d-4cb1-9d2b-a7ee77277089</div></td></tr><tr><td style="font-weight:bold;vertical-align:top;">http_host</td><td style="vertical-align:top;">:</td><td><div>admin.obsas.orvdev.fr</div></td></tr><tr><td style="font-weight:bold;vertical-align:top;">http_upgrade_insecure_requests</td><td style="vertical-align:top;">:</td><td><div>1</div></td></tr><tr><td style="font-weight:bold;vertical-align:top;">http_user_agent</td><td style="vertical-align:top;">:</td><td><div>Mozilla/5.0 (X11; Linux x86_64) AppleWebKit/537.36 (KHTML, like Gecko) Chrome/55.0.2883.75 Safari/537.36</div></td></tr><tr><td style="font-weight:bold;vertical-align:top;">is_jython</td><td style="vertical-align:top;">:</td><td><div>False</div></td></tr><tr><td style="font-weight:bold;vertical-align:top;">is_py2</td><td style="vertical-align:top;">:</td><td><div>True</div></td></tr><tr><td style="font-weight:bold;vertical-align:top;">is_pypy</td><td style="vertical-align:top;">:</td><td><div>False</div></td></tr><tr><td style="font-weight:bold;vertical-align:top;">is_source</td><td style="vertical-align:top;">:</td><td><div>True</div></td></tr><tr><td style="font-weight:bold;vertical-align:top;">local_hosts</td><td style="vertical-align:top;">:</td><td><div><table><tr><td><div>vps433020</div></td></tr><tr><td><div>::ffff:127.0.0.1</div></td></tr><tr><td><div>::1</div></td></tr><tr><td><div>151.80.57.169</div></td></tr><tr><td><div>vps433020.ovh.net</div></td></tr><tr><td><div>127.0.1.1</div></td></tr><tr><td><div>admin.obsas.orvdev.fr</div></td></tr><tr><td><div>127.0.0.1</div></td></tr></table></div></td></tr><tr><td style="font-weight:bold;vertical-align:top;">mod_wsgi.application_group</td><td style="vertical-align:top;">:</td><td><div></div></td></tr><tr><td style="font-weight:bold;vertical-align:top;">mod_wsgi.callable_object</td><td style="vertical-align:top;">:</td><td><div>application</div></td></tr><tr><td style="font-weight:bold;vertical-align:top;">mod_wsgi.daemon_connects</td><td style="vertical-align:top;">:</td><td><div>1</div></td></tr><tr><td style="font-weight:bold;vertical-align:top;">mod_wsgi.daemon_restarts</td><td style="vertical-align:top;">:</td><td><div>0</div></td></tr><tr><td style="font-weight:bold;vertical-align:top;">mod_wsgi.daemon_start</td><td style="vertical-align:top;">:</td><td><div>1500059959643130</div></td></tr><tr><td style="font-weight:bold;vertical-align:top;">mod_wsgi.enable_sendfile</td><td style="vertical-align:top;">:</td><td><div>0</div></td></tr><tr><td style="font-weight:bold;vertical-align:top;">mod_wsgi.handler_script</td><td style="vertical-align:top;">:</td><td><div></div></td></tr><tr><td style="font-weight:bold;vertical-align:top;">mod_wsgi.input_chunked</td><td style="vertical-align:top;">:</td><td><div>0</div></td></tr><tr><td style="font-weight:bold;vertical-align:top;">mod_wsgi.listener_host</td><td style="vertical-align:top;">:</td><td><div></div></td></tr><tr><td style="font-weight:bold;vertical-align:top;">mod_wsgi.listener_port</td><td style="vertical-align:top;">:</td><td><div>443</div></td></tr><tr><td style="font-weight:bold;vertical-align:top;">mod_wsgi.process_group</td><td style="vertical-align:top;">:</td><td><div>obsasadm</div></td></tr><tr><td style="font-weight:bold;vertical-align:top;">mod_wsgi.queue_start</td><td style="vertical-align:top;">:</td><td><div>1500059959642965</div></td></tr><tr><td style="font-weight:bold;vertical-align:top;">mod_wsgi.request_handler</td><td style="vertical-align:top;">:</td><td><div>wsgi-script</div></td></tr><tr><td style="font-weight:bold;vertical-align:top;">mod_wsgi.request_start</td><td style="vertical-align:top;">:</td><td><div>1500059959642770</div></td></tr><tr><td style="font-weight:bold;vertical-align:top;">mod_wsgi.script_reloading</td><td style="vertical-align:top;">:</td><td><div>1</div></td></tr><tr><td style="font-weight:bold;vertical-align:top;">mod_wsgi.script_start</td><td style="vertical-align:top;">:</td><td><div>1500059959643167</div></td></tr><tr><td style="font-weight:bold;vertical-align:top;">mod_wsgi.version</td><td style="vertical-align:top;">:</td><td><div><table><tr><td><div>4</div></td></tr><tr><td><div>3</div></td></tr><tr><td><div>0</div></td></tr></table></div></td></tr><tr><td style="font-weight:bold;vertical-align:top;">mod_wsgi_application_group</td><td style="vertical-align:top;">:</td><td><div></div></td></tr><tr><td style="font-weight:bold;vertical-align:top;">mod_wsgi_callable_object</td><td style="vertical-align:top;">:</td><td><div>application</div></td></tr><tr><td style="font-weight:bold;vertical-align:top;">mod_wsgi_daemon_connects</td><td style="vertical-align:top;">:</td><td><div>1</div></td></tr><tr><td style="font-weight:bold;vertical-align:top;">mod_wsgi_daemon_restarts</td><td style="vertical-align:top;">:</td><td><div>0</div></td></tr><tr><td style="font-weight:bold;vertical-align:top;">mod_wsgi_daemon_start</td><td style="vertical-align:top;">:</td><td><div>1500059959643130</div></td></tr><tr><td style="font-weight:bold;vertical-align:top;">mod_wsgi_enable_sendfile</td><td style="vertical-align:top;">:</td><td><div>0</div></td></tr><tr><td style="font-weight:bold;vertical-align:top;">mod_wsgi_handler_script</td><td style="vertical-align:top;">:</td><td><div></div></td></tr><tr><td style="font-weight:bold;vertical-align:top;">mod_wsgi_input_chunked</td><td style="vertical-align:top;">:</td><td><div>0</div></td></tr><tr><td style="font-weight:bold;vertical-align:top;">mod_wsgi_listener_host</td><td style="vertical-align:top;">:</td><td><div></div></td></tr><tr><td style="font-weight:bold;vertical-align:top;">mod_wsgi_listener_port</td><td style="vertical-align:top;">:</td><td><div>443</div></td></tr><tr><td style="font-weight:bold;vertical-align:top;">mod_wsgi_process_group</td><td style="vertical-align:top;">:</td><td><div>obsasadm</div></td></tr><tr><td style="font-weight:bold;vertical-align:top;">mod_wsgi_queue_start</td><td style="vertical-align:top;">:</td><td><div>1500059959642965</div></td></tr><tr><td style="font-weight:bold;vertical-align:top;">mod_wsgi_request_handler</td><td style="vertical-align:top;">:</td><td><div>wsgi-script</div></td></tr><tr><td style="font-weight:bold;vertical-align:top;">mod_wsgi_request_start</td><td style="vertical-align:top;">:</td><td><div>1500059959642770</div></td></tr><tr><td style="font-weight:bold;vertical-align:top;">mod_wsgi_script_reloading</td><td style="vertical-align:top;">:</td><td><div>1</div></td></tr><tr><td style="font-weight:bold;vertical-align:top;">mod_wsgi_script_start</td><td style="vertical-align:top;">:</td><td><div>1500059959643167</div></td></tr><tr><td style="font-weight:bold;vertical-align:top;">mod_wsgi_version</td><td style="vertical-align:top;">:</td><td><div><table><tr><td><div>4</div></td></tr><tr><td><div>3</div></td></tr><tr><td><div>0</div></td></tr></table></div></td></tr><tr><td style="font-weight:bold;vertical-align:top;">path_info</td><td style="vertical-align:top;">:</td><td><div>/obsas_dev/analyse</div></td></tr><tr><td style="font-weight:bold;vertical-align:top;">path_translated</td><td style="vertical-align:top;">:</td><td><div>/home/www-data/web2py/wsgihandler.py/obsas_dev/analyse</div></td></tr><tr><td style="font-weight:bold;vertical-align:top;">query_string</td><td style="vertical-align:top;">:</td><td><div></div></td></tr><tr><td style="font-weight:bold;vertical-align:top;">remote_addr</td><td style="vertical-align:top;">:</td><td><div>83.203.54.41</div></td></tr><tr><td style="font-weight:bold;vertical-align:top;">remote_port</td><td style="vertical-align:top;">:</td><td><div>41760</div></td></tr><tr><td style="font-weight:bold;vertical-align:top;">request_method</td><td style="vertical-align:top;">:</td><td><div>GET</div></td></tr><tr><td style="font-weight:bold;vertical-align:top;">request_scheme</td><td style="vertical-align:top;">:</td><td><div>https</div></td></tr><tr><td style="font-weight:bold;vertical-align:top;">request_uri</td><td style="vertical-align:top;">:</td><td><div>/obsas_dev/analyse/index</div></td></tr><tr><td style="font-weight:bold;vertical-align:top;">script_filename</td><td style="vertical-align:top;">:</td><td><div>/home/www-data/web2py/wsgihandler.py</div></td></tr><tr><td style="font-weight:bold;vertical-align:top;">script_name</td><td style="vertical-align:top;">:</td><td><div></div></td></tr><tr><td style="font-weight:bold;vertical-align:top;">server_addr</td><td style="vertical-align:top;">:</td><td><div>151.80.57.169</div></td></tr><tr><td style="font-weight:bold;vertical-align:top;">server_admin</td><td style="vertical-align:top;">:</td><td><div>[no address given]</div></td></tr><tr><td style="font-weight:bold;vertical-align:top;">server_name</td><td style="vertical-align:top;">:</td><td><div>admin.obsas.orvdev.fr</div></td></tr><tr><td style="font-weight:bold;vertical-align:top;">server_port</td><td style="vertical-align:top;">:</td><td><div>443</div></td></tr><tr><td style="font-weight:bold;vertical-align:top;">server_protocol</td><td style="vertical-align:top;">:</td><td><div>HTTP/1.1</div></td></tr><tr><td style="font-weight:bold;vertical-align:top;">server_signature</td><td style="vertical-align:top;">:</td><td><div>&lt;address&gt;Apache/2.4.18 (Ubuntu) Server at admin.obsas.orvdev.fr Port 443&lt;/address&gt;\n</div></td></tr><tr><td style="font-weight:bold;vertical-align:top;">server_software</td><td style="vertical-align:top;">:</td><td><div>Apache/2.4.18 (Ubuntu)</div></td></tr><tr><td style="font-weight:bold;vertical-align:top;">ssl_tls_sni</td><td style="vertical-align:top;">:</td><td><div>admin.obsas.orvdev.fr</div></td></tr><tr><td style="font-weight:bold;vertical-align:top;">web2py_original_uri</td><td style="vertical-align:top;">:</td><td><div>/obsas_dev/analyse</div></td></tr><tr><td style="font-weight:bold;vertical-align:top;">web2py_path</td><td style="vertical-align:top;">:</td><td><div>/home/www-data/web2py</div></td></tr><tr><td style="font-weight:bold;vertical-align:top;">web2py_version</td><td style="vertical-align:top;">:</td><td><div>2.15.1-stable+timestamp.2017.07.10.21.25.06</div></td></tr><tr><td style="font-weight:bold;vertical-align:top;">wsgi.errors</td><td style="vertical-align:top;">:</td><td><div>&lt;mod_wsgi.Log object at 0x7f472a0ed8e8&gt;</div></td></tr><tr><td style="font-weight:bold;vertical-align:top;">wsgi.file_wrapper</td><td style="vertical-align:top;">:</td><td><div>&lt;type &#x27;mod_wsgi.FileWrapper&#x27;&gt;</div></td></tr><tr><td style="font-weight:bold;vertical-align:top;">wsgi.input</td><td style="vertical-align:top;">:</td><td><div>&lt;mod_wsgi.Input object at 0x7f473a15f370&gt;</div></td></tr><tr><td style="font-weight:bold;vertical-align:top;">wsgi.multiprocess</td><td style="vertical-align:top;">:</td><td><div>False</div></td></tr><tr><td style="font-weight:bold;vertical-align:top;">wsgi.multithread</td><td style="vertical-align:top;">:</td><td><div>True</div></td></tr><tr><td style="font-weight:bold;vertical-align:top;">wsgi.run_once</td><td style="vertical-align:top;">:</td><td><div>False</div></td></tr><tr><td style="font-weight:bold;vertical-align:top;">wsgi.url_scheme</td><td style="vertical-align:top;">:</td><td><div>https</div></td></tr><tr><td style="font-weight:bold;vertical-align:top;">wsgi.version</td><td style="vertical-align:top;">:</td><td><div><table><tr><td><div>1</div></td></tr><tr><td><div>0</div></td></tr></table></div></td></tr><tr><td style="font-weight:bold;vertical-align:top;">wsgi_errors</td><td style="vertical-align:top;">:</td><td><div>&lt;mod_wsgi.Log object at 0x7f472a0ed8e8&gt;</div></td></tr><tr><td style="font-weight:bold;vertical-align:top;">wsgi_file_wrapper</td><td style="vertical-align:top;">:</td><td><div>&lt;type &#x27;mod_wsgi.FileWrapper&#x27;&gt;</div></td></tr><tr><td style="font-weight:bold;vertical-align:top;">wsgi_input</td><td style="vertical-align:top;">:</td><td><div>&lt;mod_wsgi.Input object at 0x7f473a15f370&gt;</div></td></tr><tr><td style="font-weight:bold;vertical-align:top;">wsgi_multiprocess</td><td style="vertical-align:top;">:</td><td><div>False</div></td></tr><tr><td style="font-weight:bold;vertical-align:top;">wsgi_multithread</td><td style="vertical-align:top;">:</td><td><div>True</div></td></tr><tr><td style="font-weight:bold;vertical-align:top;">wsgi_run_once</td><td style="vertical-align:top;">:</td><td><div>False</div></td></tr><tr><td style="font-weight:bold;vertical-align:top;">wsgi_url_scheme</td><td style="vertical-align:top;">:</td><td><div>https</div></td></tr><tr><td style="font-weight:bold;vertical-align:top;">wsgi_version</td><td style="vertical-align:top;">:</td><td><div><table><tr><td><div>1</div></td></tr><tr><td><div>0</div></td></tr></table></div></td></tr></table></div></td></tr><tr><td style="font-weight:bold;vertical-align:top;">extension</td><td style="vertical-align:top;">:</td><td><div>html</div></td></tr><tr><td style="font-weight:bold;vertical-align:top;">folder</td><td style="vertical-align:top;">:</td><td><div>/home/www-data/web2py/applications/obsas_dev/</div></td></tr><tr><td style="font-weight:bold;vertical-align:top;">function</td><td style="vertical-align:top;">:</td><td><div>index</div></td></tr><tr><td style="font-weight:bold;vertical-align:top;">global_settings</td><td style="vertical-align:top;">:</td><td><div><table><tr><td style="font-weight:bold;vertical-align:top;">app_folders</td><td style="vertical-align:top;">:</td><td><div>set([&#x27;/home/www-data/web2py/applications/obsas_dev/&#x27;, &#x27;/home/www-data/web2py/applications/welcome/&#x27;, &#x27;/home/www-data/web2py/applications/admin/&#x27;])</div></td></tr><tr><td style="font-weight:bold;vertical-align:top;">applications_parent</td><td style="vertical-align:top;">:</td><td><div>/home/www-data/web2py</div></td></tr><tr><td style="font-weight:bold;vertical-align:top;">db_sessions</td><td style="vertical-align:top;">:</td><td><div>set([])</div></td></tr><tr><td style="font-weight:bold;vertical-align:top;">debugging</td><td style="vertical-align:top;">:</td><td><div>True</div></td></tr><tr><td style="font-weight:bold;vertical-align:top;">gluon_parent</td><td style="vertical-align:top;">:</td><td><div>/home/www-data/web2py</div></td></tr><tr><td style="font-weight:bold;vertical-align:top;">is_jython</td><td style="vertical-align:top;">:</td><td><div>False</div></td></tr><tr><td style="font-weight:bold;vertical-align:top;">is_py2</td><td style="vertical-align:top;">:</td><td><div>True</div></td></tr><tr><td style="font-weight:bold;vertical-align:top;">is_pypy</td><td style="vertical-align:top;">:</td><td><div>False</div></td></tr><tr><td style="font-weight:bold;vertical-align:top;">is_source</td><td style="vertical-align:top;">:</td><td><div>True</div></td></tr><tr><td style="font-weight:bold;vertical-align:top;">local_hosts</td><td style="vertical-align:top;">:</td><td><div><table><tr><td><div>vps433020</div></td></tr><tr><td><div>::ffff:127.0.0.1</div></td></tr><tr><td><div>::1</div></td></tr><tr><td><div>151.80.57.169</div></td></tr><tr><td><div>vps433020.ovh.net</div></td></tr><tr><td><div>127.0.1.1</div></td></tr><tr><td><div>admin.obsas.orvdev.fr</div></td></tr><tr><td><div>127.0.0.1</div></td></tr></table></div></td></tr><tr><td style="font-weight:bold;vertical-align:top;">web2py_version</td><td style="vertical-align:top;">:</td><td><div>2.15.1-stable+timestamp.2017.07.10.21.25.06</div></td></tr></table></div></td></tr><tr><td style="font-weight:bold;vertical-align:top;">is_https</td><td style="vertical-align:top;">:</td><td><div>True</div></td></tr><tr><td style="font-weight:bold;vertical-align:top;">is_local</td><td style="vertical-align:top;">:</td><td><div>False</div></td></tr><tr><td style="font-weight:bold;vertical-align:top;">is_restful</td><td style="vertical-align:top;">:</td><td><div>False</div></td></tr><tr><td style="font-weight:bold;vertical-align:top;">is_scheduler</td><td style="vertical-align:top;">:</td><td><div>False</div></td></tr><tr><td style="font-weight:bold;vertical-align:top;">is_shell</td><td style="vertical-align:top;">:</td><td><div>False</div></td></tr><tr><td style="font-weight:bold;vertical-align:top;">now</td><td style="vertical-align:top;">:</td><td><div>datetime.datetime(2017, 7, 14, 21, 19, 19, 643332)</div></td></tr><tr><td style="font-weight:bold;vertical-align:top;">url</td><td style="vertical-align:top;">:</td><td><div>/obsas_dev/analyse</div></td></tr><tr><td style="font-weight:bold;vertical-align:top;">utcnow</td><td style="vertical-align:top;">:</td><td><div>datetime.datetime(2017, 7, 14, 19, 19, 19, 643367)</div></td></tr><tr><td style="font-weight:bold;vertical-align:top;">wsgi</td><td style="vertical-align:top;">:</td><td><div>&lt;gluon.main.LazyWSGI object at 0x7f471303ed50&gt;</div></td></tr></table></div>'
tRp60
sS'frames'
p61
(lp62
(dp63
S'file'
p64
S'/home/www-data/web2py/gluon/restricted.py'
p65
sS'dump'
p66
(dp67
S'environment'
p68
S"{'A': <class 'gluon.html.A'>, 'ANY_OF': <class 'gluon.validators.ANY_OF'>, 'ASSIGNJS': <function ASSIGNJS>, 'AppConfig': <function AppConfig>, 'Auth': <class 'gluon.tools.Auth'>, 'B': <class 'gluon.html.B'>, 'BEAUTIFY': <class 'gluon.html.BEAUTIFY'>, 'BODY': <class 'gluon.html.BODY'>, 'BR': <class 'gluon.html.BR'>, 'BUTTON': <class 'gluon.html.BUTTON'>, ...}"
p69
sS'ccode'
p70
S'\'response.write(\\\'<!DOCTYPE html>\\\\n<html lang="fr"...script>\\\\n\\\\n</footer>\\\\n\\\\n</html>\\\\n\\\', escape=False)\''
p71
ssS'lnum'
p72
I219
sS'lines'
p73
(dp74
I214
S'    if environment is None:'
p75
sI215
S'        environment = {}'
p76
sI216
S"    environment['__file__'] = layer"
p77
sI217
S"    environment['__name__'] = '__restricted__'"
p78
sI218
S'    try:'
p79
sI219
S'        exec(ccode, environment)'
p80
sI220
S'    except HTTP:'
p81
sI221
S'        raise'
p82
sI222
S'    except RestrictedError:'
p83
sI223
S'        # do not encapsulate (obfuscate) the original RestrictedError'
p84
ssS'call'
p85
S'(ccode=\'response.write(\\\'<!DOCTYPE html>\\\\n<html lang="fr"...script>\\\\n\\\\n</footer>\\\\n\\\\n</html>\\\\n\\\', escape=False)\', environment={\'A\': <class \'gluon.html.A\'>, \'ANY_OF\': <class \'gluon.validators.ANY_OF\'>, \'ASSIGNJS\': <function ASSIGNJS>, \'AppConfig\': <function AppConfig>, \'Auth\': <class \'gluon.tools.Auth\'>, \'B\': <class \'gluon.html.B\'>, \'BEAUTIFY\': <class \'gluon.html.BEAUTIFY\'>, \'BODY\': <class \'gluon.html.BODY\'>, \'BR\': <class \'gluon.html.BR\'>, \'BUTTON\': <class \'gluon.html.BUTTON\'>, ...}, layer=\'/home/www-data/web2py/applications/obsas_dev/views/analyse/index.html\')'
p86
sS'func'
p87
S'restricted'
p88
sa(dp89
g64
S'/home/www-data/web2py/<string>'
p90
sg66
(dp91
sg72
I6
sg73
(dp92
sg85
S'()'
p93
sg87
S'<module>'
p94
sasS'pyver'
p95
S'Python 2.7.12: /home/www-data/web2py/applications/obsas_dev/.pyenv/bin/python (prefix: /home/www-data/web2py/applications/obsas_dev/.pyenv)'
p96
sS'session'
p97
g59
(S's]\x8c\x01\x00<div><table><tr><td style="font-weight:bold;vertical-align:top;">items</td><td style="vertical-align:top;">:</td><td><div><table><tr><td><div><table><tr><td style="font-weight:bold;vertical-align:top;">cercles</td><td style="vertical-align:top;">:</td><td><div><table></table></div></td></tr><tr><td style="font-weight:bold;vertical-align:top;">key</td><td style="vertical-align:top;">:</td><td><div>PO730964</div></td></tr><tr><td style="font-weight:bold;vertical-align:top;">label</td><td style="vertical-align:top;">:</td><td><div>La R\xc3\xa9publique en Marche</div></td></tr><tr><td style="font-weight:bold;vertical-align:top;">nb</td><td style="vertical-align:top;">:</td><td><div><table><tr><td style="font-weight:bold;vertical-align:top;">absent</td><td style="vertical-align:top;">:</td><td><div>6912</div></td></tr><tr><td style="font-weight:bold;vertical-align:top;">abstention</td><td style="vertical-align:top;">:</td><td><div>15</div></td></tr><tr><td style="font-weight:bold;vertical-align:top;">contre</td><td style="vertical-align:top;">:</td><td><div>3787</div></td></tr><tr><td style="font-weight:bold;vertical-align:top;">nonVotant</td><td style="vertical-align:top;">:</td><td><div>323</div></td></tr><tr><td style="font-weight:bold;vertical-align:top;">pour</td><td style="vertical-align:top;">:</td><td><div>895</div></td></tr></table></div></td></tr><tr><td style="font-weight:bold;vertical-align:top;">participation</td><td style="vertical-align:top;">:</td><td><div>40.0</div></td></tr><tr><td style="font-weight:bold;vertical-align:top;">stats</td><td style="vertical-align:top;">:</td><td><div><table><tr><td><div><table><tr><td style="font-weight:bold;vertical-align:top;">class</td><td style="vertical-align:top;">:</td><td><div>pct</div></td></tr><tr><td style="font-weight:bold;vertical-align:top;">icon</td><td style="vertical-align:top;">:</td><td><div>thumbs-up</div></td></tr><tr><td style="font-weight:bold;vertical-align:top;">libelle</td><td style="vertical-align:top;">:</td><td><div>votes pour</div></td></tr><tr><td style="font-weight:bold;vertical-align:top;">n</td><td style="vertical-align:top;">:</td><td><div>895</div></td></tr><tr><td style="font-weight:bold;vertical-align:top;">pct</td><td style="vertical-align:top;">:</td><td><div>8.0</div></td></tr><tr><td style="font-weight:bold;vertical-align:top;">position</td><td style="vertical-align:top;">:</td><td><div>pour</div></td></tr></table></div></td></tr><tr><td><div><table><tr><td style="font-weight:bold;vertical-align:top;">class</td><td style="vertical-align:top;">:</td><td><div>pct</div></td></tr><tr><td style="font-weight:bold;vertical-align:top;">icon</td><td style="vertical-align:top;">:</td><td><div>thumbs-down</div></td></tr><tr><td style="font-weight:bold;vertical-align:top;">libelle</td><td style="vertical-align:top;">:</td><td><div>votes contre</div></td></tr><tr><td style="font-weight:bold;vertical-align:top;">n</td><td style="vertical-align:top;">:</td><td><div>3787</div></td></tr><tr><td style="font-weight:bold;vertical-align:top;">pct</td><td style="vertical-align:top;">:</td><td><div>32.0</div></td></tr><tr><td style="font-weight:bold;vertical-align:top;">position</td><td style="vertical-align:top;">:</td><td><div>contre</div></td></tr></table></div></td></tr><tr><td><div><table><tr><td style="font-weight:bold;vertical-align:top;">class</td><td style="vertical-align:top;">:</td><td><div>pct</div></td></tr><tr><td style="font-weight:bold;vertical-align:top;">icon</td><td style="vertical-align:top;">:</td><td><div>meh-o</div></td></tr><tr><td style="font-weight:bold;vertical-align:top;">libelle</td><td style="vertical-align:top;">:</td><td><div>abstention</div></td></tr><tr><td style="font-weight:bold;vertical-align:top;">n</td><td style="vertical-align:top;">:</td><td><div>15</div></td></tr><tr><td style="font-weight:bold;vertical-align:top;">pct</td><td style="vertical-align:top;">:</td><td><div>0.0</div></td></tr><tr><td style="font-weight:bold;vertical-align:top;">position</td><td style="vertical-align:top;">:</td><td><div>abstention</div></td></tr></table></div></td></tr><tr><td><div><table><tr><td style="font-weight:bold;vertical-align:top;">class</td><td style="vertical-align:top;">:</td><td><div>pct</div></td></tr><tr><td style="font-weight:bold;vertical-align:top;">icon</td><td style="vertical-align:top;">:</td><td><div>plane</div></td></tr><tr><td style="font-weight:bold;vertical-align:top;">libelle</td><td style="vertical-align:top;">:</td><td><div>absents</div></td></tr><tr><td style="font-weight:bold;vertical-align:top;">n</td><td style="vertical-align:top;">:</td><td><div>6912</div></td></tr><tr><td style="font-weight:bold;vertical-align:top;">pct</td><td style="vertical-align:top;">:</td><td><div>58.0</div></td></tr><tr><td style="font-weight:bold;vertical-align:top;">position</td><td style="vertical-align:top;">:</td><td><div>absent</div></td></tr></table></div></td></tr><tr><td><div><table><tr><td style="font-weight:bold;vertical-align:top;">class</td><td style="vertical-align:top;">:</td><td><div>pct</div></td></tr><tr><td style="font-weight:bold;vertical-align:top;">icon</td><td style="vertical-align:top;">:</td><td><div>ban</div></td></tr><tr><td style="font-weight:bold;vertical-align:top;">libelle</td><td style="vertical-align:top;">:</td><td><div>non votants (justifi\xc3\xa9s)</div></td></tr><tr><td style="font-weight:bold;vertical-align:top;">n</td><td style="vertical-align:top;">:</td><td><div>323</div></td></tr><tr><td style="font-weight:bold;vertical-align:top;">pct</td><td style="vertical-align:top;">:</td><td><div>3.0</div></td></tr><tr><td style="font-weight:bold;vertical-align:top;">position</td><td style="vertical-align:top;">:</td><td><div>nonVotant</div></td></tr></table></div></td></tr></table></div></td></tr><tr><td style="font-weight:bold;vertical-align:top;">stats_exprime</td><td style="vertical-align:top;">:</td><td><div><table><tr><td><div><table><tr><td style="font-weight:bold;vertical-align:top;">big</td><td style="vertical-align:top;">:</td><td><div>False</div></td></tr><tr><td style="font-weight:bold;vertical-align:top;">icon</td><td style="vertical-align:top;">:</td><td><div>thumbs-up</div></td></tr><tr><td style="font-weight:bold;vertical-align:top;">libelle</td><td style="vertical-align:top;">:</td><td><div>votes pour</div></td></tr><tr><td style="font-weight:bold;vertical-align:top;">n</td><td style="vertical-align:top;">:</td><td><div>895</div></td></tr><tr><td style="font-weight:bold;vertical-align:top;">pct</td><td style="vertical-align:top;">:</td><td><div>19.0</div></td></tr><tr><td style="font-weight:bold;vertical-align:top;">position</td><td style="vertical-align:top;">:</td><td><div>pour</div></td></tr></table></div></td></tr><tr><td><div><table><tr><td style="font-weight:bold;vertical-align:top;">big</td><td style="vertical-align:top;">:</td><td><div>False</div></td></tr><tr><td style="font-weight:bold;vertical-align:top;">icon</td><td style="vertical-align:top;">:</td><td><div>thumbs-down</div></td></tr><tr><td style="font-weight:bold;vertical-align:top;">libelle</td><td style="vertical-align:top;">:</td><td><div>votes contre</div></td></tr><tr><td style="font-weight:bold;vertical-align:top;">n</td><td style="vertical-align:top;">:</td><td><div>3787</div></td></tr><tr><td style="font-weight:bold;vertical-align:top;">pct</td><td style="vertical-align:top;">:</td><td><div>81.0</div></td></tr><tr><td style="font-weight:bold;vertical-align:top;">position</td><td style="vertical-align:top;">:</td><td><div>contre</div></td></tr></table></div></td></tr><tr><td><div><table><tr><td style="font-weight:bold;vertical-align:top;">big</td><td style="vertical-align:top;">:</td><td><div>False</div></td></tr><tr><td style="font-weight:bold;vertical-align:top;">icon</td><td style="vertical-align:top;">:</td><td><div>meh-o</div></td></tr><tr><td style="font-weight:bold;vertical-align:top;">libelle</td><td style="vertical-align:top;">:</td><td><div>abstention</div></td></tr><tr><td style="font-weight:bold;vertical-align:top;">n</td><td style="vertical-align:top;">:</td><td><div>15</div></td></tr><tr><td style="font-weight:bold;vertical-align:top;">pct</td><td style="vertical-align:top;">:</td><td><div>0.0</div></td></tr><tr><td style="font-weight:bold;vertical-align:top;">position</td><td style="vertical-align:top;">:</td><td><div>abstention</div></td></tr></table></div></td></tr></table></div></td></tr><tr><td style="font-weight:bold;vertical-align:top;">stats_total</td><td style="vertical-align:top;">:</td><td><div><table><tr><td><div><table><tr><td style="font-weight:bold;vertical-align:top;">class</td><td style="vertical-align:top;">:</td><td><div>pct</div></td></tr><tr><td style="font-weight:bold;vertical-align:top;">icon</td><td style="vertical-align:top;">:</td><td><div>thumbs-up</div></td></tr><tr><td style="font-weight:bold;vertical-align:top;">libelle</td><td style="vertical-align:top;">:</td><td><div>votes pour</div></td></tr><tr><td style="font-weight:bold;vertical-align:top;">n</td><td style="vertical-align:top;">:</td><td><div>895</div></td></tr><tr><td style="font-weight:bold;vertical-align:top;">pct</td><td style="vertical-align:top;">:</td><td><div>8.0</div></td></tr><tr><td style="font-weight:bold;vertical-align:top;">position</td><td style="vertical-align:top;">:</td><td><div>pour</div></td></tr></table></div></td></tr><tr><td><div><table><tr><td style="font-weight:bold;vertical-align:top;">class</td><td style="vertical-align:top;">:</td><td><div>pct</div></td></tr><tr><td style="font-weight:bold;vertical-align:top;">icon</td><td style="vertical-align:top;">:</td><td><div>thumbs-down</div></td></tr><tr><td style="font-weight:bold;vertical-align:top;">libelle</td><td style="vertical-align:top;">:</td><td><div>votes contre</div></td></tr><tr><td style="font-weight:bold;vertical-align:top;">n</td><td style="vertical-align:top;">:</td><td><div>3787</div></td></tr><tr><td style="font-weight:bold;vertical-align:top;">pct</td><td style="vertical-align:top;">:</td><td><div>32.0</div></td></tr><tr><td style="font-weight:bold;vertical-align:top;">position</td><td style="vertical-align:top;">:</td><td><div>contre</div></td></tr></table></div></td></tr><tr><td><div><table><tr><td style="font-weight:bold;vertical-align:top;">class</td><td style="vertical-align:top;">:</td><td><div>pct</div></td></tr><tr><td style="font-weight:bold;vertical-align:top;">icon</td><td style="vertical-align:top;">:</td><td><div>meh-o</div></td></tr><tr><td style="font-weight:bold;vertical-align:top;">libelle</td><td style="vertical-align:top;">:</td><td><div>abstention</div></td></tr><tr><td style="font-weight:bold;vertical-align:top;">n</td><td style="vertical-align:top;">:</td><td><div>15</div></td></tr><tr><td style="font-weight:bold;vertical-align:top;">pct</td><td style="vertical-align:top;">:</td><td><div>0.0</div></td></tr><tr><td style="font-weight:bold;vertical-align:top;">position</td><td style="vertical-align:top;">:</td><td><div>abstention</div></td></tr></table></div></td></tr><tr><td><div><table><tr><td style="font-weight:bold;vertical-align:top;">class</td><td style="vertical-align:top;">:</td><td><div>pct</div></td></tr><tr><td style="font-weight:bold;vertical-align:top;">icon</td><td style="vertical-align:top;">:</td><td><div>plane</div></td></tr><tr><td style="font-weight:bold;vertical-align:top;">libelle</td><td style="vertical-align:top;">:</td><td><div>absents</div></td></tr><tr><td style="font-weight:bold;vertical-align:top;">n</td><td style="vertical-align:top;">:</td><td><div>6912</div></td></tr><tr><td style="font-weight:bold;vertical-align:top;">pct</td><td style="vertical-align:top;">:</td><td><div>58.0</div></td></tr><tr><td style="font-weight:bold;vertical-align:top;">position</td><td style="vertical-align:top;">:</td><td><div>absent</div></td></tr></table></div></td></tr><tr><td><div><table><tr><td style="font-weight:bold;vertical-align:top;">class</td><td style="vertical-align:top;">:</td><td><div>pct</div></td></tr><tr><td style="font-weight:bold;vertical-align:top;">icon</td><td style="vertical-align:top;">:</td><td><div>ban</div></td></tr><tr><td style="font-weight:bold;vertical-align:top;">libelle</td><td style="vertical-align:top;">:</td><td><div>non votants (justifi\xc3\xa9s)</div></td></tr><tr><td style="font-weight:bold;vertical-align:top;">n</td><td style="vertical-align:top;">:</td><td><div>323</div></td></tr><tr><td style="font-weight:bold;vertical-align:top;">pct</td><td style="vertical-align:top;">:</td><td><div>3.0</div></td></tr><tr><td style="font-weight:bold;vertical-align:top;">position</td><td style="vertical-align:top;">:</td><td><div>nonVotant</div></td></tr></table></div></td></tr></table></div></td></tr></table></div></td></tr><tr><td><div><table><tr><td style="font-weight:bold;vertical-align:top;">cercles</td><td style="vertical-align:top;">:</td><td><div><table></table></div></td></tr><tr><td style="font-weight:bold;vertical-align:top;">key</td><td style="vertical-align:top;">:</td><td><div>PO730970</div></td></tr><tr><td style="font-weight:bold;vertical-align:top;">label</td><td style="vertical-align:top;">:</td><td><div>Mouvement D\xc3\xa9mocrate et apparent\xc3\xa9s</div></td></tr><tr><td style="font-weight:bold;vertical-align:top;">nb</td><td style="vertical-align:top;">:</td><td><div><table><tr><td style="font-weight:bold;vertical-align:top;">absent</td><td style="vertical-align:top;">:</td><td><div>1369</div></td></tr><tr><td style="font-weight:bold;vertical-align:top;">abstention</td><td style="vertical-align:top;">:</td><td><div>2</div></td></tr><tr><td style="font-weight:bold;vertical-align:top;">contre</td><td style="vertical-align:top;">:</td><td><div>287</div></td></tr><tr><td style="font-weight:bold;vertical-align:top;">nonVotant</td><td style="vertical-align:top;">:</td><td><div>40</div></td></tr><tr><td style="font-weight:bold;vertical-align:top;">pour</td><td style="vertical-align:top;">:</td><td><div>88</div></td></tr></table></div></td></tr><tr><td style="font-weight:bold;vertical-align:top;">participation</td><td style="vertical-align:top;">:</td><td><div>22.0</div></td></tr><tr><td style="font-weight:bold;vertical-align:top;">stats</td><td style="vertical-align:top;">:</td><td><div><table><tr><td><div><table><tr><td style="font-weight:bold;vertical-align:top;">class</td><td style="vertical-align:top;">:</td><td><div>pct</div></td></tr><tr><td style="font-weight:bold;vertical-align:top;">icon</td><td style="vertical-align:top;">:</td><td><div>thumbs-up</div></td></tr><tr><td style="font-weight:bold;vertical-align:top;">libelle</td><td style="vertical-align:top;">:</td><td><div>votes pour</div></td></tr><tr><td style="font-weight:bold;vertical-align:top;">n</td><td style="vertical-align:top;">:</td><td><div>88</div></td></tr><tr><td style="font-weight:bold;vertical-align:top;">pct</td><td style="vertical-align:top;">:</td><td><div>5.0</div></td></tr><tr><td style="font-weight:bold;vertical-align:top;">position</td><td style="vertical-align:top;">:</td><td><div>pour</div></td></tr></table></div></td></tr><tr><td><div><table><tr><td style="font-weight:bold;vertical-align:top;">class</td><td style="vertical-align:top;">:</td><td><div>pct</div></td></tr><tr><td style="font-weight:bold;vertical-align:top;">icon</td><td style="vertical-align:top;">:</td><td><div>thumbs-down</div></td></tr><tr><td style="font-weight:bold;vertical-align:top;">libelle</td><td style="vertical-align:top;">:</td><td><div>votes contre</div></td></tr><tr><td style="font-weight:bold;vertical-align:top;">n</td><td style="vertical-align:top;">:</td><td><div>287</div></td></tr><tr><td style="font-weight:bold;vertical-align:top;">pct</td><td style="vertical-align:top;">:</td><td><div>16.0</div></td></tr><tr><td style="font-weight:bold;vertical-align:top;">position</td><td style="vertical-align:top;">:</td><td><div>contre</div></td></tr></table></div></td></tr><tr><td><div><table><tr><td style="font-weight:bold;vertical-align:top;">class</td><td style="vertical-align:top;">:</td><td><div>pct</div></td></tr><tr><td style="font-weight:bold;vertical-align:top;">icon</td><td style="vertical-align:top;">:</td><td><div>meh-o</div></td></tr><tr><td style="font-weight:bold;vertical-align:top;">libelle</td><td style="vertical-align:top;">:</td><td><div>abstention</div></td></tr><tr><td style="font-weight:bold;vertical-align:top;">n</td><td style="vertical-align:top;">:</td><td><div>2</div></td></tr><tr><td style="font-weight:bold;vertical-align:top;">pct</td><td style="vertical-align:top;">:</td><td><div>0.0</div></td></tr><tr><td style="font-weight:bold;vertical-align:top;">position</td><td style="vertical-align:top;">:</td><td><div>abstention</div></td></tr></table></div></td></tr><tr><td><div><table><tr><td style="font-weight:bold;vertical-align:top;">class</td><td style="vertical-align:top;">:</td><td><div>pct</div></td></tr><tr><td style="font-weight:bold;vertical-align:top;">icon</td><td style="vertical-align:top;">:</td><td><div>plane</div></td></tr><tr><td style="font-weight:bold;vertical-align:top;">libelle</td><td style="vertical-align:top;">:</td><td><div>absents</div></td></tr><tr><td style="font-weight:bold;vertical-align:top;">n</td><td style="vertical-align:top;">:</td><td><div>1369</div></td></tr><tr><td style="font-weight:bold;vertical-align:top;">pct</td><td style="vertical-align:top;">:</td><td><div>77.0</div></td></tr><tr><td style="font-weight:bold;vertical-align:top;">position</td><td style="vertical-align:top;">:</td><td><div>absent</div></td></tr></table></div></td></tr><tr><td><div><table><tr><td style="font-weight:bold;vertical-align:top;">class</td><td style="vertical-align:top;">:</td><td><div>pct</div></td></tr><tr><td style="font-weight:bold;vertical-align:top;">icon</td><td style="vertical-align:top;">:</td><td><div>ban</div></td></tr><tr><td style="font-weight:bold;vertical-align:top;">libelle</td><td style="vertical-align:top;">:</td><td><div>non votants (justifi\xc3\xa9s)</div></td></tr><tr><td style="font-weight:bold;vertical-align:top;">n</td><td style="vertical-align:top;">:</td><td><div>40</div></td></tr><tr><td style="font-weight:bold;vertical-align:top;">pct</td><td style="vertical-align:top;">:</td><td><div>2.0</div></td></tr><tr><td style="font-weight:bold;vertical-align:top;">position</td><td style="vertical-align:top;">:</td><td><div>nonVotant</div></td></tr></table></div></td></tr></table></div></td></tr><tr><td style="font-weight:bold;vertical-align:top;">stats_exprime</td><td style="vertical-align:top;">:</td><td><div><table><tr><td><div><table><tr><td style="font-weight:bold;vertical-align:top;">big</td><td style="vertical-align:top;">:</td><td><div>False</div></td></tr><tr><td style="font-weight:bold;vertical-align:top;">icon</td><td style="vertical-align:top;">:</td><td><div>thumbs-up</div></td></tr><tr><td style="font-weight:bold;vertical-align:top;">libelle</td><td style="vertical-align:top;">:</td><td><div>votes pour</div></td></tr><tr><td style="font-weight:bold;vertical-align:top;">n</td><td style="vertical-align:top;">:</td><td><div>88</div></td></tr><tr><td style="font-weight:bold;vertical-align:top;">pct</td><td style="vertical-align:top;">:</td><td><div>23.0</div></td></tr><tr><td style="font-weight:bold;vertical-align:top;">position</td><td style="vertical-align:top;">:</td><td><div>pour</div></td></tr></table></div></td></tr><tr><td><div><table><tr><td style="font-weight:bold;vertical-align:top;">big</td><td style="vertical-align:top;">:</td><td><div>False</div></td></tr><tr><td style="font-weight:bold;vertical-align:top;">icon</td><td style="vertical-align:top;">:</td><td><div>thumbs-down</div></td></tr><tr><td style="font-weight:bold;vertical-align:top;">libelle</td><td style="vertical-align:top;">:</td><td><div>votes contre</div></td></tr><tr><td style="font-weight:bold;vertical-align:top;">n</td><td style="vertical-align:top;">:</td><td><div>287</div></td></tr><tr><td style="font-weight:bold;vertical-align:top;">pct</td><td style="vertical-align:top;">:</td><td><div>76.0</div></td></tr><tr><td style="font-weight:bold;vertical-align:top;">position</td><td style="vertical-align:top;">:</td><td><div>contre</div></td></tr></table></div></td></tr><tr><td><div><table><tr><td style="font-weight:bold;vertical-align:top;">big</td><td style="vertical-align:top;">:</td><td><div>False</div></td></tr><tr><td style="font-weight:bold;vertical-align:top;">icon</td><td style="vertical-align:top;">:</td><td><div>meh-o</div></td></tr><tr><td style="font-weight:bold;vertical-align:top;">libelle</td><td style="vertical-align:top;">:</td><td><div>abstention</div></td></tr><tr><td style="font-weight:bold;vertical-align:top;">n</td><td style="vertical-align:top;">:</td><td><div>2</div></td></tr><tr><td style="font-weight:bold;vertical-align:top;">pct</td><td style="vertical-align:top;">:</td><td><div>1.0</div></td></tr><tr><td style="font-weight:bold;vertical-align:top;">position</td><td style="vertical-align:top;">:</td><td><div>abstention</div></td></tr></table></div></td></tr></table></div></td></tr><tr><td style="font-weight:bold;vertical-align:top;">stats_total</td><td style="vertical-align:top;">:</td><td><div><table><tr><td><div><table><tr><td style="font-weight:bold;vertical-align:top;">class</td><td style="vertical-align:top;">:</td><td><div>pct</div></td></tr><tr><td style="font-weight:bold;vertical-align:top;">icon</td><td style="vertical-align:top;">:</td><td><div>thumbs-up</div></td></tr><tr><td style="font-weight:bold;vertical-align:top;">libelle</td><td style="vertical-align:top;">:</td><td><div>votes pour</div></td></tr><tr><td style="font-weight:bold;vertical-align:top;">n</td><td style="vertical-align:top;">:</td><td><div>88</div></td></tr><tr><td style="font-weight:bold;vertical-align:top;">pct</td><td style="vertical-align:top;">:</td><td><div>5.0</div></td></tr><tr><td style="font-weight:bold;vertical-align:top;">position</td><td style="vertical-align:top;">:</td><td><div>pour</div></td></tr></table></div></td></tr><tr><td><div><table><tr><td style="font-weight:bold;vertical-align:top;">class</td><td style="vertical-align:top;">:</td><td><div>pct</div></td></tr><tr><td style="font-weight:bold;vertical-align:top;">icon</td><td style="vertical-align:top;">:</td><td><div>thumbs-down</div></td></tr><tr><td style="font-weight:bold;vertical-align:top;">libelle</td><td style="vertical-align:top;">:</td><td><div>votes contre</div></td></tr><tr><td style="font-weight:bold;vertical-align:top;">n</td><td style="vertical-align:top;">:</td><td><div>287</div></td></tr><tr><td style="font-weight:bold;vertical-align:top;">pct</td><td style="vertical-align:top;">:</td><td><div>16.0</div></td></tr><tr><td style="font-weight:bold;vertical-align:top;">position</td><td style="vertical-align:top;">:</td><td><div>contre</div></td></tr></table></div></td></tr><tr><td><div><table><tr><td style="font-weight:bold;vertical-align:top;">class</td><td style="vertical-align:top;">:</td><td><div>pct</div></td></tr><tr><td style="font-weight:bold;vertical-align:top;">icon</td><td style="vertical-align:top;">:</td><td><div>meh-o</div></td></tr><tr><td style="font-weight:bold;vertical-align:top;">libelle</td><td style="vertical-align:top;">:</td><td><div>abstention</div></td></tr><tr><td style="font-weight:bold;vertical-align:top;">n</td><td style="vertical-align:top;">:</td><td><div>2</div></td></tr><tr><td style="font-weight:bold;vertical-align:top;">pct</td><td style="vertical-align:top;">:</td><td><div>0.0</div></td></tr><tr><td style="font-weight:bold;vertical-align:top;">position</td><td style="vertical-align:top;">:</td><td><div>abstention</div></td></tr></table></div></td></tr><tr><td><div><table><tr><td style="font-weight:bold;vertical-align:top;">class</td><td style="vertical-align:top;">:</td><td><div>pct</div></td></tr><tr><td style="font-weight:bold;vertical-align:top;">icon</td><td style="vertical-align:top;">:</td><td><div>plane</div></td></tr><tr><td style="font-weight:bold;vertical-align:top;">libelle</td><td style="vertical-align:top;">:</td><td><div>absents</div></td></tr><tr><td style="font-weight:bold;vertical-align:top;">n</td><td style="vertical-align:top;">:</td><td><div>1369</div></td></tr><tr><td style="font-weight:bold;vertical-align:top;">pct</td><td style="vertical-align:top;">:</td><td><div>77.0</div></td></tr><tr><td style="font-weight:bold;vertical-align:top;">position</td><td style="vertical-align:top;">:</td><td><div>absent</div></td></tr></table></div></td></tr><tr><td><div><table><tr><td style="font-weight:bold;vertical-align:top;">class</td><td style="vertical-align:top;">:</td><td><div>pct</div></td></tr><tr><td style="font-weight:bold;vertical-align:top;">icon</td><td style="vertical-align:top;">:</td><td><div>ban</div></td></tr><tr><td style="font-weight:bold;vertical-align:top;">libelle</td><td style="vertical-align:top;">:</td><td><div>non votants (justifi\xc3\xa9s)</div></td></tr><tr><td style="font-weight:bold;vertical-align:top;">n</td><td style="vertical-align:top;">:</td><td><div>40</div></td></tr><tr><td style="font-weight:bold;vertical-align:top;">pct</td><td style="vertical-align:top;">:</td><td><div>2.0</div></td></tr><tr><td style="font-weight:bold;vertical-align:top;">position</td><td style="vertical-align:top;">:</td><td><div>nonVotant</div></td></tr></table></div></td></tr></table></div></td></tr></table></div></td></tr><tr><td><div><table><tr><td style="font-weight:bold;vertical-align:top;">cercles</td><td style="vertical-align:top;">:</td><td><div><table></table></div></td></tr><tr><td style="font-weight:bold;vertical-align:top;">key</td><td style="vertical-align:top;">:</td><td><div>PO723569</div></td></tr><tr><td style="font-weight:bold;vertical-align:top;">label</td><td style="vertical-align:top;">:</td><td><div>Non inscrit</div></td></tr><tr><td style="font-weight:bold;vertical-align:top;">nb</td><td style="vertical-align:top;">:</td><td><div><table><tr><td style="font-weight:bold;vertical-align:top;">absent</td><td style="vertical-align:top;">:</td><td><div>482</div></td></tr><tr><td style="font-weight:bold;vertical-align:top;">abstention</td><td style="vertical-align:top;">:</td><td><div>53</div></td></tr><tr><td style="font-weight:bold;vertical-align:top;">contre</td><td style="vertical-align:top;">:</td><td><div>52</div></td></tr><tr><td style="font-weight:bold;vertical-align:top;">nonVotant</td><td style="vertical-align:top;">:</td><td><div>0</div></td></tr><tr><td style="font-weight:bold;vertical-align:top;">pour</td><td style="vertical-align:top;">:</td><td><div>59</div></td></tr></table></div></td></tr><tr><td style="font-weight:bold;vertical-align:top;">participation</td><td style="vertical-align:top;">:</td><td><div>25.0</div></td></tr><tr><td style="font-weight:bold;vertical-align:top;">stats</td><td style="vertical-align:top;">:</td><td><div><table><tr><td><div><table><tr><td style="font-weight:bold;vertical-align:top;">class</td><td style="vertical-align:top;">:</td><td><div>pct</div></td></tr><tr><td style="font-weight:bold;vertical-align:top;">icon</td><td style="vertical-align:top;">:</td><td><div>thumbs-up</div></td></tr><tr><td style="font-weight:bold;vertical-align:top;">libelle</td><td style="vertical-align:top;">:</td><td><div>votes pour</div></td></tr><tr><td style="font-weight:bold;vertical-align:top;">n</td><td style="vertical-align:top;">:</td><td><div>59</div></td></tr><tr><td style="font-weight:bold;vertical-align:top;">pct</td><td style="vertical-align:top;">:</td><td><div>9.0</div></td></tr><tr><td style="font-weight:bold;vertical-align:top;">position</td><td style="vertical-align:top;">:</td><td><div>pour</div></td></tr></table></div></td></tr><tr><td><div><table><tr><td style="font-weight:bold;vertical-align:top;">class</td><td style="vertical-align:top;">:</td><td><div>pct</div></td></tr><tr><td style="font-weight:bold;vertical-align:top;">icon</td><td style="vertical-align:top;">:</td><td><div>thumbs-down</div></td></tr><tr><td style="font-weight:bold;vertical-align:top;">libelle</td><td style="vertical-align:top;">:</td><td><div>votes contre</div></td></tr><tr><td style="font-weight:bold;vertical-align:top;">n</td><td style="vertical-align:top;">:</td><td><div>52</div></td></tr><tr><td style="font-weight:bold;vertical-align:top;">pct</td><td style="vertical-align:top;">:</td><td><div>8.0</div></td></tr><tr><td style="font-weight:bold;vertical-align:top;">position</td><td style="vertical-align:top;">:</td><td><div>contre</div></td></tr></table></div></td></tr><tr><td><div><table><tr><td style="font-weight:bold;vertical-align:top;">class</td><td style="vertical-align:top;">:</td><td><div>pct</div></td></tr><tr><td style="font-weight:bold;vertical-align:top;">icon</td><td style="vertical-align:top;">:</td><td><div>meh-o</div></td></tr><tr><td style="font-weight:bold;vertical-align:top;">libelle</td><td style="vertical-align:top;">:</td><td><div>abstention</div></td></tr><tr><td style="font-weight:bold;vertical-align:top;">n</td><td style="vertical-align:top;">:</td><td><div>53</div></td></tr><tr><td style="font-weight:bold;vertical-align:top;">pct</td><td style="vertical-align:top;">:</td><td><div>8.0</div></td></tr><tr><td style="font-weight:bold;vertical-align:top;">position</td><td style="vertical-align:top;">:</td><td><div>abstention</div></td></tr></table></div></td></tr><tr><td><div><table><tr><td style="font-weight:bold;vertical-align:top;">class</td><td style="vertical-align:top;">:</td><td><div>pct</div></td></tr><tr><td style="font-weight:bold;vertical-align:top;">icon</td><td style="vertical-align:top;">:</td><td><div>plane</div></td></tr><tr><td style="font-weight:bold;vertical-align:top;">libelle</td><td style="vertical-align:top;">:</td><td><div>absents</div></td></tr><tr><td style="font-weight:bold;vertical-align:top;">n</td><td style="vertical-align:top;">:</td><td><div>482</div></td></tr><tr><td style="font-weight:bold;vertical-align:top;">pct</td><td style="vertical-align:top;">:</td><td><div>75.0</div></td></tr><tr><td style="font-weight:bold;vertical-align:top;">position</td><td style="vertical-align:top;">:</td><td><div>absent</div></td></tr></table></div></td></tr><tr><td><div><table><tr><td style="font-weight:bold;vertical-align:top;">class</td><td style="vertical-align:top;">:</td><td><div>pct</div></td></tr><tr><td style="font-weight:bold;vertical-align:top;">icon</td><td style="vertical-align:top;">:</td><td><div>ban</div></td></tr><tr><td style="font-weight:bold;vertical-align:top;">libelle</td><td style="vertical-align:top;">:</td><td><div>non votants (justifi\xc3\xa9s)</div></td></tr><tr><td style="font-weight:bold;vertical-align:top;">n</td><td style="vertical-align:top;">:</td><td><div>0</div></td></tr><tr><td style="font-weight:bold;vertical-align:top;">pct</td><td style="vertical-align:top;">:</td><td><div>0.0</div></td></tr><tr><td style="font-weight:bold;vertical-align:top;">position</td><td style="vertical-align:top;">:</td><td><div>nonVotant</div></td></tr></table></div></td></tr></table></div></td></tr><tr><td style="font-weight:bold;vertical-align:top;">stats_exprime</td><td style="vertical-align:top;">:</td><td><div><table><tr><td><div><table><tr><td style="font-weight:bold;vertical-align:top;">big</td><td style="vertical-align:top;">:</td><td><div>False</div></td></tr><tr><td style="font-weight:bold;vertical-align:top;">icon</td><td style="vertical-align:top;">:</td><td><div>thumbs-up</div></td></tr><tr><td style="font-weight:bold;vertical-align:top;">libelle</td><td style="vertical-align:top;">:</td><td><div>votes pour</div></td></tr><tr><td style="font-weight:bold;vertical-align:top;">n</td><td style="vertical-align:top;">:</td><td><div>59</div></td></tr><tr><td style="font-weight:bold;vertical-align:top;">pct</td><td style="vertical-align:top;">:</td><td><div>36.0</div></td></tr><tr><td style="font-weight:bold;vertical-align:top;">position</td><td style="vertical-align:top;">:</td><td><div>pour</div></td></tr></table></div></td></tr><tr><td><div><table><tr><td style="font-weight:bold;vertical-align:top;">big</td><td style="vertical-align:top;">:</td><td><div>False</div></td></tr><tr><td style="font-weight:bold;vertical-align:top;">icon</td><td style="vertical-align:top;">:</td><td><div>thumbs-down</div></td></tr><tr><td style="font-weight:bold;vertical-align:top;">libelle</td><td style="vertical-align:top;">:</td><td><div>votes contre</div></td></tr><tr><td style="font-weight:bold;vertical-align:top;">n</td><td style="vertical-align:top;">:</td><td><div>52</div></td></tr><tr><td style="font-weight:bold;vertical-align:top;">pct</td><td style="vertical-align:top;">:</td><td><div>32.0</div></td></tr><tr><td style="font-weight:bold;vertical-align:top;">position</td><td style="vertical-align:top;">:</td><td><div>contre</div></td></tr></table></div></td></tr><tr><td><div><table><tr><td style="font-weight:bold;vertical-align:top;">big</td><td style="vertical-align:top;">:</td><td><div>False</div></td></tr><tr><td style="font-weight:bold;vertical-align:top;">icon</td><td style="vertical-align:top;">:</td><td><div>meh-o</div></td></tr><tr><td style="font-weight:bold;vertical-align:top;">libelle</td><td style="vertical-align:top;">:</td><td><div>abstention</div></td></tr><tr><td style="font-weight:bold;vertical-align:top;">n</td><td style="vertical-align:top;">:</td><td><div>53</div></td></tr><tr><td style="font-weight:bold;vertical-align:top;">pct</td><td style="vertical-align:top;">:</td><td><div>32.0</div></td></tr><tr><td style="font-weight:bold;vertical-align:top;">position</td><td style="vertical-align:top;">:</td><td><div>abstention</div></td></tr></table></div></td></tr></table></div></td></tr><tr><td style="font-weight:bold;vertical-align:top;">stats_total</td><td style="vertical-align:top;">:</td><td><div><table><tr><td><div><table><tr><td style="font-weight:bold;vertical-align:top;">class</td><td style="vertical-align:top;">:</td><td><div>pct</div></td></tr><tr><td style="font-weight:bold;vertical-align:top;">icon</td><td style="vertical-align:top;">:</td><td><div>thumbs-up</div></td></tr><tr><td style="font-weight:bold;vertical-align:top;">libelle</td><td style="vertical-align:top;">:</td><td><div>votes pour</div></td></tr><tr><td style="font-weight:bold;vertical-align:top;">n</td><td style="vertical-align:top;">:</td><td><div>59</div></td></tr><tr><td style="font-weight:bold;vertical-align:top;">pct</td><td style="vertical-align:top;">:</td><td><div>9.0</div></td></tr><tr><td style="font-weight:bold;vertical-align:top;">position</td><td style="vertical-align:top;">:</td><td><div>pour</div></td></tr></table></div></td></tr><tr><td><div><table><tr><td style="font-weight:bold;vertical-align:top;">class</td><td style="vertical-align:top;">:</td><td><div>pct</div></td></tr><tr><td style="font-weight:bold;vertical-align:top;">icon</td><td style="vertical-align:top;">:</td><td><div>thumbs-down</div></td></tr><tr><td style="font-weight:bold;vertical-align:top;">libelle</td><td style="vertical-align:top;">:</td><td><div>votes contre</div></td></tr><tr><td style="font-weight:bold;vertical-align:top;">n</td><td style="vertical-align:top;">:</td><td><div>52</div></td></tr><tr><td style="font-weight:bold;vertical-align:top;">pct</td><td style="vertical-align:top;">:</td><td><div>8.0</div></td></tr><tr><td style="font-weight:bold;vertical-align:top;">position</td><td style="vertical-align:top;">:</td><td><div>contre</div></td></tr></table></div></td></tr><tr><td><div><table><tr><td style="font-weight:bold;vertical-align:top;">class</td><td style="vertical-align:top;">:</td><td><div>pct</div></td></tr><tr><td style="font-weight:bold;vertical-align:top;">icon</td><td style="vertical-align:top;">:</td><td><div>meh-o</div></td></tr><tr><td style="font-weight:bold;vertical-align:top;">libelle</td><td style="vertical-align:top;">:</td><td><div>abstention</div></td></tr><tr><td style="font-weight:bold;vertical-align:top;">n</td><td style="vertical-align:top;">:</td><td><div>53</div></td></tr><tr><td style="font-weight:bold;vertical-align:top;">pct</td><td style="vertical-align:top;">:</td><td><div>8.0</div></td></tr><tr><td style="font-weight:bold;vertical-align:top;">position</td><td style="vertical-align:top;">:</td><td><div>abstention</div></td></tr></table></div></td></tr><tr><td><div><table><tr><td style="font-weight:bold;vertical-align:top;">class</td><td style="vertical-align:top;">:</td><td><div>pct</div></td></tr><tr><td style="font-weight:bold;vertical-align:top;">icon</td><td style="vertical-align:top;">:</td><td><div>plane</div></td></tr><tr><td style="font-weight:bold;vertical-align:top;">libelle</td><td style="vertical-align:top;">:</td><td><div>absents</div></td></tr><tr><td style="font-weight:bold;vertical-align:top;">n</td><td style="vertical-align:top;">:</td><td><div>482</div></td></tr><tr><td style="font-weight:bold;vertical-align:top;">pct</td><td style="vertical-align:top;">:</td><td><div>75.0</div></td></tr><tr><td style="font-weight:bold;vertical-align:top;">position</td><td style="vertical-align:top;">:</td><td><div>absent</div></td></tr></table></div></td></tr><tr><td><div><table><tr><td style="font-weight:bold;vertical-align:top;">class</td><td style="vertical-align:top;">:</td><td><div>pct</div></td></tr><tr><td style="font-weight:bold;vertical-align:top;">icon</td><td style="vertical-align:top;">:</td><td><div>ban</div></td></tr><tr><td style="font-weight:bold;vertical-align:top;">libelle</td><td style="vertical-align:top;">:</td><td><div>non votants (justifi\xc3\xa9s)</div></td></tr><tr><td style="font-weight:bold;vertical-align:top;">n</td><td style="vertical-align:top;">:</td><td><div>0</div></td></tr><tr><td style="font-weight:bold;vertical-align:top;">pct</td><td style="vertical-align:top;">:</td><td><div>0.0</div></td></tr><tr><td style="font-weight:bold;vertical-align:top;">position</td><td style="vertical-align:top;">:</td><td><div>nonVotant</div></td></tr></table></div></td></tr></table></div></td></tr></table></div></td></tr><tr><td><div><table><tr><td style="font-weight:bold;vertical-align:top;">cercles</td><td style="vertical-align:top;">:</td><td><div><table></table></div></td></tr><tr><td style="font-weight:bold;vertical-align:top;">key</td><td style="vertical-align:top;">:</td><td><div>PO730934</div></td></tr><tr><td style="font-weight:bold;vertical-align:top;">label</td><td style="vertical-align:top;">:</td><td><div>Les R\xc3\xa9publicains</div></td></tr><tr><td style="font-weight:bold;vertical-align:top;">nb</td><td style="vertical-align:top;">:</td><td><div><table><tr><td style="font-weight:bold;vertical-align:top;">absent</td><td style="vertical-align:top;">:</td><td><div>3266</div></td></tr><tr><td style="font-weight:bold;vertical-align:top;">abstention</td><td style="vertical-align:top;">:</td><td><div>92</div></td></tr><tr><td style="font-weight:bold;vertical-align:top;">contre</td><td style="vertical-align:top;">:</td><td><div>353</div></td></tr><tr><td style="font-weight:bold;vertical-align:top;">nonVotant</td><td style="vertical-align:top;">:</td><td><div>0</div></td></tr><tr><td style="font-weight:bold;vertical-align:top;">pour</td><td style="vertical-align:top;">:</td><td><div>89</div></td></tr></table></div></td></tr><tr><td style="font-weight:bold;vertical-align:top;">participation</td><td style="vertical-align:top;">:</td><td><div>14.0</div></td></tr><tr><td style="font-weight:bold;vertical-align:top;">stats</td><td style="vertical-align:top;">:</td><td><div><table><tr><td><div><table><tr><td style="font-weight:bold;vertical-align:top;">class</td><td style="vertical-align:top;">:</td><td><div>pct</div></td></tr><tr><td style="font-weight:bold;vertical-align:top;">icon</td><td style="vertical-align:top;">:</td><td><div>thumbs-up</div></td></tr><tr><td style="font-weight:bold;vertical-align:top;">libelle</td><td style="vertical-align:top;">:</td><td><div>votes pour</div></td></tr><tr><td style="font-weight:bold;vertical-align:top;">n</td><td style="vertical-align:top;">:</td><td><div>89</div></td></tr><tr><td style="font-weight:bold;vertical-align:top;">pct</td><td style="vertical-align:top;">:</td><td><div>2.0</div></td></tr><tr><td style="font-weight:bold;vertical-align:top;">position</td><td style="vertical-align:top;">:</td><td><div>pour</div></td></tr></table></div></td></tr><tr><td><div><table><tr><td style="font-weight:bold;vertical-align:top;">class</td><td style="vertical-align:top;">:</td><td><div>pct</div></td></tr><tr><td style="font-weight:bold;vertical-align:top;">icon</td><td style="vertical-align:top;">:</td><td><div>thumbs-down</div></td></tr><tr><td style="font-weight:bold;vertical-align:top;">libelle</td><td style="vertical-align:top;">:</td><td><div>votes contre</div></td></tr><tr><td style="font-weight:bold;vertical-align:top;">n</td><td style="vertical-align:top;">:</td><td><div>353</div></td></tr><tr><td style="font-weight:bold;vertical-align:top;">pct</td><td style="vertical-align:top;">:</td><td><div>9.0</div></td></tr><tr><td style="font-weight:bold;vertical-align:top;">position</td><td style="vertical-align:top;">:</td><td><div>contre</div></td></tr></table></div></td></tr><tr><td><div><table><tr><td style="font-weight:bold;vertical-align:top;">class</td><td style="vertical-align:top;">:</td><td><div>pct</div></td></tr><tr><td style="font-weight:bold;vertical-align:top;">icon</td><td style="vertical-align:top;">:</td><td><div>meh-o</div></td></tr><tr><td style="font-weight:bold;vertical-align:top;">libelle</td><td style="vertical-align:top;">:</td><td><div>abstention</div></td></tr><tr><td style="font-weight:bold;vertical-align:top;">n</td><td style="vertical-align:top;">:</td><td><div>92</div></td></tr><tr><td style="font-weight:bold;vertical-align:top;">pct</td><td style="vertical-align:top;">:</td><td><div>2.0</div></td></tr><tr><td style="font-weight:bold;vertical-align:top;">position</td><td style="vertical-align:top;">:</td><td><div>abstention</div></td></tr></table></div></td></tr><tr><td><div><table><tr><td style="font-weight:bold;vertical-align:top;">class</td><td style="vertical-align:top;">:</td><td><div>pct</div></td></tr><tr><td style="font-weight:bold;vertical-align:top;">icon</td><td style="vertical-align:top;">:</td><td><div>plane</div></td></tr><tr><td style="font-weight:bold;vertical-align:top;">libelle</td><td style="vertical-align:top;">:</td><td><div>absents</div></td></tr><tr><td style="font-weight:bold;vertical-align:top;">n</td><td style="vertical-align:top;">:</td><td><div>3266</div></td></tr><tr><td style="font-weight:bold;vertical-align:top;">pct</td><td style="vertical-align:top;">:</td><td><div>86.0</div></td></tr><tr><td style="font-weight:bold;vertical-align:top;">position</td><td style="vertical-align:top;">:</td><td><div>absent</div></td></tr></table></div></td></tr><tr><td><div><table><tr><td style="font-weight:bold;vertical-align:top;">class</td><td style="vertical-align:top;">:</td><td><div>pct</div></td></tr><tr><td style="font-weight:bold;vertical-align:top;">icon</td><td style="vertical-align:top;">:</td><td><div>ban</div></td></tr><tr><td style="font-weight:bold;vertical-align:top;">libelle</td><td style="vertical-align:top;">:</td><td><div>non votants (justifi\xc3\xa9s)</div></td></tr><tr><td style="font-weight:bold;vertical-align:top;">n</td><td style="vertical-align:top;">:</td><td><div>0</div></td></tr><tr><td style="font-weight:bold;vertical-align:top;">pct</td><td style="vertical-align:top;">:</td><td><div>0.0</div></td></tr><tr><td style="font-weight:bold;vertical-align:top;">position</td><td style="vertical-align:top;">:</td><td><div>nonVotant</div></td></tr></table></div></td></tr></table></div></td></tr><tr><td style="font-weight:bold;vertical-align:top;">stats_exprime</td><td style="vertical-align:top;">:</td><td><div><table><tr><td><div><table><tr><td style="font-weight:bold;vertical-align:top;">big</td><td style="vertical-align:top;">:</td><td><div>False</div></td></tr><tr><td style="font-weight:bold;vertical-align:top;">icon</td><td style="vertical-align:top;">:</td><td><div>thumbs-up</div></td></tr><tr><td style="font-weight:bold;vertical-align:top;">libelle</td><td style="vertical-align:top;">:</td><td><div>votes pour</div></td></tr><tr><td style="font-weight:bold;vertical-align:top;">n</td><td style="vertical-align:top;">:</td><td><div>89</div></td></tr><tr><td style="font-weight:bold;vertical-align:top;">pct</td><td style="vertical-align:top;">:</td><td><div>17.0</div></td></tr><tr><td style="font-weight:bold;vertical-align:top;">position</td><td style="vertical-align:top;">:</td><td><div>pour</div></td></tr></table></div></td></tr><tr><td><div><table><tr><td style="font-weight:bold;vertical-align:top;">big</td><td style="vertical-align:top;">:</td><td><div>False</div></td></tr><tr><td style="font-weight:bold;vertical-align:top;">icon</td><td style="vertical-align:top;">:</td><td><div>thumbs-down</div></td></tr><tr><td style="font-weight:bold;vertical-align:top;">libelle</td><td style="vertical-align:top;">:</td><td><div>votes contre</div></td></tr><tr><td style="font-weight:bold;vertical-align:top;">n</td><td style="vertical-align:top;">:</td><td><div>353</div></td></tr><tr><td style="font-weight:bold;vertical-align:top;">pct</td><td style="vertical-align:top;">:</td><td><div>66.0</div></td></tr><tr><td style="font-weight:bold;vertical-align:top;">position</td><td style="vertical-align:top;">:</td><td><div>contre</div></td></tr></table></div></td></tr><tr><td><div><table><tr><td style="font-weight:bold;vertical-align:top;">big</td><td style="vertical-align:top;">:</td><td><div>False</div></td></tr><tr><td style="font-weight:bold;vertical-align:top;">icon</td><td style="vertical-align:top;">:</td><td><div>meh-o</div></td></tr><tr><td style="font-weight:bold;vertical-align:top;">libelle</td><td style="vertical-align:top;">:</td><td><div>abstention</div></td></tr><tr><td style="font-weight:bold;vertical-align:top;">n</td><td style="vertical-align:top;">:</td><td><div>92</div></td></tr><tr><td style="font-weight:bold;vertical-align:top;">pct</td><td style="vertical-align:top;">:</td><td><div>17.0</div></td></tr><tr><td style="font-weight:bold;vertical-align:top;">position</td><td style="vertical-align:top;">:</td><td><div>abstention</div></td></tr></table></div></td></tr></table></div></td></tr><tr><td style="font-weight:bold;vertical-align:top;">stats_total</td><td style="vertical-align:top;">:</td><td><div><table><tr><td><div><table><tr><td style="font-weight:bold;vertical-align:top;">class</td><td style="vertical-align:top;">:</td><td><div>pct</div></td></tr><tr><td style="font-weight:bold;vertical-align:top;">icon</td><td style="vertical-align:top;">:</td><td><div>thumbs-up</div></td></tr><tr><td style="font-weight:bold;vertical-align:top;">libelle</td><td style="vertical-align:top;">:</td><td><div>votes pour</div></td></tr><tr><td style="font-weight:bold;vertical-align:top;">n</td><td style="vertical-align:top;">:</td><td><div>89</div></td></tr><tr><td style="font-weight:bold;vertical-align:top;">pct</td><td style="vertical-align:top;">:</td><td><div>2.0</div></td></tr><tr><td style="font-weight:bold;vertical-align:top;">position</td><td style="vertical-align:top;">:</td><td><div>pour</div></td></tr></table></div></td></tr><tr><td><div><table><tr><td style="font-weight:bold;vertical-align:top;">class</td><td style="vertical-align:top;">:</td><td><div>pct</div></td></tr><tr><td style="font-weight:bold;vertical-align:top;">icon</td><td style="vertical-align:top;">:</td><td><div>thumbs-down</div></td></tr><tr><td style="font-weight:bold;vertical-align:top;">libelle</td><td style="vertical-align:top;">:</td><td><div>votes contre</div></td></tr><tr><td style="font-weight:bold;vertical-align:top;">n</td><td style="vertical-align:top;">:</td><td><div>353</div></td></tr><tr><td style="font-weight:bold;vertical-align:top;">pct</td><td style="vertical-align:top;">:</td><td><div>9.0</div></td></tr><tr><td style="font-weight:bold;vertical-align:top;">position</td><td style="vertical-align:top;">:</td><td><div>contre</div></td></tr></table></div></td></tr><tr><td><div><table><tr><td style="font-weight:bold;vertical-align:top;">class</td><td style="vertical-align:top;">:</td><td><div>pct</div></td></tr><tr><td style="font-weight:bold;vertical-align:top;">icon</td><td style="vertical-align:top;">:</td><td><div>meh-o</div></td></tr><tr><td style="font-weight:bold;vertical-align:top;">libelle</td><td style="vertical-align:top;">:</td><td><div>abstention</div></td></tr><tr><td style="font-weight:bold;vertical-align:top;">n</td><td style="vertical-align:top;">:</td><td><div>92</div></td></tr><tr><td style="font-weight:bold;vertical-align:top;">pct</td><td style="vertical-align:top;">:</td><td><div>2.0</div></td></tr><tr><td style="font-weight:bold;vertical-align:top;">position</td><td style="vertical-align:top;">:</td><td><div>abstention</div></td></tr></table></div></td></tr><tr><td><div><table><tr><td style="font-weight:bold;vertical-align:top;">class</td><td style="vertical-align:top;">:</td><td><div>pct</div></td></tr><tr><td style="font-weight:bold;vertical-align:top;">icon</td><td style="vertical-align:top;">:</td><td><div>plane</div></td></tr><tr><td style="font-weight:bold;vertical-align:top;">libelle</td><td style="vertical-align:top;">:</td><td><div>absents</div></td></tr><tr><td style="font-weight:bold;vertical-align:top;">n</td><td style="vertical-align:top;">:</td><td><div>3266</div></td></tr><tr><td style="font-weight:bold;vertical-align:top;">pct</td><td style="vertical-align:top;">:</td><td><div>86.0</div></td></tr><tr><td style="font-weight:bold;vertical-align:top;">position</td><td style="vertical-align:top;">:</td><td><div>absent</div></td></tr></table></div></td></tr><tr><td><div><table><tr><td style="font-weight:bold;vertical-align:top;">class</td><td style="vertical-align:top;">:</td><td><div>pct</div></td></tr><tr><td style="font-weight:bold;vertical-align:top;">icon</td><td style="vertical-align:top;">:</td><td><div>ban</div></td></tr><tr><td style="font-weight:bold;vertical-align:top;">libelle</td><td style="vertical-align:top;">:</td><td><div>non votants (justifi\xc3\xa9s)</div></td></tr><tr><td style="font-weight:bold;vertical-align:top;">n</td><td style="vertical-align:top;">:</td><td><div>0</div></td></tr><tr><td style="font-weight:bold;vertical-align:top;">pct</td><td style="vertical-align:top;">:</td><td><div>0.0</div></td></tr><tr><td style="font-weight:bold;vertical-align:top;">position</td><td style="vertical-align:top;">:</td><td><div>nonVotant</div></td></tr></table></div></td></tr></table></div></td></tr></table></div></td></tr><tr><td><div><table><tr><td style="font-weight:bold;vertical-align:top;">cercles</td><td style="vertical-align:top;">:</td><td><div><table></table></div></td></tr><tr><td style="font-weight:bold;vertical-align:top;">key</td><td style="vertical-align:top;">:</td><td><div>PO730940</div></td></tr><tr><td style="font-weight:bold;vertical-align:top;">label</td><td style="vertical-align:top;">:</td><td><div>Gauche d\xc3\xa9mocrate et r\xc3\xa9publicaine</div></td></tr><tr><td style="font-weight:bold;vertical-align:top;">nb</td><td style="vertical-align:top;">:</td><td><div><table><tr><td style="font-weight:bold;vertical-align:top;">absent</td><td style="vertical-align:top;">:</td><td><div>336</div></td></tr><tr><td style="font-weight:bold;vertical-align:top;">abstention</td><td style="vertical-align:top;">:</td><td><div>5</div></td></tr><tr><td style="font-weight:bold;vertical-align:top;">contre</td><td style="vertical-align:top;">:</td><td><div>43</div></td></tr><tr><td style="font-weight:bold;vertical-align:top;">nonVotant</td><td style="vertical-align:top;">:</td><td><div>0</div></td></tr><tr><td style="font-weight:bold;vertical-align:top;">pour</td><td style="vertical-align:top;">:</td><td><div>224</div></td></tr></table></div></td></tr><tr><td style="font-weight:bold;vertical-align:top;">participation</td><td style="vertical-align:top;">:</td><td><div>45.0</div></td></tr><tr><td style="font-weight:bold;vertical-align:top;">stats</td><td style="vertical-align:top;">:</td><td><div><table><tr><td><div><table><tr><td style="font-weight:bold;vertical-align:top;">class</td><td style="vertical-align:top;">:</td><td><div>pct</div></td></tr><tr><td style="font-weight:bold;vertical-align:top;">icon</td><td style="vertical-align:top;">:</td><td><div>thumbs-up</div></td></tr><tr><td style="font-weight:bold;vertical-align:top;">libelle</td><td style="vertical-align:top;">:</td><td><div>votes pour</div></td></tr><tr><td style="font-weight:bold;vertical-align:top;">n</td><td style="vertical-align:top;">:</td><td><div>224</div></td></tr><tr><td style="font-weight:bold;vertical-align:top;">pct</td><td style="vertical-align:top;">:</td><td><div>37.0</div></td></tr><tr><td style="font-weight:bold;vertical-align:top;">position</td><td style="vertical-align:top;">:</td><td><div>pour</div></td></tr></table></div></td></tr><tr><td><div><table><tr><td style="font-weight:bold;vertical-align:top;">class</td><td style="vertical-align:top;">:</td><td><div>pct</div></td></tr><tr><td style="font-weight:bold;vertical-align:top;">icon</td><td style="vertical-align:top;">:</td><td><div>thumbs-down</div></td></tr><tr><td style="font-weight:bold;vertical-align:top;">libelle</td><td style="vertical-align:top;">:</td><td><div>votes contre</div></td></tr><tr><td style="font-weight:bold;vertical-align:top;">n</td><td style="vertical-align:top;">:</td><td><div>43</div></td></tr><tr><td style="font-weight:bold;vertical-align:top;">pct</td><td style="vertical-align:top;">:</td><td><div>7.0</div></td></tr><tr><td style="font-weight:bold;vertical-align:top;">position</td><td style="vertical-align:top;">:</td><td><div>contre</div></td></tr></table></div></td></tr><tr><td><div><table><tr><td style="font-weight:bold;vertical-align:top;">class</td><td style="vertical-align:top;">:</td><td><div>pct</div></td></tr><tr><td style="font-weight:bold;vertical-align:top;">icon</td><td style="vertical-align:top;">:</td><td><div>meh-o</div></td></tr><tr><td style="font-weight:bold;vertical-align:top;">libelle</td><td style="vertical-align:top;">:</td><td><div>abstention</div></td></tr><tr><td style="font-weight:bold;vertical-align:top;">n</td><td style="vertical-align:top;">:</td><td><div>5</div></td></tr><tr><td style="font-weight:bold;vertical-align:top;">pct</td><td style="vertical-align:top;">:</td><td><div>1.0</div></td></tr><tr><td style="font-weight:bold;vertical-align:top;">position</td><td style="vertical-align:top;">:</td><td><div>abstention</div></td></tr></table></div></td></tr><tr><td><div><table><tr><td style="font-weight:bold;vertical-align:top;">class</td><td style="vertical-align:top;">:</td><td><div>pct</div></td></tr><tr><td style="font-weight:bold;vertical-align:top;">icon</td><td style="vertical-align:top;">:</td><td><div>plane</div></td></tr><tr><td style="font-weight:bold;vertical-align:top;">libelle</td><td style="vertical-align:top;">:</td><td><div>absents</div></td></tr><tr><td style="font-weight:bold;vertical-align:top;">n</td><td style="vertical-align:top;">:</td><td><div>336</div></td></tr><tr><td style="font-weight:bold;vertical-align:top;">pct</td><td style="vertical-align:top;">:</td><td><div>55.0</div></td></tr><tr><td style="font-weight:bold;vertical-align:top;">position</td><td style="vertical-align:top;">:</td><td><div>absent</div></td></tr></table></div></td></tr><tr><td><div><table><tr><td style="font-weight:bold;vertical-align:top;">class</td><td style="vertical-align:top;">:</td><td><div>pct</div></td></tr><tr><td style="font-weight:bold;vertical-align:top;">icon</td><td style="vertical-align:top;">:</td><td><div>ban</div></td></tr><tr><td style="font-weight:bold;vertical-align:top;">libelle</td><td style="vertical-align:top;">:</td><td><div>non votants (justifi\xc3\xa9s)</div></td></tr><tr><td style="font-weight:bold;vertical-align:top;">n</td><td style="vertical-align:top;">:</td><td><div>0</div></td></tr><tr><td style="font-weight:bold;vertical-align:top;">pct</td><td style="vertical-align:top;">:</td><td><div>0.0</div></td></tr><tr><td style="font-weight:bold;vertical-align:top;">position</td><td style="vertical-align:top;">:</td><td><div>nonVotant</div></td></tr></table></div></td></tr></table></div></td></tr><tr><td style="font-weight:bold;vertical-align:top;">stats_exprime</td><td style="vertical-align:top;">:</td><td><div><table><tr><td><div><table><tr><td style="font-weight:bold;vertical-align:top;">big</td><td style="vertical-align:top;">:</td><td><div>False</div></td></tr><tr><td style="font-weight:bold;vertical-align:top;">icon</td><td style="vertical-align:top;">:</td><td><div>thumbs-up</div></td></tr><tr><td style="font-weight:bold;vertical-align:top;">libelle</td><td style="vertical-align:top;">:</td><td><div>votes pour</div></td></tr><tr><td style="font-weight:bold;vertical-align:top;">n</td><td style="vertical-align:top;">:</td><td><div>224</div></td></tr><tr><td style="font-weight:bold;vertical-align:top;">pct</td><td style="vertical-align:top;">:</td><td><div>82.0</div></td></tr><tr><td style="font-weight:bold;vertical-align:top;">position</td><td style="vertical-align:top;">:</td><td><div>pour</div></td></tr></table></div></td></tr><tr><td><div><table><tr><td style="font-weight:bold;vertical-align:top;">big</td><td style="vertical-align:top;">:</td><td><div>False</div></td></tr><tr><td style="font-weight:bold;vertical-align:top;">icon</td><td style="vertical-align:top;">:</td><td><div>thumbs-down</div></td></tr><tr><td style="font-weight:bold;vertical-align:top;">libelle</td><td style="vertical-align:top;">:</td><td><div>votes contre</div></td></tr><tr><td style="font-weight:bold;vertical-align:top;">n</td><td style="vertical-align:top;">:</td><td><div>43</div></td></tr><tr><td style="font-weight:bold;vertical-align:top;">pct</td><td style="vertical-align:top;">:</td><td><div>16.0</div></td></tr><tr><td style="font-weight:bold;vertical-align:top;">position</td><td style="vertical-align:top;">:</td><td><div>contre</div></td></tr></table></div></td></tr><tr><td><div><table><tr><td style="font-weight:bold;vertical-align:top;">big</td><td style="vertical-align:top;">:</td><td><div>False</div></td></tr><tr><td style="font-weight:bold;vertical-align:top;">icon</td><td style="vertical-align:top;">:</td><td><div>meh-o</div></td></tr><tr><td style="font-weight:bold;vertical-align:top;">libelle</td><td style="vertical-align:top;">:</td><td><div>abstention</div></td></tr><tr><td style="font-weight:bold;vertical-align:top;">n</td><td style="vertical-align:top;">:</td><td><div>5</div></td></tr><tr><td style="font-weight:bold;vertical-align:top;">pct</td><td style="vertical-align:top;">:</td><td><div>2.0</div></td></tr><tr><td style="font-weight:bold;vertical-align:top;">position</td><td style="vertical-align:top;">:</td><td><div>abstention</div></td></tr></table></div></td></tr></table></div></td></tr><tr><td style="font-weight:bold;vertical-align:top;">stats_total</td><td style="vertical-align:top;">:</td><td><div><table><tr><td><div><table><tr><td style="font-weight:bold;vertical-align:top;">class</td><td style="vertical-align:top;">:</td><td><div>pct</div></td></tr><tr><td style="font-weight:bold;vertical-align:top;">icon</td><td style="vertical-align:top;">:</td><td><div>thumbs-up</div></td></tr><tr><td style="font-weight:bold;vertical-align:top;">libelle</td><td style="vertical-align:top;">:</td><td><div>votes pour</div></td></tr><tr><td style="font-weight:bold;vertical-align:top;">n</td><td style="vertical-align:top;">:</td><td><div>224</div></td></tr><tr><td style="font-weight:bold;vertical-align:top;">pct</td><td style="vertical-align:top;">:</td><td><div>37.0</div></td></tr><tr><td style="font-weight:bold;vertical-align:top;">position</td><td style="vertical-align:top;">:</td><td><div>pour</div></td></tr></table></div></td></tr><tr><td><div><table><tr><td style="font-weight:bold;vertical-align:top;">class</td><td style="vertical-align:top;">:</td><td><div>pct</div></td></tr><tr><td style="font-weight:bold;vertical-align:top;">icon</td><td style="vertical-align:top;">:</td><td><div>thumbs-down</div></td></tr><tr><td style="font-weight:bold;vertical-align:top;">libelle</td><td style="vertical-align:top;">:</td><td><div>votes contre</div></td></tr><tr><td style="font-weight:bold;vertical-align:top;">n</td><td style="vertical-align:top;">:</td><td><div>43</div></td></tr><tr><td style="font-weight:bold;vertical-align:top;">pct</td><td style="vertical-align:top;">:</td><td><div>7.0</div></td></tr><tr><td style="font-weight:bold;vertical-align:top;">position</td><td style="vertical-align:top;">:</td><td><div>contre</div></td></tr></table></div></td></tr><tr><td><div><table><tr><td style="font-weight:bold;vertical-align:top;">class</td><td style="vertical-align:top;">:</td><td><div>pct</div></td></tr><tr><td style="font-weight:bold;vertical-align:top;">icon</td><td style="vertical-align:top;">:</td><td><div>meh-o</div></td></tr><tr><td style="font-weight:bold;vertical-align:top;">libelle</td><td style="vertical-align:top;">:</td><td><div>abstention</div></td></tr><tr><td style="font-weight:bold;vertical-align:top;">n</td><td style="vertical-align:top;">:</td><td><div>5</div></td></tr><tr><td style="font-weight:bold;vertical-align:top;">pct</td><td style="vertical-align:top;">:</td><td><div>1.0</div></td></tr><tr><td style="font-weight:bold;vertical-align:top;">position</td><td style="vertical-align:top;">:</td><td><div>abstention</div></td></tr></table></div></td></tr><tr><td><div><table><tr><td style="font-weight:bold;vertical-align:top;">class</td><td style="vertical-align:top;">:</td><td><div>pct</div></td></tr><tr><td style="font-weight:bold;vertical-align:top;">icon</td><td style="vertical-align:top;">:</td><td><div>plane</div></td></tr><tr><td style="font-weight:bold;vertical-align:top;">libelle</td><td style="vertical-align:top;">:</td><td><div>absents</div></td></tr><tr><td style="font-weight:bold;vertical-align:top;">n</td><td style="vertical-align:top;">:</td><td><div>336</div></td></tr><tr><td style="font-weight:bold;vertical-align:top;">pct</td><td style="vertical-align:top;">:</td><td><div>55.0</div></td></tr><tr><td style="font-weight:bold;vertical-align:top;">position</td><td style="vertical-align:top;">:</td><td><div>absent</div></td></tr></table></div></td></tr><tr><td><div><table><tr><td style="font-weight:bold;vertical-align:top;">class</td><td style="vertical-align:top;">:</td><td><div>pct</div></td></tr><tr><td style="font-weight:bold;vertical-align:top;">icon</td><td style="vertical-align:top;">:</td><td><div>ban</div></td></tr><tr><td style="font-weight:bold;vertical-align:top;">libelle</td><td style="vertical-align:top;">:</td><td><div>non votants (justifi\xc3\xa9s)</div></td></tr><tr><td style="font-weight:bold;vertical-align:top;">n</td><td style="vertical-align:top;">:</td><td><div>0</div></td></tr><tr><td style="font-weight:bold;vertical-align:top;">pct</td><td style="vertical-align:top;">:</td><td><div>0.0</div></td></tr><tr><td style="font-weight:bold;vertical-align:top;">position</td><td style="vertical-align:top;">:</td><td><div>nonVotant</div></td></tr></table></div></td></tr></table></div></td></tr></table></div></td></tr><tr><td><div><table><tr><td style="font-weight:bold;vertical-align:top;">cercles</td><td style="vertical-align:top;">:</td><td><div><table></table></div></td></tr><tr><td style="font-weight:bold;vertical-align:top;">key</td><td style="vertical-align:top;">:</td><td><div>PO730946</div></td></tr><tr><td style="font-weight:bold;vertical-align:top;">label</td><td style="vertical-align:top;">:</td><td><div>Nouvelle Gauche</div></td></tr><tr><td style="font-weight:bold;vertical-align:top;">nb</td><td style="vertical-align:top;">:</td><td><div><table><tr><td style="font-weight:bold;vertical-align:top;">absent</td><td style="vertical-align:top;">:</td><td><div>992</div></td></tr><tr><td style="font-weight:bold;vertical-align:top;">abstention</td><td style="vertical-align:top;">:</td><td><div>30</div></td></tr><tr><td style="font-weight:bold;vertical-align:top;">contre</td><td style="vertical-align:top;">:</td><td><div>27</div></td></tr><tr><td style="font-weight:bold;vertical-align:top;">nonVotant</td><td style="vertical-align:top;">:</td><td><div>0</div></td></tr><tr><td style="font-weight:bold;vertical-align:top;">pour</td><td style="vertical-align:top;">:</td><td><div>129</div></td></tr></table></div></td></tr><tr><td style="font-weight:bold;vertical-align:top;">participation</td><td style="vertical-align:top;">:</td><td><div>16.0</div></td></tr><tr><td style="font-weight:bold;vertical-align:top;">stats</td><td style="vertical-align:top;">:</td><td><div><table><tr><td><div><table><tr><td style="font-weight:bold;vertical-align:top;">class</td><td style="vertical-align:top;">:</td><td><div>pct</div></td></tr><tr><td style="font-weight:bold;vertical-align:top;">icon</td><td style="vertical-align:top;">:</td><td><div>thumbs-up</div></td></tr><tr><td style="font-weight:bold;vertical-align:top;">libelle</td><td style="vertical-align:top;">:</td><td><div>votes pour</div></td></tr><tr><td style="font-weight:bold;vertical-align:top;">n</td><td style="vertical-align:top;">:</td><td><div>129</div></td></tr><tr><td style="font-weight:bold;vertical-align:top;">pct</td><td style="vertical-align:top;">:</td><td><div>11.0</div></td></tr><tr><td style="font-weight:bold;vertical-align:top;">position</td><td style="vertical-align:top;">:</td><td><div>pour</div></td></tr></table></div></td></tr><tr><td><div><table><tr><td style="font-weight:bold;vertical-align:top;">class</td><td style="vertical-align:top;">:</td><td><div>pct</div></td></tr><tr><td style="font-weight:bold;vertical-align:top;">icon</td><td style="vertical-align:top;">:</td><td><div>thumbs-down</div></td></tr><tr><td style="font-weight:bold;vertical-align:top;">libelle</td><td style="vertical-align:top;">:</td><td><div>votes contre</div></td></tr><tr><td style="font-weight:bold;vertical-align:top;">n</td><td style="vertical-align:top;">:</td><td><div>27</div></td></tr><tr><td style="font-weight:bold;vertical-align:top;">pct</td><td style="vertical-align:top;">:</td><td><div>2.0</div></td></tr><tr><td style="font-weight:bold;vertical-align:top;">position</td><td style="vertical-align:top;">:</td><td><div>contre</div></td></tr></table></div></td></tr><tr><td><div><table><tr><td style="font-weight:bold;vertical-align:top;">class</td><td style="vertical-align:top;">:</td><td><div>pct</div></td></tr><tr><td style="font-weight:bold;vertical-align:top;">icon</td><td style="vertical-align:top;">:</td><td><div>meh-o</div></td></tr><tr><td style="font-weight:bold;vertical-align:top;">libelle</td><td style="vertical-align:top;">:</td><td><div>abstention</div></td></tr><tr><td style="font-weight:bold;vertical-align:top;">n</td><td style="vertical-align:top;">:</td><td><div>30</div></td></tr><tr><td style="font-weight:bold;vertical-align:top;">pct</td><td style="vertical-align:top;">:</td><td><div>3.0</div></td></tr><tr><td style="font-weight:bold;vertical-align:top;">position</td><td style="vertical-align:top;">:</td><td><div>abstention</div></td></tr></table></div></td></tr><tr><td><div><table><tr><td style="font-weight:bold;vertical-align:top;">class</td><td style="vertical-align:top;">:</td><td><div>pct</div></td></tr><tr><td style="font-weight:bold;vertical-align:top;">icon</td><td style="vertical-align:top;">:</td><td><div>plane</div></td></tr><tr><td style="font-weight:bold;vertical-align:top;">libelle</td><td style="vertical-align:top;">:</td><td><div>absents</div></td></tr><tr><td style="font-weight:bold;vertical-align:top;">n</td><td style="vertical-align:top;">:</td><td><div>992</div></td></tr><tr><td style="font-weight:bold;vertical-align:top;">pct</td><td style="vertical-align:top;">:</td><td><div>84.0</div></td></tr><tr><td style="font-weight:bold;vertical-align:top;">position</td><td style="vertical-align:top;">:</td><td><div>absent</div></td></tr></table></div></td></tr><tr><td><div><table><tr><td style="font-weight:bold;vertical-align:top;">class</td><td style="vertical-align:top;">:</td><td><div>pct</div></td></tr><tr><td style="font-weight:bold;vertical-align:top;">icon</td><td style="vertical-align:top;">:</td><td><div>ban</div></td></tr><tr><td style="font-weight:bold;vertical-align:top;">libelle</td><td style="vertical-align:top;">:</td><td><div>non votants (justifi\xc3\xa9s)</div></td></tr><tr><td style="font-weight:bold;vertical-align:top;">n</td><td style="vertical-align:top;">:</td><td><div>0</div></td></tr><tr><td style="font-weight:bold;vertical-align:top;">pct</td><td style="vertical-align:top;">:</td><td><div>0.0</div></td></tr><tr><td style="font-weight:bold;vertical-align:top;">position</td><td style="vertical-align:top;">:</td><td><div>nonVotant</div></td></tr></table></div></td></tr></table></div></td></tr><tr><td style="font-weight:bold;vertical-align:top;">stats_exprime</td><td style="vertical-align:top;">:</td><td><div><table><tr><td><div><table><tr><td style="font-weight:bold;vertical-align:top;">big</td><td style="vertical-align:top;">:</td><td><div>False</div></td></tr><tr><td style="font-weight:bold;vertical-align:top;">icon</td><td style="vertical-align:top;">:</td><td><div>thumbs-up</div></td></tr><tr><td style="font-weight:bold;vertical-align:top;">libelle</td><td style="vertical-align:top;">:</td><td><div>votes pour</div></td></tr><tr><td style="font-weight:bold;vertical-align:top;">n</td><td style="vertical-align:top;">:</td><td><div>129</div></td></tr><tr><td style="font-weight:bold;vertical-align:top;">pct</td><td style="vertical-align:top;">:</td><td><div>69.0</div></td></tr><tr><td style="font-weight:bold;vertical-align:top;">position</td><td style="vertical-align:top;">:</td><td><div>pour</div></td></tr></table></div></td></tr><tr><td><div><table><tr><td style="font-weight:bold;vertical-align:top;">big</td><td style="vertical-align:top;">:</td><td><div>False</div></td></tr><tr><td style="font-weight:bold;vertical-align:top;">icon</td><td style="vertical-align:top;">:</td><td><div>thumbs-down</div></td></tr><tr><td style="font-weight:bold;vertical-align:top;">libelle</td><td style="vertical-align:top;">:</td><td><div>votes contre</div></td></tr><tr><td style="font-weight:bold;vertical-align:top;">n</td><td style="vertical-align:top;">:</td><td><div>27</div></td></tr><tr><td style="font-weight:bold;vertical-align:top;">pct</td><td style="vertical-align:top;">:</td><td><div>15.0</div></td></tr><tr><td style="font-weight:bold;vertical-align:top;">position</td><td style="vertical-align:top;">:</td><td><div>contre</div></td></tr></table></div></td></tr><tr><td><div><table><tr><td style="font-weight:bold;vertical-align:top;">big</td><td style="vertical-align:top;">:</td><td><div>False</div></td></tr><tr><td style="font-weight:bold;vertical-align:top;">icon</td><td style="vertical-align:top;">:</td><td><div>meh-o</div></td></tr><tr><td style="font-weight:bold;vertical-align:top;">libelle</td><td style="vertical-align:top;">:</td><td><div>abstention</div></td></tr><tr><td style="font-weight:bold;vertical-align:top;">n</td><td style="vertical-align:top;">:</td><td><div>30</div></td></tr><tr><td style="font-weight:bold;vertical-align:top;">pct</td><td style="vertical-align:top;">:</td><td><div>16.0</div></td></tr><tr><td style="font-weight:bold;vertical-align:top;">position</td><td style="vertical-align:top;">:</td><td><div>abstention</div></td></tr></table></div></td></tr></table></div></td></tr><tr><td style="font-weight:bold;vertical-align:top;">stats_total</td><td style="vertical-align:top;">:</td><td><div><table><tr><td><div><table><tr><td style="font-weight:bold;vertical-align:top;">class</td><td style="vertical-align:top;">:</td><td><div>pct</div></td></tr><tr><td style="font-weight:bold;vertical-align:top;">icon</td><td style="vertical-align:top;">:</td><td><div>thumbs-up</div></td></tr><tr><td style="font-weight:bold;vertical-align:top;">libelle</td><td style="vertical-align:top;">:</td><td><div>votes pour</div></td></tr><tr><td style="font-weight:bold;vertical-align:top;">n</td><td style="vertical-align:top;">:</td><td><div>129</div></td></tr><tr><td style="font-weight:bold;vertical-align:top;">pct</td><td style="vertical-align:top;">:</td><td><div>11.0</div></td></tr><tr><td style="font-weight:bold;vertical-align:top;">position</td><td style="vertical-align:top;">:</td><td><div>pour</div></td></tr></table></div></td></tr><tr><td><div><table><tr><td style="font-weight:bold;vertical-align:top;">class</td><td style="vertical-align:top;">:</td><td><div>pct</div></td></tr><tr><td style="font-weight:bold;vertical-align:top;">icon</td><td style="vertical-align:top;">:</td><td><div>thumbs-down</div></td></tr><tr><td style="font-weight:bold;vertical-align:top;">libelle</td><td style="vertical-align:top;">:</td><td><div>votes contre</div></td></tr><tr><td style="font-weight:bold;vertical-align:top;">n</td><td style="vertical-align:top;">:</td><td><div>27</div></td></tr><tr><td style="font-weight:bold;vertical-align:top;">pct</td><td style="vertical-align:top;">:</td><td><div>2.0</div></td></tr><tr><td style="font-weight:bold;vertical-align:top;">position</td><td style="vertical-align:top;">:</td><td><div>contre</div></td></tr></table></div></td></tr><tr><td><div><table><tr><td style="font-weight:bold;vertical-align:top;">class</td><td style="vertical-align:top;">:</td><td><div>pct</div></td></tr><tr><td style="font-weight:bold;vertical-align:top;">icon</td><td style="vertical-align:top;">:</td><td><div>meh-o</div></td></tr><tr><td style="font-weight:bold;vertical-align:top;">libelle</td><td style="vertical-align:top;">:</td><td><div>abstention</div></td></tr><tr><td style="font-weight:bold;vertical-align:top;">n</td><td style="vertical-align:top;">:</td><td><div>30</div></td></tr><tr><td style="font-weight:bold;vertical-align:top;">pct</td><td style="vertical-align:top;">:</td><td><div>3.0</div></td></tr><tr><td style="font-weight:bold;vertical-align:top;">position</td><td style="vertical-align:top;">:</td><td><div>abstention</div></td></tr></table></div></td></tr><tr><td><div><table><tr><td style="font-weight:bold;vertical-align:top;">class</td><td style="vertical-align:top;">:</td><td><div>pct</div></td></tr><tr><td style="font-weight:bold;vertical-align:top;">icon</td><td style="vertical-align:top;">:</td><td><div>plane</div></td></tr><tr><td style="font-weight:bold;vertical-align:top;">libelle</td><td style="vertical-align:top;">:</td><td><div>absents</div></td></tr><tr><td style="font-weight:bold;vertical-align:top;">n</td><td style="vertical-align:top;">:</td><td><div>992</div></td></tr><tr><td style="font-weight:bold;vertical-align:top;">pct</td><td style="vertical-align:top;">:</td><td><div>84.0</div></td></tr><tr><td style="font-weight:bold;vertical-align:top;">position</td><td style="vertical-align:top;">:</td><td><div>absent</div></td></tr></table></div></td></tr><tr><td><div><table><tr><td style="font-weight:bold;vertical-align:top;">class</td><td style="vertical-align:top;">:</td><td><div>pct</div></td></tr><tr><td style="font-weight:bold;vertical-align:top;">icon</td><td style="vertical-align:top;">:</td><td><div>ban</div></td></tr><tr><td style="font-weight:bold;vertical-align:top;">libelle</td><td style="vertical-align:top;">:</td><td><div>non votants (justifi\xc3\xa9s)</div></td></tr><tr><td style="font-weight:bold;vertical-align:top;">n</td><td style="vertical-align:top;">:</td><td><div>0</div></td></tr><tr><td style="font-weight:bold;vertical-align:top;">pct</td><td style="vertical-align:top;">:</td><td><div>0.0</div></td></tr><tr><td style="font-weight:bold;vertical-align:top;">position</td><td style="vertical-align:top;">:</td><td><div>nonVotant</div></td></tr></table></div></td></tr></table></div></td></tr></table></div></td></tr><tr><td><div><table><tr><td style="font-weight:bold;vertical-align:top;">cercles</td><td style="vertical-align:top;">:</td><td><div><table></table></div></td></tr><tr><td style="font-weight:bold;vertical-align:top;">key</td><td style="vertical-align:top;">:</td><td><div>PO730958</div></td></tr><tr><td style="font-weight:bold;vertical-align:top;">label</td><td style="vertical-align:top;">:</td><td><div>La France insoumise</div></td></tr><tr><td style="font-weight:bold;vertical-align:top;">nb</td><td style="vertical-align:top;">:</td><td><div><table><tr><td style="font-weight:bold;vertical-align:top;">absent</td><td style="vertical-align:top;">:</td><td><div>219</div></td></tr><tr><td style="font-weight:bold;vertical-align:top;">abstention</td><td style="vertical-align:top;">:</td><td><div>1</div></td></tr><tr><td style="font-weight:bold;vertical-align:top;">contre</td><td style="vertical-align:top;">:</td><td><div>73</div></td></tr><tr><td style="font-weight:bold;vertical-align:top;">nonVotant</td><td style="vertical-align:top;">:</td><td><div>0</div></td></tr><tr><td style="font-weight:bold;vertical-align:top;">pour</td><td style="vertical-align:top;">:</td><td><div>353</div></td></tr></table></div></td></tr><tr><td style="font-weight:bold;vertical-align:top;">participation</td><td style="vertical-align:top;">:</td><td><div>66.0</div></td></tr><tr><td style="font-weight:bold;vertical-align:top;">stats</td><td style="vertical-align:top;">:</td><td><div><table><tr><td><div><table><tr><td style="font-weight:bold;vertical-align:top;">class</td><td style="vertical-align:top;">:</td><td><div>pct</div></td></tr><tr><td style="font-weight:bold;vertical-align:top;">icon</td><td style="vertical-align:top;">:</td><td><div>thumbs-up</div></td></tr><tr><td style="font-weight:bold;vertical-align:top;">libelle</td><td style="vertical-align:top;">:</td><td><div>votes pour</div></td></tr><tr><td style="font-weight:bold;vertical-align:top;">n</td><td style="vertical-align:top;">:</td><td><div>353</div></td></tr><tr><td style="font-weight:bold;vertical-align:top;">pct</td><td style="vertical-align:top;">:</td><td><div>55.0</div></td></tr><tr><td style="font-weight:bold;vertical-align:top;">position</td><td style="vertical-align:top;">:</td><td><div>pour</div></td></tr></table></div></td></tr><tr><td><div><table><tr><td style="font-weight:bold;vertical-align:top;">class</td><td style="vertical-align:top;">:</td><td><div>pct</div></td></tr><tr><td style="font-weight:bold;vertical-align:top;">icon</td><td style="vertical-align:top;">:</td><td><div>thumbs-down</div></td></tr><tr><td style="font-weight:bold;vertical-align:top;">libelle</td><td style="vertical-align:top;">:</td><td><div>votes contre</div></td></tr><tr><td style="font-weight:bold;vertical-align:top;">n</td><td style="vertical-align:top;">:</td><td><div>73</div></td></tr><tr><td style="font-weight:bold;vertical-align:top;">pct</td><td style="vertical-align:top;">:</td><td><div>11.0</div></td></tr><tr><td style="font-weight:bold;vertical-align:top;">position</td><td style="vertical-align:top;">:</td><td><div>contre</div></td></tr></table></div></td></tr><tr><td><div><table><tr><td style="font-weight:bold;vertical-align:top;">class</td><td style="vertical-align:top;">:</td><td><div>pct</div></td></tr><tr><td style="font-weight:bold;vertical-align:top;">icon</td><td style="vertical-align:top;">:</td><td><div>meh-o</div></td></tr><tr><td style="font-weight:bold;vertical-align:top;">libelle</td><td style="vertical-align:top;">:</td><td><div>abstention</div></td></tr><tr><td style="font-weight:bold;vertical-align:top;">n</td><td style="vertical-align:top;">:</td><td><div>1</div></td></tr><tr><td style="font-weight:bold;vertical-align:top;">pct</td><td style="vertical-align:top;">:</td><td><div>0.0</div></td></tr><tr><td style="font-weight:bold;vertical-align:top;">position</td><td style="vertical-align:top;">:</td><td><div>abstention</div></td></tr></table></div></td></tr><tr><td><div><table><tr><td style="font-weight:bold;vertical-align:top;">class</td><td style="vertical-align:top;">:</td><td><div>pct</div></td></tr><tr><td style="font-weight:bold;vertical-align:top;">icon</td><td style="vertical-align:top;">:</td><td><div>plane</div></td></tr><tr><td style="font-weight:bold;vertical-align:top;">libelle</td><td style="vertical-align:top;">:</td><td><div>absents</div></td></tr><tr><td style="font-weight:bold;vertical-align:top;">n</td><td style="vertical-align:top;">:</td><td><div>219</div></td></tr><tr><td style="font-weight:bold;vertical-align:top;">pct</td><td style="vertical-align:top;">:</td><td><div>34.0</div></td></tr><tr><td style="font-weight:bold;vertical-align:top;">position</td><td style="vertical-align:top;">:</td><td><div>absent</div></td></tr></table></div></td></tr><tr><td><div><table><tr><td style="font-weight:bold;vertical-align:top;">class</td><td style="vertical-align:top;">:</td><td><div>pct</div></td></tr><tr><td style="font-weight:bold;vertical-align:top;">icon</td><td style="vertical-align:top;">:</td><td><div>ban</div></td></tr><tr><td style="font-weight:bold;vertical-align:top;">libelle</td><td style="vertical-align:top;">:</td><td><div>non votants (justifi\xc3\xa9s)</div></td></tr><tr><td style="font-weight:bold;vertical-align:top;">n</td><td style="vertical-align:top;">:</td><td><div>0</div></td></tr><tr><td style="font-weight:bold;vertical-align:top;">pct</td><td style="vertical-align:top;">:</td><td><div>0.0</div></td></tr><tr><td style="font-weight:bold;vertical-align:top;">position</td><td style="vertical-align:top;">:</td><td><div>nonVotant</div></td></tr></table></div></td></tr></table></div></td></tr><tr><td style="font-weight:bold;vertical-align:top;">stats_exprime</td><td style="vertical-align:top;">:</td><td><div><table><tr><td><div><table><tr><td style="font-weight:bold;vertical-align:top;">big</td><td style="vertical-align:top;">:</td><td><div>False</div></td></tr><tr><td style="font-weight:bold;vertical-align:top;">icon</td><td style="vertical-align:top;">:</td><td><div>thumbs-up</div></td></tr><tr><td style="font-weight:bold;vertical-align:top;">libelle</td><td style="vertical-align:top;">:</td><td><div>votes pour</div></td></tr><tr><td style="font-weight:bold;vertical-align:top;">n</td><td style="vertical-align:top;">:</td><td><div>353</div></td></tr><tr><td style="font-weight:bold;vertical-align:top;">pct</td><td style="vertical-align:top;">:</td><td><div>83.0</div></td></tr><tr><td style="font-weight:bold;vertical-align:top;">position</td><td style="vertical-align:top;">:</td><td><div>pour</div></td></tr></table></div></td></tr><tr><td><div><table><tr><td style="font-weight:bold;vertical-align:top;">big</td><td style="vertical-align:top;">:</td><td><div>False</div></td></tr><tr><td style="font-weight:bold;vertical-align:top;">icon</td><td style="vertical-align:top;">:</td><td><div>thumbs-down</div></td></tr><tr><td style="font-weight:bold;vertical-align:top;">libelle</td><td style="vertical-align:top;">:</td><td><div>votes contre</div></td></tr><tr><td style="font-weight:bold;vertical-align:top;">n</td><td style="vertical-align:top;">:</td><td><div>73</div></td></tr><tr><td style="font-weight:bold;vertical-align:top;">pct</td><td style="vertical-align:top;">:</td><td><div>17.0</div></td></tr><tr><td style="font-weight:bold;vertical-align:top;">position</td><td style="vertical-align:top;">:</td><td><div>contre</div></td></tr></table></div></td></tr><tr><td><div><table><tr><td style="font-weight:bold;vertical-align:top;">big</td><td style="vertical-align:top;">:</td><td><div>False</div></td></tr><tr><td style="font-weight:bold;vertical-align:top;">icon</td><td style="vertical-align:top;">:</td><td><div>meh-o</div></td></tr><tr><td style="font-weight:bold;vertical-align:top;">libelle</td><td style="vertical-align:top;">:</td><td><div>abstention</div></td></tr><tr><td style="font-weight:bold;vertical-align:top;">n</td><td style="vertical-align:top;">:</td><td><div>1</div></td></tr><tr><td style="font-weight:bold;vertical-align:top;">pct</td><td style="vertical-align:top;">:</td><td><div>0.0</div></td></tr><tr><td style="font-weight:bold;vertical-align:top;">position</td><td style="vertical-align:top;">:</td><td><div>abstention</div></td></tr></table></div></td></tr></table></div></td></tr><tr><td style="font-weight:bold;vertical-align:top;">stats_total</td><td style="vertical-align:top;">:</td><td><div><table><tr><td><div><table><tr><td style="font-weight:bold;vertical-align:top;">class</td><td style="vertical-align:top;">:</td><td><div>pct</div></td></tr><tr><td style="font-weight:bold;vertical-align:top;">icon</td><td style="vertical-align:top;">:</td><td><div>thumbs-up</div></td></tr><tr><td style="font-weight:bold;vertical-align:top;">libelle</td><td style="vertical-align:top;">:</td><td><div>votes pour</div></td></tr><tr><td style="font-weight:bold;vertical-align:top;">n</td><td style="vertical-align:top;">:</td><td><div>353</div></td></tr><tr><td style="font-weight:bold;vertical-align:top;">pct</td><td style="vertical-align:top;">:</td><td><div>55.0</div></td></tr><tr><td style="font-weight:bold;vertical-align:top;">position</td><td style="vertical-align:top;">:</td><td><div>pour</div></td></tr></table></div></td></tr><tr><td><div><table><tr><td style="font-weight:bold;vertical-align:top;">class</td><td style="vertical-align:top;">:</td><td><div>pct</div></td></tr><tr><td style="font-weight:bold;vertical-align:top;">icon</td><td style="vertical-align:top;">:</td><td><div>thumbs-down</div></td></tr><tr><td style="font-weight:bold;vertical-align:top;">libelle</td><td style="vertical-align:top;">:</td><td><div>votes contre</div></td></tr><tr><td style="font-weight:bold;vertical-align:top;">n</td><td style="vertical-align:top;">:</td><td><div>73</div></td></tr><tr><td style="font-weight:bold;vertical-align:top;">pct</td><td style="vertical-align:top;">:</td><td><div>11.0</div></td></tr><tr><td style="font-weight:bold;vertical-align:top;">position</td><td style="vertical-align:top;">:</td><td><div>contre</div></td></tr></table></div></td></tr><tr><td><div><table><tr><td style="font-weight:bold;vertical-align:top;">class</td><td style="vertical-align:top;">:</td><td><div>pct</div></td></tr><tr><td style="font-weight:bold;vertical-align:top;">icon</td><td style="vertical-align:top;">:</td><td><div>meh-o</div></td></tr><tr><td style="font-weight:bold;vertical-align:top;">libelle</td><td style="vertical-align:top;">:</td><td><div>abstention</div></td></tr><tr><td style="font-weight:bold;vertical-align:top;">n</td><td style="vertical-align:top;">:</td><td><div>1</div></td></tr><tr><td style="font-weight:bold;vertical-align:top;">pct</td><td style="vertical-align:top;">:</td><td><div>0.0</div></td></tr><tr><td style="font-weight:bold;vertical-align:top;">position</td><td style="vertical-align:top;">:</td><td><div>abstention</div></td></tr></table></div></td></tr><tr><td><div><table><tr><td style="font-weight:bold;vertical-align:top;">class</td><td style="vertical-align:top;">:</td><td><div>pct</div></td></tr><tr><td style="font-weight:bold;vertical-align:top;">icon</td><td style="vertical-align:top;">:</td><td><div>plane</div></td></tr><tr><td style="font-weight:bold;vertical-align:top;">libelle</td><td style="vertical-align:top;">:</td><td><div>absents</div></td></tr><tr><td style="font-weight:bold;vertical-align:top;">n</td><td style="vertical-align:top;">:</td><td><div>219</div></td></tr><tr><td style="font-weight:bold;vertical-align:top;">pct</td><td style="vertical-align:top;">:</td><td><div>34.0</div></td></tr><tr><td style="font-weight:bold;vertical-align:top;">position</td><td style="vertical-align:top;">:</td><td><div>absent</div></td></tr></table></div></td></tr><tr><td><div><table><tr><td style="font-weight:bold;vertical-align:top;">class</td><td style="vertical-align:top;">:</td><td><div>pct</div></td></tr><tr><td style="font-weight:bold;vertical-align:top;">icon</td><td style="vertical-align:top;">:</td><td><div>ban</div></td></tr><tr><td style="font-weight:bold;vertical-align:top;">libelle</td><td style="vertical-align:top;">:</td><td><div>non votants (justifi\xc3\xa9s)</div></td></tr><tr><td style="font-weight:bold;vertical-align:top;">n</td><td style="vertical-align:top;">:</td><td><div>0</div></td></tr><tr><td style="font-weight:bold;vertical-align:top;">pct</td><td style="vertical-align:top;">:</td><td><div>0.0</div></td></tr><tr><td style="font-weight:bold;vertical-align:top;">position</td><td style="vertical-align:top;">:</td><td><div>nonVotant</div></td></tr></table></div></td></tr></table></div></td></tr></table></div></td></tr><tr><td><div><table><tr><td style="font-weight:bold;vertical-align:top;">cercles</td><td style="vertical-align:top;">:</td><td><div><table></table></div></td></tr><tr><td style="font-weight:bold;vertical-align:top;">key</td><td style="vertical-align:top;">:</td><td><div>PO730952</div></td></tr><tr><td style="font-weight:bold;vertical-align:top;">label</td><td style="vertical-align:top;">:</td><td><div>Les Constructifs : r\xc3\xa9publicains, UDI, ind\xc3\xa9pendants</div></td></tr><tr><td style="font-weight:bold;vertical-align:top;">nb</td><td style="vertical-align:top;">:</td><td><div><table><tr><td style="font-weight:bold;vertical-align:top;">absent</td><td style="vertical-align:top;">:</td><td><div>1099</div></td></tr><tr><td style="font-weight:bold;vertical-align:top;">abstention</td><td style="vertical-align:top;">:</td><td><div>34</div></td></tr><tr><td style="font-weight:bold;vertical-align:top;">contre</td><td style="vertical-align:top;">:</td><td><div>160</div></td></tr><tr><td style="font-weight:bold;vertical-align:top;">nonVotant</td><td style="vertical-align:top;">:</td><td><div>0</div></td></tr><tr><td style="font-weight:bold;vertical-align:top;">pour</td><td style="vertical-align:top;">:</td><td><div>37</div></td></tr></table></div></td></tr><tr><td style="font-weight:bold;vertical-align:top;">participation</td><td style="vertical-align:top;">:</td><td><div>17.0</div></td></tr><tr><td style="font-weight:bold;vertical-align:top;">stats</td><td style="vertical-align:top;">:</td><td><div><table><tr><td><div><table><tr><td style="font-weight:bold;vertical-align:top;">class</td><td style="vertical-align:top;">:</td><td><div>pct</div></td></tr><tr><td style="font-weight:bold;vertical-align:top;">icon</td><td style="vertical-align:top;">:</td><td><div>thumbs-up</div></td></tr><tr><td style="font-weight:bold;vertical-align:top;">libelle</td><td style="vertical-align:top;">:</td><td><div>votes pour</div></td></tr><tr><td style="font-weight:bold;vertical-align:top;">n</td><td style="vertical-align:top;">:</td><td><div>37</div></td></tr><tr><td style="font-weight:bold;vertical-align:top;">pct</td><td style="vertical-align:top;">:</td><td><div>3.0</div></td></tr><tr><td style="font-weight:bold;vertical-align:top;">position</td><td style="vertical-align:top;">:</td><td><div>pour</div></td></tr></table></div></td></tr><tr><td><div><table><tr><td style="font-weight:bold;vertical-align:top;">class</td><td style="vertical-align:top;">:</td><td><div>pct</div></td></tr><tr><td style="font-weight:bold;vertical-align:top;">icon</td><td style="vertical-align:top;">:</td><td><div>thumbs-down</div></td></tr><tr><td style="font-weight:bold;vertical-align:top;">libelle</td><td style="vertical-align:top;">:</td><td><div>votes contre</div></td></tr><tr><td style="font-weight:bold;vertical-align:top;">n</td><td style="vertical-align:top;">:</td><td><div>160</div></td></tr><tr><td style="font-weight:bold;vertical-align:top;">pct</td><td style="vertical-align:top;">:</td><td><div>12.0</div></td></tr><tr><td style="font-weight:bold;vertical-align:top;">position</td><td style="vertical-align:top;">:</td><td><div>contre</div></td></tr></table></div></td></tr><tr><td><div><table><tr><td style="font-weight:bold;vertical-align:top;">class</td><td style="vertical-align:top;">:</td><td><div>pct</div></td></tr><tr><td style="font-weight:bold;vertical-align:top;">icon</td><td style="vertical-align:top;">:</td><td><div>meh-o</div></td></tr><tr><td style="font-weight:bold;vertical-align:top;">libelle</td><td style="vertical-align:top;">:</td><td><div>abstention</div></td></tr><tr><td style="font-weight:bold;vertical-align:top;">n</td><td style="vertical-align:top;">:</td><td><div>34</div></td></tr><tr><td style="font-weight:bold;vertical-align:top;">pct</td><td style="vertical-align:top;">:</td><td><div>3.0</div></td></tr><tr><td style="font-weight:bold;vertical-align:top;">position</td><td style="vertical-align:top;">:</td><td><div>abstention</div></td></tr></table></div></td></tr><tr><td><div><table><tr><td style="font-weight:bold;vertical-align:top;">class</td><td style="vertical-align:top;">:</td><td><div>pct</div></td></tr><tr><td style="font-weight:bold;vertical-align:top;">icon</td><td style="vertical-align:top;">:</td><td><div>plane</div></td></tr><tr><td style="font-weight:bold;vertical-align:top;">libelle</td><td style="vertical-align:top;">:</td><td><div>absents</div></td></tr><tr><td style="font-weight:bold;vertical-align:top;">n</td><td style="vertical-align:top;">:</td><td><div>1099</div></td></tr><tr><td style="font-weight:bold;vertical-align:top;">pct</td><td style="vertical-align:top;">:</td><td><div>83.0</div></td></tr><tr><td style="font-weight:bold;vertical-align:top;">position</td><td style="vertical-align:top;">:</td><td><div>absent</div></td></tr></table></div></td></tr><tr><td><div><table><tr><td style="font-weight:bold;vertical-align:top;">class</td><td style="vertical-align:top;">:</td><td><div>pct</div></td></tr><tr><td style="font-weight:bold;vertical-align:top;">icon</td><td style="vertical-align:top;">:</td><td><div>ban</div></td></tr><tr><td style="font-weight:bold;vertical-align:top;">libelle</td><td style="vertical-align:top;">:</td><td><div>non votants (justifi\xc3\xa9s)</div></td></tr><tr><td style="font-weight:bold;vertical-align:top;">n</td><td style="vertical-align:top;">:</td><td><div>0</div></td></tr><tr><td style="font-weight:bold;vertical-align:top;">pct</td><td style="vertical-align:top;">:</td><td><div>0.0</div></td></tr><tr><td style="font-weight:bold;vertical-align:top;">position</td><td style="vertical-align:top;">:</td><td><div>nonVotant</div></td></tr></table></div></td></tr></table></div></td></tr><tr><td style="font-weight:bold;vertical-align:top;">stats_exprime</td><td style="vertical-align:top;">:</td><td><div><table><tr><td><div><table><tr><td style="font-weight:bold;vertical-align:top;">big</td><td style="vertical-align:top;">:</td><td><div>False</div></td></tr><tr><td style="font-weight:bold;vertical-align:top;">icon</td><td style="vertical-align:top;">:</td><td><div>thumbs-up</div></td></tr><tr><td style="font-weight:bold;vertical-align:top;">libelle</td><td style="vertical-align:top;">:</td><td><div>votes pour</div></td></tr><tr><td style="font-weight:bold;vertical-align:top;">n</td><td style="vertical-align:top;">:</td><td><div>37</div></td></tr><tr><td style="font-weight:bold;vertical-align:top;">pct</td><td style="vertical-align:top;">:</td><td><div>16.0</div></td></tr><tr><td style="font-weight:bold;vertical-align:top;">position</td><td style="vertical-align:top;">:</td><td><div>pour</div></td></tr></table></div></td></tr><tr><td><div><table><tr><td style="font-weight:bold;vertical-align:top;">big</td><td style="vertical-align:top;">:</td><td><div>False</div></td></tr><tr><td style="font-weight:bold;vertical-align:top;">icon</td><td style="vertical-align:top;">:</td><td><div>thumbs-down</div></td></tr><tr><td style="font-weight:bold;vertical-align:top;">libelle</td><td style="vertical-align:top;">:</td><td><div>votes contre</div></td></tr><tr><td style="font-weight:bold;vertical-align:top;">n</td><td style="vertical-align:top;">:</td><td><div>160</div></td></tr><tr><td style="font-weight:bold;vertical-align:top;">pct</td><td style="vertical-align:top;">:</td><td><div>69.0</div></td></tr><tr><td style="font-weight:bold;vertical-align:top;">position</td><td style="vertical-align:top;">:</td><td><div>contre</div></td></tr></table></div></td></tr><tr><td><div><table><tr><td style="font-weight:bold;vertical-align:top;">big</td><td style="vertical-align:top;">:</td><td><div>False</div></td></tr><tr><td style="font-weight:bold;vertical-align:top;">icon</td><td style="vertical-align:top;">:</td><td><div>meh-o</div></td></tr><tr><td style="font-weight:bold;vertical-align:top;">libelle</td><td style="vertical-align:top;">:</td><td><div>abstention</div></td></tr><tr><td style="font-weight:bold;vertical-align:top;">n</td><td style="vertical-align:top;">:</td><td><div>34</div></td></tr><tr><td style="font-weight:bold;vertical-align:top;">pct</td><td style="vertical-align:top;">:</td><td><div>15.0</div></td></tr><tr><td style="font-weight:bold;vertical-align:top;">position</td><td style="vertical-align:top;">:</td><td><div>abstention</div></td></tr></table></div></td></tr></table></div></td></tr><tr><td style="font-weight:bold;vertical-align:top;">stats_total</td><td style="vertical-align:top;">:</td><td><div><table><tr><td><div><table><tr><td style="font-weight:bold;vertical-align:top;">class</td><td style="vertical-align:top;">:</td><td><div>pct</div></td></tr><tr><td style="font-weight:bold;vertical-align:top;">icon</td><td style="vertical-align:top;">:</td><td><div>thumbs-up</div></td></tr><tr><td style="font-weight:bold;vertical-align:top;">libelle</td><td style="vertical-align:top;">:</td><td><div>votes pour</div></td></tr><tr><td style="font-weight:bold;vertical-align:top;">n</td><td style="vertical-align:top;">:</td><td><div>37</div></td></tr><tr><td style="font-weight:bold;vertical-align:top;">pct</td><td style="vertical-align:top;">:</td><td><div>3.0</div></td></tr><tr><td style="font-weight:bold;vertical-align:top;">position</td><td style="vertical-align:top;">:</td><td><div>pour</div></td></tr></table></div></td></tr><tr><td><div><table><tr><td style="font-weight:bold;vertical-align:top;">class</td><td style="vertical-align:top;">:</td><td><div>pct</div></td></tr><tr><td style="font-weight:bold;vertical-align:top;">icon</td><td style="vertical-align:top;">:</td><td><div>thumbs-down</div></td></tr><tr><td style="font-weight:bold;vertical-align:top;">libelle</td><td style="vertical-align:top;">:</td><td><div>votes contre</div></td></tr><tr><td style="font-weight:bold;vertical-align:top;">n</td><td style="vertical-align:top;">:</td><td><div>160</div></td></tr><tr><td style="font-weight:bold;vertical-align:top;">pct</td><td style="vertical-align:top;">:</td><td><div>12.0</div></td></tr><tr><td style="font-weight:bold;vertical-align:top;">position</td><td style="vertical-align:top;">:</td><td><div>contre</div></td></tr></table></div></td></tr><tr><td><div><table><tr><td style="font-weight:bold;vertical-align:top;">class</td><td style="vertical-align:top;">:</td><td><div>pct</div></td></tr><tr><td style="font-weight:bold;vertical-align:top;">icon</td><td style="vertical-align:top;">:</td><td><div>meh-o</div></td></tr><tr><td style="font-weight:bold;vertical-align:top;">libelle</td><td style="vertical-align:top;">:</td><td><div>abstention</div></td></tr><tr><td style="font-weight:bold;vertical-align:top;">n</td><td style="vertical-align:top;">:</td><td><div>34</div></td></tr><tr><td style="font-weight:bold;vertical-align:top;">pct</td><td style="vertical-align:top;">:</td><td><div>3.0</div></td></tr><tr><td style="font-weight:bold;vertical-align:top;">position</td><td style="vertical-align:top;">:</td><td><div>abstention</div></td></tr></table></div></td></tr><tr><td><div><table><tr><td style="font-weight:bold;vertical-align:top;">class</td><td style="vertical-align:top;">:</td><td><div>pct</div></td></tr><tr><td style="font-weight:bold;vertical-align:top;">icon</td><td style="vertical-align:top;">:</td><td><div>plane</div></td></tr><tr><td style="font-weight:bold;vertical-align:top;">libelle</td><td style="vertical-align:top;">:</td><td><div>absents</div></td></tr><tr><td style="font-weight:bold;vertical-align:top;">n</td><td style="vertical-align:top;">:</td><td><div>1099</div></td></tr><tr><td style="font-weight:bold;vertical-align:top;">pct</td><td style="vertical-align:top;">:</td><td><div>83.0</div></td></tr><tr><td style="font-weight:bold;vertical-align:top;">position</td><td style="vertical-align:top;">:</td><td><div>absent</div></td></tr></table></div></td></tr><tr><td><div><table><tr><td style="font-weight:bold;vertical-align:top;">class</td><td style="vertical-align:top;">:</td><td><div>pct</div></td></tr><tr><td style="font-weight:bold;vertical-align:top;">icon</td><td style="vertical-align:top;">:</td><td><div>ban</div></td></tr><tr><td style="font-weight:bold;vertical-align:top;">libelle</td><td style="vertical-align:top;">:</td><td><div>non votants (justifi\xc3\xa9s)</div></td></tr><tr><td style="font-weight:bold;vertical-align:top;">n</td><td style="vertical-align:top;">:</td><td><div>0</div></td></tr><tr><td style="font-weight:bold;vertical-align:top;">pct</td><td style="vertical-align:top;">:</td><td><div>0.0</div></td></tr><tr><td style="font-weight:bold;vertical-align:top;">position</td><td style="vertical-align:top;">:</td><td><div>nonVotant</div></td></tr></table></div></td></tr></table></div></td></tr></table></div></td></tr></table></div></td></tr></table></div>'
tRp98
sS'etype'
p99
S"<type 'exceptions.NameError'>"
p100
sS'date'
p101
S'Fri Jul 14 21:19:19 2017'
p102
sS'response'
p103
g59
(S'sy?\x00\x00<div><table><tr><td style="font-weight:bold;vertical-align:top;">body</td><td style="vertical-align:top;">:</td><td><div>&lt;cStringIO.StringO object at 0x7f4713058298&gt;</div></td></tr><tr><td style="font-weight:bold;vertical-align:top;">cookies</td><td style="vertical-align:top;">:</td><td><div><table><tr><td style="font-weight:bold;vertical-align:top;">session_id_obsas_dev</td><td style="vertical-align:top;">:</td><td><div>83.203.54.41-fc7640bd-5607-4d0d-830a-27d2371bbd50<table><tr><td style="font-weight:bold;vertical-align:top;">comment</td><td style="vertical-align:top;">:</td><td><div></div></td></tr><tr><td style="font-weight:bold;vertical-align:top;">domain</td><td style="vertical-align:top;">:</td><td><div></div></td></tr><tr><td style="font-weight:bold;vertical-align:top;">expires</td><td style="vertical-align:top;">:</td><td><div></div></td></tr><tr><td style="font-weight:bold;vertical-align:top;">httponly</td><td style="vertical-align:top;">:</td><td><div></div></td></tr><tr><td style="font-weight:bold;vertical-align:top;">max-age</td><td style="vertical-align:top;">:</td><td><div></div></td></tr><tr><td style="font-weight:bold;vertical-align:top;">path</td><td style="vertical-align:top;">:</td><td><div>/</div></td></tr><tr><td style="font-weight:bold;vertical-align:top;">secure</td><td style="vertical-align:top;">:</td><td><div></div></td></tr><tr><td style="font-weight:bold;vertical-align:top;">version</td><td style="vertical-align:top;">:</td><td><div></div></td></tr></table></div></td></tr></table></div></td></tr><tr><td style="font-weight:bold;vertical-align:top;">delimiters</td><td style="vertical-align:top;">:</td><td><div><table><tr><td><div>{{</div></td></tr><tr><td><div>}}</div></td></tr></table></div></td></tr><tr><td style="font-weight:bold;vertical-align:top;">files</td><td style="vertical-align:top;">:</td><td><div><table></table></div></td></tr><tr><td style="font-weight:bold;vertical-align:top;">flash</td><td style="vertical-align:top;">:</td><td><div></div></td></tr><tr><td style="font-weight:bold;vertical-align:top;">form_label_separator</td><td style="vertical-align:top;">:</td><td><div></div></td></tr><tr><td style="font-weight:bold;vertical-align:top;">formstyle</td><td style="vertical-align:top;">:</td><td><div>bootstrap3_inline</div></td></tr><tr><td style="font-weight:bold;vertical-align:top;">generic_patterns</td><td style="vertical-align:top;">:</td><td><div><table></table></div></td></tr><tr><td style="font-weight:bold;vertical-align:top;">google_analytics_id</td><td style="vertical-align:top;">:</td><td><div>None</div></td></tr><tr><td style="font-weight:bold;vertical-align:top;">headers</td><td style="vertical-align:top;">:</td><td><div><table><tr><td style="font-weight:bold;vertical-align:top;">X-Powered-By</td><td style="vertical-align:top;">:</td><td><div>web2py</div></td></tr></table></div></td></tr><tr><td style="font-weight:bold;vertical-align:top;">logo</td><td style="vertical-align:top;">:</td><td><div><a class="navbar-brand" href="http://www.web2py.com/" id="web2py-logo"><b>web<span>2</span>py</b>&trade;&nbsp;</a></div></td></tr><tr><td style="font-weight:bold;vertical-align:top;">menu</td><td style="vertical-align:top;">:</td><td><div><table><tr><td><div><table><tr><td><div>Accueil</div></td></tr><tr><td><div>False</div></td></tr><tr><td><div>/obsas_dev</div></td></tr><tr><td><div><table></table></div></td></tr></table></div></td></tr><tr><td><div><table><tr><td><div>Mes sites</div></td></tr><tr><td><div>False</div></td></tr><tr><td><div>/admin/site</div></td></tr></table></div></td></tr><tr><td><div><table><tr><td><div>Cette Appli</div></td></tr><tr><td><div>False</div></td></tr><tr><td><div>#</div></td></tr><tr><td><div><table><tr><td><div><table><tr><td><div>Design</div></td></tr><tr><td><div>False</div></td></tr><tr><td><div>/admin/design/obsas_dev</div></td></tr></table></div></td></tr><tr><td><div><li class="divider"></li></div></td></tr><tr><td><div><table><tr><td><div>Contr\xc3\xb4leur</div></td></tr><tr><td><div>False</div></td></tr><tr><td><div>/admin/edit/obsas_dev/controllers/analyse.py</div></td></tr></table></div></td></tr><tr><td><div><table><tr><td><div>Pr\xc3\xa9sentation</div></td></tr><tr><td><div>False</div></td></tr><tr><td><div>/admin/edit/obsas_dev/views/analyse/index.html</div></td></tr></table></div></td></tr><tr><td><div><table><tr><td><div>Mod\xc3\xa8le BD</div></td></tr><tr><td><div>False</div></td></tr><tr><td><div>/admin/edit/obsas_dev/models/db.py</div></td></tr></table></div></td></tr><tr><td><div><table><tr><td><div>Menu mod\xc3\xa8le</div></td></tr><tr><td><div>False</div></td></tr><tr><td><div>/admin/edit/obsas_dev/models/menu.py</div></td></tr></table></div></td></tr><tr><td><div><table><tr><td><div>Config.ini</div></td></tr><tr><td><div>False</div></td></tr><tr><td><div>/admin/edit/obsas_dev/private/appconfig.ini</div></td></tr></table></div></td></tr><tr><td><div><table><tr><td><div>Mise en page</div></td></tr><tr><td><div>False</div></td></tr><tr><td><div>/admin/edit/obsas_dev/views/layout.html</div></td></tr></table></div></td></tr><tr><td><div><table><tr><td><div>Feuille de style</div></td></tr><tr><td><div>False</div></td></tr><tr><td><div>/admin/edit/obsas_dev/static/css/web2py-bootstrap3.css</div></td></tr></table></div></td></tr><tr><td><div><table><tr><td><div>base de donn\xc3\xa9es</div></td></tr><tr><td><div>False</div></td></tr><tr><td><div>/obsas_dev/appadmin</div></td></tr></table></div></td></tr><tr><td><div><table><tr><td><div>Erreurs</div></td></tr><tr><td><div>False</div></td></tr><tr><td><div>/admin/errors/obsas_dev</div></td></tr></table></div></td></tr><tr><td><div><table><tr><td><div>\xc3\x80 propos</div></td></tr><tr><td><div>False</div></td></tr><tr><td><div>/admin/about/obsas_dev</div></td></tr></table></div></td></tr></table></div></td></tr></table></div></td></tr><tr><td><div><table><tr><td><div>web2py.com</div></td></tr><tr><td><div>False</div></td></tr><tr><td><div>#</div></td></tr><tr><td><div><table><tr><td><div><table><tr><td><div>T\xc3\xa9l\xc3\xa9chargement</div></td></tr><tr><td><div>False</div></td></tr><tr><td><div>http://www.web2py.com/examples/default/download</div></td></tr></table></div></td></tr><tr><td><div><table><tr><td><div>Soutien</div></td></tr><tr><td><div>False</div></td></tr><tr><td><div>http://www.web2py.com/examples/default/support</div></td></tr></table></div></td></tr><tr><td><div><table><tr><td><div>D\xc3\xa9mo</div></td></tr><tr><td><div>False</div></td></tr><tr><td><div>http://web2py.com/demo_admin</div></td></tr></table></div></td></tr><tr><td><div><table><tr><td><div>Exemples Rapides</div></td></tr><tr><td><div>False</div></td></tr><tr><td><div>http://web2py.com/examples/default/examples</div></td></tr></table></div></td></tr><tr><td><div><table><tr><td><div>FAQ</div></td></tr><tr><td><div>False</div></td></tr><tr><td><div>http://web2py.com/AlterEgo</div></td></tr></table></div></td></tr><tr><td><div><table><tr><td><div>Vid\xc3\xa9os</div></td></tr><tr><td><div>False</div></td></tr><tr><td><div>http://www.web2py.com/examples/default/videos/</div></td></tr></table></div></td></tr><tr><td><div><table><tr><td><div>Applications gratuites</div></td></tr><tr><td><div>False</div></td></tr><tr><td><div>http://web2py.com/appliances</div></td></tr></table></div></td></tr><tr><td><div><table><tr><td><div>Plugiciels</div></td></tr><tr><td><div>False</div></td></tr><tr><td><div>http://web2py.com/plugins</div></td></tr></table></div></td></tr><tr><td><div><table><tr><td><div>Recettes</div></td></tr><tr><td><div>False</div></td></tr><tr><td><div>http://web2pyslices.com/</div></td></tr></table></div></td></tr></table></div></td></tr></table></div></td></tr><tr><td><div><table><tr><td><div>Documentation</div></td></tr><tr><td><div>False</div></td></tr><tr><td><div>#</div></td></tr><tr><td><div><table><tr><td><div><table><tr><td><div>Online book</div></td></tr><tr><td><div>False</div></td></tr><tr><td><div>http://www.web2py.com/book</div></td></tr></table></div></td></tr><tr><td><div><li class="divider"></li></div></td></tr><tr><td><div><table><tr><td><div>Pr\xc3\xa9face</div></td></tr><tr><td><div>False</div></td></tr><tr><td><div>http://www.web2py.com/book/default/chapter/00</div></td></tr></table></div></td></tr><tr><td><div><table><tr><td><div>Pr\xc3\xa9sentation</div></td></tr><tr><td><div>False</div></td></tr><tr><td><div>http://www.web2py.com/book/default/chapter/01</div></td></tr></table></div></td></tr><tr><td><div><table><tr><td><div>Python</div></td></tr><tr><td><div>False</div></td></tr><tr><td><div>http://www.web2py.com/book/default/chapter/02</div></td></tr></table></div></td></tr><tr><td><div><table><tr><td><div>Pr\xc3\xa9sentation</div></td></tr><tr><td><div>False</div></td></tr><tr><td><div>http://www.web2py.com/book/default/chapter/03</div></td></tr></table></div></td></tr><tr><td><div><table><tr><td><div>Le noyau</div></td></tr><tr><td><div>False</div></td></tr><tr><td><div>http://www.web2py.com/book/default/chapter/04</div></td></tr></table></div></td></tr><tr><td><div><table><tr><td><div>Les Vues</div></td></tr><tr><td><div>False</div></td></tr><tr><td><div>http://www.web2py.com/book/default/chapter/05</div></td></tr></table></div></td></tr><tr><td><div><table><tr><td><div>base de donn\xc3\xa9es</div></td></tr><tr><td><div>False</div></td></tr><tr><td><div>http://www.web2py.com/book/default/chapter/06</div></td></tr></table></div></td></tr><tr><td><div><table><tr><td><div>Formulaires et Validateurs</div></td></tr><tr><td><div>False</div></td></tr><tr><td><div>http://www.web2py.com/book/default/chapter/07</div></td></tr></table></div></td></tr><tr><td><div><table><tr><td><div>Courriel et texto</div></td></tr><tr><td><div>False</div></td></tr><tr><td><div>http://www.web2py.com/book/default/chapter/08</div></td></tr></table></div></td></tr><tr><td><div><table><tr><td><div>Contr\xc3\xb4le d\'acc\xc3\xa8s</div></td></tr><tr><td><div>False</div></td></tr><tr><td><div>http://www.web2py.com/book/default/chapter/09</div></td></tr></table></div></td></tr><tr><td><div><table><tr><td><div>Services</div></td></tr><tr><td><div>False</div></td></tr><tr><td><div>http://www.web2py.com/book/default/chapter/10</div></td></tr></table></div></td></tr><tr><td><div><table><tr><td><div>Recettes Ajax</div></td></tr><tr><td><div>False</div></td></tr><tr><td><div>http://www.web2py.com/book/default/chapter/11</div></td></tr></table></div></td></tr><tr><td><div><table><tr><td><div>Composants et Plugiciels</div></td></tr><tr><td><div>False</div></td></tr><tr><td><div>http://www.web2py.com/book/default/chapter/12</div></td></tr></table></div></td></tr><tr><td><div><table><tr><td><div>Recettes de d\xc3\xa9ploiement</div></td></tr><tr><td><div>False</div></td></tr><tr><td><div>http://www.web2py.com/book/default/chapter/13</div></td></tr></table></div></td></tr><tr><td><div><table><tr><td><div>Autres recettes</div></td></tr><tr><td><div>False</div></td></tr><tr><td><div>http://www.web2py.com/book/default/chapter/14</div></td></tr></table></div></td></tr><tr><td><div><table><tr><td><div>Aider web2py</div></td></tr><tr><td><div>False</div></td></tr><tr><td><div>http://www.web2py.com/book/default/chapter/15</div></td></tr></table></div></td></tr><tr><td><div><table><tr><td><div>Buy web2py\'s book</div></td></tr><tr><td><div>False</div></td></tr><tr><td><div>http://stores.lulu.com/web2py</div></td></tr></table></div></td></tr></table></div></td></tr></table></div></td></tr><tr><td><div><table><tr><td><div>Communaut\xc3\xa9</div></td></tr><tr><td><div>False</div></td></tr><tr><td><div>None</div></td></tr><tr><td><div><table><tr><td><div><table><tr><td><div>Groupes</div></td></tr><tr><td><div>False</div></td></tr><tr><td><div>http://www.web2py.com/examples/default/usergroups</div></td></tr></table></div></td></tr><tr><td><div><table><tr><td><div>Twitter</div></td></tr><tr><td><div>False</div></td></tr><tr><td><div>http://twitter.com/web2py</div></td></tr></table></div></td></tr><tr><td><div><table><tr><td><div>Clavardage en direct</div></td></tr><tr><td><div>False</div></td></tr><tr><td><div>http://webchat.freenode.net/?channels=web2py</div></td></tr></table></div></td></tr></table></div></td></tr></table></div></td></tr></table></div></td></tr><tr><td style="font-weight:bold;vertical-align:top;">meta</td><td style="vertical-align:top;">:</td><td><div><table><tr><td style="font-weight:bold;vertical-align:top;">author</td><td style="vertical-align:top;">:</td><td><div>Your Name &lt;you@example.com&gt;</div></td></tr><tr><td style="font-weight:bold;vertical-align:top;">description</td><td style="vertical-align:top;">:</td><td><div>a cool new app</div></td></tr><tr><td style="font-weight:bold;vertical-align:top;">generator</td><td style="vertical-align:top;">:</td><td><div>Web2py Web Framework</div></td></tr><tr><td style="font-weight:bold;vertical-align:top;">keywords</td><td style="vertical-align:top;">:</td><td><div><table><tr><td><div>web2py</div></td></tr><tr><td><div>python</div></td></tr><tr><td><div>framework</div></td></tr></table></div></td></tr></table></div></td></tr><tr><td style="font-weight:bold;vertical-align:top;">models_to_run</td><td style="vertical-align:top;">:</td><td><div><table><tr><td><div>^\\w+\\.py$</div></td></tr><tr><td><div>^analyse/\\w+\\.py$</div></td></tr><tr><td><div>^analyse/index/\\w+\\.py$</div></td></tr></table></div></td></tr><tr><td style="font-weight:bold;vertical-align:top;">postprocessing</td><td style="vertical-align:top;">:</td><td><div><table></table></div></td></tr><tr><td style="font-weight:bold;vertical-align:top;">session_client</td><td style="vertical-align:top;">:</td><td><div>83.203.54.41</div></td></tr><tr><td style="font-weight:bold;vertical-align:top;">session_cookie_compression_level</td><td style="vertical-align:top;">:</td><td><div>None</div></td></tr><tr><td style="font-weight:bold;vertical-align:top;">session_cookie_expires</td><td style="vertical-align:top;">:</td><td><div>None</div></td></tr><tr><td style="font-weight:bold;vertical-align:top;">session_data_name</td><td style="vertical-align:top;">:</td><td><div>session_data_obsas_dev</div></td></tr><tr><td style="font-weight:bold;vertical-align:top;">session_file</td><td style="vertical-align:top;">:</td><td><div>&lt;open file &#x27;/home/www-data/web2py/applications/obsas_dev/sessions/0df/120/83.203.54.41-fc7640bd-5607-4d0d-830a-27d2371bbd50&#x27;, mode &#x27;rb+&#x27; at 0x7f4713041270&gt;</div></td></tr><tr><td style="font-weight:bold;vertical-align:top;">session_filename</td><td style="vertical-align:top;">:</td><td><div>/home/www-data/web2py/applications/obsas_dev/sessions/83.203.54.41-fc7640bd-5607-4d0d-830a-27d2371bbd50</div></td></tr><tr><td style="font-weight:bold;vertical-align:top;">session_hash</td><td style="vertical-align:top;">:</td><td><div>aaa973a339b161946d0f7a768ba09bea</div></td></tr><tr><td style="font-weight:bold;vertical-align:top;">session_id</td><td style="vertical-align:top;">:</td><td><div>83.203.54.41-fc7640bd-5607-4d0d-830a-27d2371bbd50</div></td></tr><tr><td style="font-weight:bold;vertical-align:top;">session_id_name</td><td style="vertical-align:top;">:</td><td><div>session_id_obsas_dev</div></td></tr><tr><td style="font-weight:bold;vertical-align:top;">session_locked</td><td style="vertical-align:top;">:</td><td><div>True</div></td></tr><tr><td style="font-weight:bold;vertical-align:top;">session_masterapp</td><td style="vertical-align:top;">:</td><td><div>obsas_dev</div></td></tr><tr><td style="font-weight:bold;vertical-align:top;">session_new</td><td style="vertical-align:top;">:</td><td><div>False</div></td></tr><tr><td style="font-weight:bold;vertical-align:top;">session_storage_type</td><td style="vertical-align:top;">:</td><td><div>file</div></td></tr><tr><td style="font-weight:bold;vertical-align:top;">status</td><td style="vertical-align:top;">:</td><td><div>200</div></td></tr><tr><td style="font-weight:bold;vertical-align:top;">subtitle</td><td style="vertical-align:top;">:</td><td><div></div></td></tr><tr><td style="font-weight:bold;vertical-align:top;">title</td><td style="vertical-align:top;">:</td><td><div>Obsas Dev</div></td></tr><tr><td style="font-weight:bold;vertical-align:top;">view</td><td style="vertical-align:top;">:</td><td><div>analyse/index.html</div></td></tr></table></div>'
tRp104
sS'locals'
p105
(dp106
S'Service'
p107
S"<class 'gluon.tools.Service'>"
p108
sS'PY2'
p109
S'True'
p110
sS'OBJECT'
p111
S"<class 'gluon.html.OBJECT'>"
p112
sS'SQLDB'
p113
S"<class 'pydal.base.DAL'>"
p114
sS'sortfcts'
p115
S"{'participation': {'fct': <function <lambda>>, 'libelle': 'participation'}, 'pctabs': {'fct': <function <lambda>>, 'libelle': '% votes abstention'}, 'pctcontre': {'fct': <function <lambda>>, 'libelle': '% votes contre'}, 'pctpour': {'fct': <function <lambda>>, 'libelle': '% votes pour'}}"
p116
sg97
S"<Storage {'items': [{'stats': [{'libelle': 'vote...an'}], 'participation': 17.0}], '_secure': True}>"
p117
sS'LINK'
p118
S"<class 'gluon.html.LINK'>"
p119
sS'BR'
p120
S"<class 'gluon.html.BR'>"
p121
sS'local_import'
p122
S'<function <lambda>>'
p123
sS'OPTGROUP'
p124
S"<class 'gluon.html.OPTGROUP'>"
p125
sS'__package__'
p126
S'None'
p127
sS'PRE'
p128
S"<class 'gluon.html.PRE'>"
p129
sS'IS_INT_IN_RANGE'
p130
S"<class 'gluon.validators.IS_INT_IN_RANGE'>"
p131
sS'to_bytes'
p132
S'<function to_bytes>'
p133
sS'IS_LOWER'
p134
S"<class 'gluon.validators.IS_LOWER'>"
p135
sS'IS_STRONG'
p136
S"<class 'gluon.validators.IS_STRONG'>"
p137
sS'cache'
p138
S'<gluon.cache.Cache object>'
p139
sS'vide'
p140
S'<function vide>'
p141
sS'IS_IN_DB'
p142
S"<class 'gluon.validators.IS_IN_DB'>"
p143
sS'TAG'
p144
S'<gluon.html.__TAG__ object>'
p145
sS'SQLField'
p146
S"<class 'pydal.objects.Field'>"
p147
sS'mail'
p148
S'<gluon.tools.Mail object>'
p149
sS'BODY'
p150
S"<class 'gluon.html.BODY'>"
p151
sS'IS_DATE_IN_RANGE'
p152
S"<class 'gluon.validators.IS_DATE_IN_RANGE'>"
p153
sS'IFRAME'
p154
S"<class 'gluon.html.IFRAME'>"
p155
sS'URL'
p156
S'<function URL>'
p157
sS'__file__'
p158
S"'/home/www-data/web2py/applications/obsas_dev/views/analyse/index.html'"
p159
sS'db'
p160
S'<DAL uri="sqlite://storage.sqlite">'
p161
sS'auth'
p162
S'<gluon.tools.Auth object>'
p163
sS'P'
S"<class 'gluon.html.P'>"
p164
sS'TFOOT'
p165
S"<class 'gluon.html.TFOOT'>"
p166
sS'iteritems'
p167
S'<function <lambda>>'
p168
sS'XHTML'
p169
S"<class 'gluon.html.XHTML'>"
p170
sS'ON'
p171
g110
sS'OL'
p172
S"<class 'gluon.html.OL'>"
p173
sS'TEXTAREA'
p174
S"<class 'gluon.html.TEXTAREA'>"
p175
sS'MENU'
p176
S"<class 'gluon.html.MENU'>"
p177
sS'IS_IMAGE'
p178
S"<class 'gluon.validators.IS_IMAGE'>"
p179
sS'EM'
p180
S"<class 'gluon.html.EM'>"
p181
sS'CODE'
p182
S"<class 'gluon.html.CODE'>"
p183
sS'HTTP'
p184
S"<class 'gluon.http.HTTP'>"
p185
sS'locale'
p186
S"<module 'locale' from '/home/www-data/web2py/app...tions/obsas_dev/.pyenv/lib/python2.7/locale.pyc'>"
p187
sS'IS_DATETIME'
p188
S"<class 'gluon.validators.IS_DATETIME'>"
p189
sS'reduce'
p190
S'<built-in function reduce>'
p191
sS'STYLE'
p192
S"<class 'gluon.html.STYLE'>"
p193
sS'LABEL'
p194
S"<class 'gluon.html.LABEL'>"
p195
sS'CLEANUP'
p196
S"<class 'gluon.validators.CLEANUP'>"
p197
sS'plugins'
p198
S'<gluon.tools.PluginManager object>'
p199
sS'SELECT'
p200
S"<class 'gluon.html.SELECT'>"
p201
sS'CENTER'
p202
S"<class 'gluon.html.CENTER'>"
p203
sS'axes'
p204
S'{\'ages\': {\'elements\': \'G\', \'libelle\': "Classes d\'age", \'source\': {\'filtre\': {}, \'key\': \'classeage\', \'label\': \'classeage\', \'nom\': \'acteurs\'}, \'titre\': "Votes par classe d\'age", \'votes\': {\'field\': \'classeage\'}}, \'assemblee\': {\'elements\': \'G\', \'hidechart\': False, \'libelle\': \'Assembl\\xc3\\xa9e\', \'source\': {\'filtre\': {\'actif\': True, \'codeType\': \'ASSEMBLEE\'}, \'key\': \'libelleAbrev\', \'label\': \'libelle\', \'nom\': \'organes\'}, \'titre\': "Votes de l\'Assembl\\xc3\\xa9e", \'votes\': {\'field\': \'organes\'}}, \'commissions\': {\'elements\': \'G\', \'libelle\': \'Commissions\', \'source\': {\'filtre\': {\'$and\': [{\'$or\': [...]}, {\'actif\': True}]}, \'key\': \'uid\', \'label\': \'libelle\', \'nom\': \'organes\'}, \'titre\': \'Votes par Commissions\', \'votes\': {\'field\': \'commissions\'}}, \'csp\': {\'elements\': \'G\', \'libelle\': \'Cat\\xc3\\xa9gorie Socio-professionnelle\', \'source\': {\'filtre\': {}, \'key\': \'csp\', \'label\': \'csp\', \'nom\': \'acteurs\'}, \'titre\': \'Votes par Cat\\xc3\\xa9gorie Socio-professionnelle\', \'votes\': {\'field\': \'csp\'}}, \'departements\': {\'elements\': \'G\', \'libelle\': \'D\\xc3\\xa9partements\', \'source\': {\'filtre\': {}, \'key\': \'departement\', \'label\': \'departement\', \'nom\': \'acteurs\'}, \'titre\': \'Votes par D\\xc3\\xa9partements\', \'votes\': {\'field\': \'departement\'}}, \'depute\': {\'elements\': \'P\', \'libelle\': \'D\\xc3\\xa9putes\', \'source\': {\'filtre\': {}, \'key\': \'uid\', \'label\': \'nomprenom\', \'nom\': \'acteurs\'}, \'titre\': \'Votes par d\\xc3\\xa9put\\xc3\\xa9\', \'votes\': {\'field\': \'uid\'}}, \'groupes\': {\'elements\': \'G\', \'hidechart\': False, \'libelle\': \'Groupes\', \'source\': {\'filtre\': {\'actif\': True, \'codeType\': \'GP\'}, \'key\': \'uid\', \'label\': \'libelle\', \'nom\': \'organes\'}, \'titre\': \'Votes par Groupe parlementaire\', \'votes\': {\'field\': \'groupe\'}}, \'regions\': {\'elements\': \'G\', \'libelle\': \'R\\xc3\\xa9gions\', \'source\': {\'filtre\': {}, \'key\': \'region\', \'label\': \'region\', \'nom\': \'acteurs\'}, \'titre\': \'Votes par R\\xc3\\xa9gions\', \'votes\': {\'field\': \'region\'}}, \'sexe\': {\'elements\': \'G\', \'libelle\': \'Sexe\', \'source\': {\'filtre\': {}, \'key\': \'sexe\', \'label\': \'sexe\', \'nom\': \'acteurs\'}, \'titre\': \'Votes par sexe\', \'votes\': {\'field\': \'sexe\'}}}'
p205
sS'Auth'
p206
S"<class 'gluon.tools.Auth'>"
p207
sS'DEVELOPMENT_MENU'
p208
g110
sS'__builtins__'
p209
S"{'ArithmeticError': <type 'exceptions.ArithmeticError'>, 'AssertionError': <type 'exceptions.AssertionError'>, 'AttributeError': <type 'exceptions.AttributeError'>, 'BaseException': <type 'exceptions.BaseException'>, 'BufferError': <type 'exceptions.BufferError'>, 'BytesWarning': <type 'exceptions.BytesWarning'>, 'DeprecationWarning': <type 'exceptions.DeprecationWarning'>, 'EOFError': <type 'exceptions.EOFError'>, 'Ellipsis': Ellipsis, 'EnvironmentError': <type 'exceptions.EnvironmentError'>, ...}"
p210
sS'HTML'
p211
S"<class 'gluon.html.HTML'>"
p212
sS'SQLFORM'
p213
S"<class 'gluon.sqlhtml.SQLFORM'>"
p214
sS'LOAD'
p215
S'<function LOAD>'
p216
sS'redirect'
p217
S'<function redirect>'
p218
sS'FIELDSET'
p219
S"<class 'gluon.html.FIELDSET'>"
p220
sS'IS_EQUAL_TO'
p221
S"<class 'gluon.validators.IS_EQUAL_TO'>"
p222
sS'sortfcts_order'
p223
S"['participation', 'pctpour', 'pctcontre', 'pctabs']"
p224
sS'embed64'
p225
S'<function embed64>'
p226
sS'IS_LIST_OF'
p227
S"<class 'gluon.validators.IS_LIST_OF'>"
p228
sS'INPUT'
p229
S"<class 'gluon.html.INPUT'>"
p230
sS'EMBED'
p231
S"<class 'gluon.html.EMBED'>"
p232
sS'_'
S'<function _>'
p233
sS'myconf'
p234
S"{'forms': {'formstyle': 'bootstrap3_inline', 'se...': {'names': 'localhost:*, 127.0.0.1:*, *:*, *'}}"
p235
sS'H2'
p236
S"<class 'gluon.html.H2'>"
p237
sS'H3'
p238
S"<class 'gluon.html.H3'>"
p239
sS'AppConfig'
p240
S'<function AppConfig>'
p241
sS'H1'
p242
S"<class 'gluon.html.H1'>"
p243
sS'H6'
p244
S"<class 'gluon.html.H6'>"
p245
sS'H4'
p246
S"<class 'gluon.html.H4'>"
p247
sS'H5'
p248
S"<class 'gluon.html.H5'>"
p249
sS'UL'
p250
S"<class 'gluon.html.UL'>"
p251
sS'IS_UPPER'
p252
S"<class 'gluon.validators.IS_UPPER'>"
p253
sS'xmlescape'
p254
S'<function xmlescape>'
p255
sS'IS_TIME'
p256
S"<class 'gluon.validators.IS_TIME'>"
p257
sS'OPTION'
p258
S"<class 'gluon.html.OPTION'>"
p259
sS'TITLE'
p260
S"<class 'gluon.html.TITLE'>"
p261
sS'CRYPT'
p262
S"<class 'gluon.validators.CRYPT'>"
p263
sS'IS_EMPTY_OR'
p264
S"<class 'gluon.validators.IS_EMPTY_OR'>"
p265
sS'MARKMIN'
p266
S"<class 'gluon.html.MARKMIN'>"
p267
sS'__name__'
p268
S"'__restricted__'"
p269
sS'STRONG'
p270
S"<class 'gluon.html.STRONG'>"
p271
sS'COL'
p272
S"<class 'gluon.html.COL'>"
p273
sS'service'
p274
S'<gluon.tools.Service object>'
p275
sS'SCRIPT'
p276
S"<class 'gluon.html.SCRIPT'>"
p277
sS'HR'
p278
S"<class 'gluon.html.HR'>"
p279
sS'mdb'
p280
S"Database(MongoClient(host=['localhost:27017'], d...ss=dict, tz_aware=False, connect=True), u'obsas')"
p281
sS'TABLE'
p282
S"<class 'gluon.html.TABLE'>"
p283
sS'IS_IPV4'
p284
S"<class 'gluon.validators.IS_IPV4'>"
p285
sS'IS_LENGTH'
p286
S"<class 'gluon.validators.IS_LENGTH'>"
p287
sS'IS_IPV6'
p288
S"<class 'gluon.validators.IS_IPV6'>"
p289
sS'XML'
p290
S"<class 'gluon.html.XML'>"
p291
sS'B'
S"<class 'gluon.html.B'>"
p292
sS'IMG'
p293
S"<class 'gluon.html.IMG'>"
p294
sS'SQLTABLE'
p295
S"<class 'gluon.sqlhtml.SQLTABLE'>"
p296
sS'IS_MATCH'
p297
S"<class 'gluon.validators.IS_MATCH'>"
p298
sS'IS_ALPHANUMERIC'
p299
S"<class 'gluon.validators.IS_ALPHANUMERIC'>"
p300
sS'axes_order'
p301
S"['assemblee', 'groupes', 'commissions', 'regions', 'departements', 'ages', 'csp', 'sexe', 'depute']"
p302
sS'SPAN'
p303
S"<class 'gluon.html.SPAN'>"
p304
sS'IS_JSON'
p305
S"<class 'gluon.validators.IS_JSON'>"
p306
sS'IS_IPADDRESS'
p307
S"<class 'gluon.validators.IS_IPADDRESS'>"
p308
sS'IS_SLUG'
p309
S"<class 'gluon.validators.IS_SLUG'>"
p310
sS'BEAUTIFY'
p311
S"<class 'gluon.html.BEAUTIFY'>"
p312
sS'META'
p313
S"<class 'gluon.html.META'>"
p314
sS'BUTTON'
p315
S"<class 'gluon.html.BUTTON'>"
p316
sS'MongoClient'
p317
S"<class 'pymongo.mongo_client.MongoClient'>"
p318
sS'IS_DATE'
p319
S"<class 'gluon.validators.IS_DATE'>"
p320
sS'IS_EMAIL'
p321
S"<class 'gluon.validators.IS_EMAIL'>"
p322
sS'IS_NOT_EMPTY'
p323
S"<class 'gluon.validators.IS_NOT_EMPTY'>"
p324
sS'xrange'
p325
S"<type 'xrange'>"
p326
sS'TBODY'
p327
S"<class 'gluon.html.TBODY'>"
p328
sS'CAT'
p329
S"<class 'gluon.html.CAT'>"
p330
sS'Field'
p331
S"<class 'pydal.objects.Field'>"
p332
sS'IS_LIST_OF_EMAILS'
p333
S"<class 'gluon.validators.IS_LIST_OF_EMAILS'>"
p334
sg58
S"<Storage {'_vars': None, 'function': 'index', 'c...'/home/www-data/web2py/applications/obsas_dev/'}>"
p335
sS'DIV'
p336
S"<class 'gluon.html.DIV'>"
p337
sS'LEGEND'
p338
S"<class 'gluon.html.LEGEND'>"
p339
sS'to_native'
p340
S'<function to_native>'
p341
sS'COLGROUP'
p342
S"<class 'gluon.html.COLGROUP'>"
p343
sS'DAL'
p344
S"<class 'pydal.base.DAL'>"
p345
sS'ASSIGNJS'
p346
S'<function ASSIGNJS>'
p347
sS'TR'
p348
S"<class 'gluon.html.TR'>"
p349
sS'LI'
p350
S"<class 'gluon.html.LI'>"
p351
sS'TH'
p352
S"<class 'gluon.html.TH'>"
p353
sS'TD'
p354
S"<class 'gluon.html.TD'>"
p355
sS'PluginManager'
p356
S"<class 'gluon.tools.PluginManager'>"
p357
sS'IS_URL'
p358
S"<class 'gluon.validators.IS_URL'>"
p359
sS'A'
S"<class 'gluon.html.A'>"
p360
sS'HEAD'
p361
S"<class 'gluon.html.HEAD'>"
p362
sS'IS_DATETIME_IN_RANGE'
p363
S"<class 'gluon.validators.IS_DATETIME_IN_RANGE'>"
p364
sS'FORM'
p365
S"<class 'gluon.html.FORM'>"
p366
sS'I'
S"<class 'gluon.html.I'>"
p367
sS'IS_NOT_IN_DB'
p368
S"<class 'gluon.validators.IS_NOT_IN_DB'>"
p369
sg103
S"<Storage {'body': <cStringIO.StringO object at 0...t 0x7f470e174f50>, 'view': 'analyse/index.html'}>"
p370
sS'THEAD'
p371
S"<class 'gluon.html.THEAD'>"
p372
sS'ANY_OF'
p373
S"<class 'gluon.validators.ANY_OF'>"
p374
sS'IS_NULL_OR'
p375
S"<class 'gluon.validators.IS_EMPTY_OR'>"
p376
sS'IS_FLOAT_IN_RANGE'
p377
S"<class 'gluon.validators.IS_FLOAT_IN_RANGE'>"
p378
sS'IS_EXPR'
p379
S"<class 'gluon.validators.IS_EXPR'>"
p380
sS'T'
S'<gluon.languages.translator object>'
p381
sS'IS_IN_SET'
p382
S"<class 'gluon.validators.IS_IN_SET'>"
p383
sS'client'
p384
S"MongoClient(host=['localhost:27017'], document_class=dict, tz_aware=False, connect=True)"
p385
sS'IS_UPLOAD_FILENAME'
p386
S"<class 'gluon.validators.IS_UPLOAD_FILENAME'>"
p387
sS'TT'
p388
S"<class 'gluon.html.TT'>"
p389
sS'IS_DECIMAL_IN_RANGE'
p390
S"<class 'gluon.validators.IS_DECIMAL_IN_RANGE'>"
p391
sssS'traceback'
p392
S'Traceback (most recent call last):\n  File "/home/www-data/web2py/gluon/restricted.py", line 219, in restricted\n    exec(ccode, environment)\n  File "<string>", line 6, in <module>\nNameError: name \'axe\' is not defined\n'
p393
s.